
alignment.cpp.o:
0000000000000008 C .gomp_critical_user_sum_states
0000000000000000 V DW.ref._ZTINSt7__cxx1112basic_stringIcSt11char_traitsIcESaIcEEE
0000000000000000 V DW.ref._ZTINSt8ios_base7failureB5cxx11E
0000000000000000 V DW.ref._ZTIPKc
0000000000000000 V DW.ref.__gxx_personality_v0
                 U GOMP_atomic_end
                 U GOMP_atomic_start
                 U GOMP_critical_name_end
                 U GOMP_critical_name_start
                 U GOMP_parallel
                 U _GLOBAL_OFFSET_TABLE_
                 U _Unwind_Resume
0000000000000000 W _Z10_my_assertPKcS0_S0_i
                 U _Z10outWarningNSt7__cxx1112basic_stringIcSt11char_traitsIcESaIcEEE
                 U _Z10outWarningPKc
0000000000000000 T _Z10processSeqRNSt7__cxx1112basic_stringIcSt11char_traitsIcESaIcEEES5_i
                 U _Z10random_intiPi
                 U _Z10trimStringRNSt7__cxx1112basic_stringIcSt11char_traitsIcESaIcEEE
                 U _Z11convert_intPKc
                 U _Z11safeGetlineRSiRNSt7__cxx1112basic_stringIcSt11char_traitsIcESaIcEEE
0000000000000000 T _Z12binomial_cdfiid
                 U _Z12renameStringRNSt7__cxx1112basic_stringIcSt11char_traitsIcESaIcEEE
0000000000000000 T _Z13convert_rangePKcRiS1_S1_RPc
0000000000000000 T _Z13extractSiteIDP9AlignmentPKcRSt6vectorIiSaIiEEbib
                 U _Z13random_doublePi
                 U _Z14convert_doublePKc
0000000000000000 T _Z14getMorphStatesRSt6vectorINSt7__cxx1112basic_stringIcSt11char_traitsIcESaIcEEESaIS5_EE
                 U _Z15convert_int_vecPKcRSt6vectorIiSaIiEE
                 U _Z15detectInputFilePKc
0000000000000000 W _Z15generateSubsetsIjEvRSt6vectorIT_SaIS1_EERS0_IS3_SaIS3_EE
                 U _Z17random_resamplingiRSt6vectorIiSaIiEEPi
                 U _Z18convertIntToStringB5cxx11i
                 U _Z19gsl_ran_multinomialmjPKdPjPi
                 U _Z20getOutputNameWithExtRK9InputTypeRKNSt7__cxx1112basic_stringIcSt11char_traitsIcESaIcEEE
                 U _Z21normalize_frequenciesPdidb
0000000000000000 T _Z23getDataBlockMorphStatesP18NxsCharactersBlock
                 U _Z32convert_double_with_distributionPKcb
                 U _Z32normalize_frequencies_from_indexPdii
                 U _Z37random_frequencies_from_distributionsPdiNSt7__cxx1112basic_stringIcSt11char_traitsIcESaIcEEE
                 U _Z6logFaci
0000000000000000 T _Z8chi2probid
                 U _Z8outErrorNSt7__cxx1112basic_stringIcSt11char_traitsIcESaIcEEEb
                 U _Z8outErrorPKcNSt7__cxx1112basic_stringIcSt11char_traitsIcESaIcEEEb
                 U _Z8outErrorPKcS0_b
                 U _Z8outErrorPKcb
0000000000000000 W _Z9quicksortIiiEvPT_iiPT0_
0000000000000000 u _ZGVN5boost4math6detail15erf_initializerIeNS0_8policies6policyINS3_13promote_floatILb0EEENS3_14promote_doubleILb0EEENS3_14default_policyES9_S9_S9_S9_S9_S9_S9_S9_S9_S9_EENS_17integral_constantIiLi64EEEE11initializerE
0000000000000000 u _ZGVN5boost4math6detail17expm1_initializerIeNS0_8policies6policyINS3_13promote_floatILb0EEENS3_14promote_doubleILb0EEENS3_14default_policyES9_S9_S9_S9_S9_S9_S9_S9_S9_S9_EENS_17integral_constantIiLi64EEEE11initializerE
0000000000000000 u _ZGVN5boost4math6detail18igamma_initializerIeNS0_8policies6policyINS3_13promote_floatILb0EEENS3_14promote_doubleILb0EEENS3_14default_policyES9_S9_S9_S9_S9_S9_S9_S9_S9_S9_EEE11initializerE
0000000000000000 u _ZGVN5boost4math6detail18lgamma_initializerIeNS0_8policies6policyINS3_13promote_floatILb0EEENS3_14promote_doubleILb0EEENS3_14default_policyES9_S9_S9_S9_S9_S9_S9_S9_S9_S9_EEE11initializerE
0000000000000000 u _ZGVN5boost4math7lanczos19lanczos_initializerINS1_12lanczos17m64EeE11initializerE
0000000000000000 u _ZGVZN5Eigen8internal20manage_caching_sizesENS_6ActionEPlS2_S2_E12m_cacheSizes
                 U _ZN11gzstreambuf19getCompressedLengthEv
                 U _ZN11gzstreambuf21getCompressedPositionEv
                 U _ZN11gzstreambuf5closeEv
                 U _ZN12NxsDataBlockC1EP12NxsTaxaBlockP19NxsAssumptionsBlock
                 U _ZN12NxsTaxaBlock13GetTaxonLabelEj
                 U _ZN12NxsTaxaBlock17GetNumTaxonLabelsEv
                 U _ZN12NxsTaxaBlockC1Ev
                 U _ZN12gzstreambase4openEPKci
                 U _ZN12gzstreambase5closeEv
                 U _ZN12gzstreambaseD2Ev
                 U _ZN13NxsTreesBlockC1EP12NxsTaxaBlock
0000000000000000 T _ZN13SymTestResult13computePvalueEv
                 U _ZN16AlignmentSummary30constructSequenceMatrixNoisilyEbPKcS1_
                 U _ZN16AlignmentSummaryC1EPK9Alignmentbb
                 U _ZN16AlignmentSummaryD1Ev
                 U _ZN16progress_display18getProgressDisplayEv
                 U _ZN16progress_display4doneEb
                 U _ZN16progress_displayC1EdPKcS1_S1_
                 U _ZN16progress_displayD1Ev
                 U _ZN16progress_displayaSEd
                 U _ZN16progress_displaypLEd
                 U _ZN16progress_displayppEv
                 U _ZN17NxsDiscreteMatrix12GetNumStatesEjj
                 U _ZN17NxsDiscreteMatrix8GetStateEjjj
                 U _ZN18NxsCharactersBlockC1EP12NxsTaxaBlockP19NxsAssumptionsBlock
                 U _ZN19NxsAssumptionsBlockC1EP12NxsTaxaBlock
                 U _ZN3PML10StateSpaceC2Ev
                 U _ZN3PML10StateSpaceD2Ev
0000000000000000 W _ZN5Eigen8internal15queryCacheSizesERiS1_S1_
0000000000000000 W _ZN5Eigen8internal16parallelize_gemmILb1ENS0_12gemm_functorIdlNS0_29general_matrix_matrix_productIldLi0ELb0EdLi0ELb0ELi0ELi1EEENS_5BlockIKNS_6MatrixIdLin1ELin1ELi0ELin1ELin1EEELin1ELin1ELb0EEENS5_IS7_Lin1ELin1ELb0EEES7_NS0_19gemm_blocking_spaceILi0EddLin1ELin1ELin1ELi1ELb0EEEEElEEvRKT0_T1_SH_SH_b
0000000000000000 W _ZN5Eigen8internal19throw_std_bad_allocEv
0000000000000000 W _ZN5Eigen8internal20generic_product_implINS_5BlockIKNS_6MatrixIdLin1ELin1ELi0ELin1ELin1EEELin1ELin1ELb0EEENS2_IS4_Lin1ELin1ELb0EEENS_10DenseShapeES8_Li8EE13scaleAndAddToIS4_EEvRT_RKS6_RKS7_RKd
0000000000000000 W _ZN5Eigen8internal21dense_assignment_loopINS0_31generic_dense_assignment_kernelINS0_9evaluatorINS_5BlockINS_6MatrixIdLin1ELin1ELi0ELin1ELin1EEELin1ELin1ELb0EEEEENS3_IS6_EENS0_13sub_assign_opIddEELi0EEELi4ELi0EE3runERSC_
0000000000000000 W _ZN5Eigen8internal21dense_assignment_loopINS0_31generic_dense_assignment_kernelINS0_9evaluatorINS_6MatrixIdLin1ELi1ELi0ELin1ELi1EEEEENS3_INS_5BlockIKNS_16PartialReduxExprINS4_IdLin1ELin1ELi0ELin1ELin1EEENS0_10member_sumIddEELi1EEELin1ELi1ELb0EEEEENS0_9assign_opIddEELi0EEELi3ELi0EE3runERSI_
0000000000000000 W _ZN5Eigen8internal21dense_assignment_loopINS0_31generic_dense_assignment_kernelINS0_9evaluatorINS_6MatrixIdLin1ELin1ELi0ELin1ELin1EEEEENS3_INS_5BlockIS5_Lin1ELin1ELb0EEEEENS0_13sub_assign_opIddEELi0EEELi4ELi0EE3runERSC_
0000000000000000 W _ZN5Eigen8internal21dense_assignment_loopINS0_41restricted_packet_dense_assignment_kernelINS0_9evaluatorINS_6MatrixIdLin1ELin1ELi0ELin1ELin1EEEEENS3_INS_7ProductINS_5BlockIKS5_Lin1ELin1ELb0EEENS8_IS5_Lin1ELin1ELb0EEELi1EEEEENS0_9assign_opIddEEEELi4ELi0EE3runERSG_
0000000000000000 W _ZN5Eigen8internal23triangular_solve_matrixIdlLi1ELi2ELb0ELi0ELi0ELi1EE3runEllPKdlPdllRNS0_15level3_blockingIddEE
0000000000000000 W _ZN5Eigen8internal23triangular_solve_matrixIdlLi1ELi5ELb0ELi0ELi0ELi1EE3runEllPKdlPdllRNS0_15level3_blockingIddEE
0000000000000000 W _ZN5Eigen8internal27queryCacheSizes_intel_codesERiS1_S1_
0000000000000000 W _ZN5Eigen8internal29general_matrix_matrix_productIldLi0ELb0EdLi0ELb0ELi0ELi1EE3runElllPKdlS4_lPdlldRNS0_15level3_blockingIddEEPNS0_16GemmParallelInfoIlEE
0000000000000000 W _ZN5Eigen8internal29general_matrix_vector_productIldNS0_22const_blas_data_mapperIdlLi1EEELi1ELb0EdNS2_IdlLi0EEELb0ELi0EE3runEllRKS3_RKS4_Pdld
0000000000000000 W _ZN5Eigen8internal37evaluateProductBlockingSizesHeuristicIddLi1ElEEvRT2_S3_S3_S2_
0000000000000000 W _ZN5Eigen8internal37evaluateProductBlockingSizesHeuristicIddLi4ElEEvRT2_S3_S3_S2_
0000000000000000 W _ZN5Eigen9FullPivLUINS_6MatrixIdLin1ELin1ELi0ELin1ELin1EEEE14computeInPlaceEv
0000000000000000 W _ZN5Eigen9FullPivLUINS_6MatrixIdLin1ELin1ELi0ELin1ELin1EEEEC1ERKS3_
0000000000000000 W _ZN5Eigen9FullPivLUINS_6MatrixIdLin1ELin1ELi0ELin1ELin1EEEEC1IS2_EERNS_9EigenBaseIT_EE
0000000000000000 W _ZN5Eigen9FullPivLUINS_6MatrixIdLin1ELin1ELi0ELin1ELin1EEEEC2ERKS3_
0000000000000000 W _ZN5Eigen9FullPivLUINS_6MatrixIdLin1ELin1ELi0ELin1ELin1EEEEC2IS2_EERNS_9EigenBaseIT_EE
0000000000000000 W _ZN5Eigen9FullPivLUINS_6MatrixIdLin1ELin1ELi0ELin1ELin1EEEED1Ev
0000000000000000 W _ZN5Eigen9FullPivLUINS_6MatrixIdLin1ELin1ELi0ELin1ELin1EEEED2Ev
0000000000000000 W _ZN5boost10wrapexceptINS_4math14rounding_errorEED0Ev
00000000000000c0 W _ZN5boost10wrapexceptINS_4math14rounding_errorEED1Ev
00000000000000c0 W _ZN5boost10wrapexceptINS_4math14rounding_errorEED2Ev
0000000000000000 W _ZN5boost10wrapexceptINS_4math16evaluation_errorEED0Ev
00000000000000c0 W _ZN5boost10wrapexceptINS_4math16evaluation_errorEED1Ev
00000000000000c0 W _ZN5boost10wrapexceptINS_4math16evaluation_errorEED2Ev
0000000000000000 W _ZN5boost10wrapexceptISt12domain_errorED0Ev
0000000000000000 W _ZN5boost10wrapexceptISt12domain_errorED1Ev
0000000000000000 W _ZN5boost10wrapexceptISt12domain_errorED2Ev
0000000000000000 W _ZN5boost10wrapexceptISt14overflow_errorED0Ev
0000000000000050 W _ZN5boost10wrapexceptISt14overflow_errorED1Ev
0000000000000050 W _ZN5boost10wrapexceptISt14overflow_errorED2Ev
0000000000000000 W _ZN5boost15throw_exceptionINS_4math14rounding_errorEEEvRKT_
0000000000000000 W _ZN5boost15throw_exceptionISt12domain_errorEEvRKT_
0000000000000000 W _ZN5boost15throw_exceptionISt14overflow_errorEEvRKT_
0000000000000000 W _ZN5boost16exception_detail12refcount_ptrINS0_20error_info_containerEE7releaseEv
0000000000000000 W _ZN5boost16exception_detail20copy_boost_exceptionEPNS_9exceptionEPKS1_
0000000000000000 W _ZN5boost4math14rounding_errorD0Ev
0000000000000000 W _ZN5boost4math14rounding_errorD1Ev
0000000000000000 W _ZN5boost4math14rounding_errorD2Ev
0000000000000000 W _ZN5boost4math16evaluation_errorD0Ev
0000000000000000 W _ZN5boost4math16evaluation_errorD1Ev
0000000000000000 W _ZN5boost4math16evaluation_errorD2Ev
0000000000000000 W _ZN5boost4math6detail13binomial_ccdfIeEET_S3_S3_S3_S3_
0000000000000000 W _ZN5boost4math6detail5sinpxIeEET_S3_
0000000000000000 W _ZN5boost4math8policies6detail11prec_formatIdEENSt7__cxx1112basic_stringIcSt11char_traitsIcESaIcEEERKT_
0000000000000000 W _ZN5boost4math8policies6detail11prec_formatIeEENSt7__cxx1112basic_stringIcSt11char_traitsIcESaIcEEERKT_
0000000000000000 W _ZN5boost4math8policies6detail11raise_errorINS0_14rounding_errorEdEEvPKcS6_RKT0_
0000000000000000 W _ZN5boost4math8policies6detail11raise_errorINS0_14rounding_errorEeEEvPKcS6_RKT0_
0000000000000000 W _ZN5boost4math8policies6detail11raise_errorINS0_16evaluation_errorEeEEvPKcS6_RKT0_
0000000000000000 W _ZN5boost4math8policies6detail11raise_errorISt12domain_errordEEvPKcS6_RKT0_
0000000000000000 W _ZN5boost4math8policies6detail11raise_errorISt12domain_erroreEEvPKcS6_RKT0_
0000000000000000 W _ZN5boost4math8policies6detail11raise_errorISt14overflow_errordEEvPKcS6_
0000000000000000 W _ZN5boost4math8policies6detail11raise_errorISt14overflow_erroreEEvPKcS6_
0000000000000000 W _ZN5boost4math8policies6detail21replace_all_in_stringERNSt7__cxx1112basic_stringIcSt11char_traitsIcESaIcEEEPKcSB_
                 U _ZN6Params11getInstanceEv
0000000000000000 W _ZN6ParamsC1ERKS_
0000000000000000 W _ZN6ParamsC2ERKS_
0000000000000000 W _ZN6ParamsD1Ev
0000000000000000 W _ZN6ParamsD2Ev
0000000000000000 W _ZN7CharSetD1Ev
0000000000000000 W _ZN7CharSetD2Ev
0000000000000000 W _ZN7MyToken13OutputCommentERK9NxsString
0000000000000000 W _ZN7MyTokenD0Ev
0000000000000000 W _ZN7MyTokenD1Ev
0000000000000000 W _ZN7MyTokenD2Ev
                 U _ZN7Pattern20computeAmbiguousCharEi
                 U _ZN7PatternC1ERKS_
                 U _ZN7PatternC1Ev
                 U _ZN7PatternD1Ev
0000000000000000 W _ZN8MyReader10NexusErrorE9NxsStringSt4fposI11__mbstate_tEll
0000000000000000 W _ZN8MyReader13EnteringBlockE9NxsString
0000000000000000 W _ZN8MyReader13OutputCommentERK9NxsString
0000000000000000 W _ZN8MyReader13SkippingBlockE9NxsString
0000000000000000 W _ZN8MyReader15ExecuteStartingEv
0000000000000000 W _ZN8MyReader15ExecuteStoppingEv
0000000000000000 W _ZN8MyReaderD0Ev
0000000000000000 W _ZN8MyReaderD1Ev
0000000000000000 W _ZN8MyReaderD2Ev
                 U _ZN8NxsTokenC2ERSi
                 U _ZN8NxsTokenD2Ev
0000000000000000 T _ZN9Alignment10addPatternER7Patternii
0000000000000000 T _ZN9Alignment10addSeqNameENSt7__cxx1112basic_stringIcSt11char_traitsIcESaIcEEE
0000000000000000 T _ZN9Alignment10getSeqNameB5cxx11Ei
0000000000000000 T _ZN9Alignment10getSeqTypeEPKc
0000000000000000 T _ZN9Alignment10printFastaERSobPKciS2_
0000000000000000 T _ZN9Alignment10printNexusERSobPKciS2_b
0000000000000000 T _ZN9Alignment10readPhylipEPcS0_
0000000000000000 W _ZN9Alignment11computeDistEii
0000000000000000 T _ZN9Alignment11countStatesEPmm
0000000000000000 T _ZN9Alignment11doReadFastaEPcS0_RSt6vectorINSt7__cxx1112basic_stringIcSt11char_traitsIcESaIcEEESaIS7_EERiSB_
0000000000000000 T _ZN9Alignment11generateRefERSt6vectorINSt7__cxx1112basic_stringIcSt11char_traitsIcESaIcEEESaIS6_EE
0000000000000000 T _ZN9Alignment11getSeqNamesB5cxx11Ev
0000000000000000 T _ZN9Alignment11isStopCodonEi
0000000000000000 T _ZN9Alignment11printPhylipERSobPKciS2_b
0000000000000000 T _ZN9Alignment11readClustalEPcS0_
0000000000000000 T _ZN9Alignment12buildPatternERSt6vectorINSt7__cxx1112basic_stringIcSt11char_traitsIcESaIcEEESaIS6_EEPcii
0000000000000000 T _ZN9Alignment12checkSeqNameEv
0000000000000000 T _ZN9Alignment12computeConstER7Pattern
0000000000000000 T _ZN9Alignment12convertStateEc
0000000000000000 T _ZN9Alignment12convertStateEcN3PML7SeqTypeE
0000000000000000 T _ZN9Alignment12doReadPhylipEPcS0_RSt6vectorINSt7__cxx1112basic_stringIcSt11char_traitsIcESaIcEEESaIS7_EERiSB_
0000000000000000 T _ZN9Alignment12extractSitesEPS_PKcb
0000000000000000 T _ZN9Alignment12extractSitesEPS_RSt6vectorIiSaIiEE
0000000000000000 T _ZN9Alignment12isGapOnlySeqEm
0000000000000000 T _ZN9Alignment13buildStateMapEPcN3PML7SeqTypeE
0000000000000000 T _ZN9Alignment13checkGappySeqEb
0000000000000000 T _ZN9Alignment13computeJCDistEii
0000000000000000 T _ZN9Alignment13copyAlignmentEPS_
0000000000000000 T _ZN9Alignment13doReadClustalEPcS0_RSt6vectorINSt7__cxx1112basic_stringIcSt11char_traitsIcESaIcEEESaIS7_EERiSB_
0000000000000000 T _ZN9Alignment13getAppearanceEjPd
0000000000000000 T _ZN9Alignment13getAppearanceEjRSt6bitsetILm256EE
0000000000000000 T _ZN9Alignment13getSeqTypeStrB5cxx11EN3PML7SeqTypeE
0000000000000000 T _ZN9Alignment13printSiteGapsEPKc
0000000000000000 T _ZN9Alignment13printSiteInfoEPKc
0000000000000000 T _ZN9Alignment13printSiteInfoERSoi
0000000000000000 T _ZN9Alignment14addPatternLazyER7PatterniiRb
0000000000000000 T _ZN9Alignment14computeObsDistEii
0000000000000000 T _ZN9Alignment14countConstSiteEv
0000000000000000 T _ZN9Alignment14getPatternFreqEPi
0000000000000000 T _ZN9Alignment14getPatternFreqERSt6vectorIiSaIiEE
0000000000000000 T _ZN9Alignment14outputMutationERSt14basic_ofstreamIcSt11char_traitsIcEEcii
0000000000000000 T _ZN9Alignment14printAlignmentE9InputTypePKcbS2_iS2_
0000000000000000 T _ZN9Alignment14printAlignmentE9InputTypeRSoPKcbS3_iS3_
0000000000000000 T _ZN9Alignment14removeGappySeqEv
0000000000000000 T _ZN9Alignment14updatePatternsEm
0000000000000000 T _ZN9Alignment15countProperCharEi
0000000000000000 T _ZN9Alignment15extractPatternsEPS_RSt6vectorIiSaIiEE
0000000000000000 W _ZN9Alignment15getMaxNumStatesEv
0000000000000000 T _ZN9Alignment15multinomialProbEPdRd
0000000000000000 T _ZN9Alignment15multinomialProbERSt6vectorIiSaIiEE
0000000000000000 T _ZN9Alignment15multinomialProbES_Rd
0000000000000000 T _ZN9Alignment15multinomialProbESt6vectorIdSaIdEERd
0000000000000000 T _ZN9Alignment16addConstPatternsEPc
0000000000000000 T _ZN9Alignment16computeCodonFreqE13StateFreqTypePdS1_NSt7__cxx1112basic_stringIcSt11char_traitsIcESaIcEEE
0000000000000000 T _ZN9Alignment16computeStateFreqEPdm
0000000000000000 T _ZN9Alignment16convertCodonToAAEv
0000000000000000 T _ZN9Alignment16convertPomoStateEi
0000000000000000 T _ZN9Alignment16convertStateBackEc
0000000000000000 T _ZN9Alignment16extractDataBlockEP18NxsCharactersBlock
0000000000000000 T _ZN9Alignment16extractMapleFileERKNSt7__cxx1112basic_stringIcSt11char_traitsIcESaIcEEERK9InputType
0000000000000000 T _ZN9Alignment16extractMutationsERSt6vectorINSt7__cxx1112basic_stringIcSt11char_traitsIcESaIcEEESaIS6_EES9_RS6_RSt14basic_ofstreamIcS4_E
0000000000000000 T _ZN9Alignment16extractSequencesEPcS0_RSt6vectorINSt7__cxx1112basic_stringIcSt11char_traitsIcESaIcEEESaIS7_EERiSB_
0000000000000000 W _ZN9Alignment16isSuperAlignmentEv
0000000000000000 T _ZN9Alignment16readCountsFormatEPcS0_
0000000000000000 T _ZN9Alignment16shuffleAlignmentEv
0000000000000000 T _ZN9Alignment17checkAbsentStatesENSt7__cxx1112basic_stringIcSt11char_traitsIcESaIcEEE
0000000000000000 T _ZN9Alignment17checkIdenticalSeqEv
0000000000000000 T _ZN9Alignment17convertCodonToDNAEv
0000000000000000 T _ZN9Alignment17readSiteStateFreqEPKc
0000000000000000 T _ZN9Alignment18convertCountToFreqEPmPd
0000000000000000 T _ZN9Alignment18convertToCodonOrAAEPS_Pcb
0000000000000000 T _ZN9Alignment18detectSequenceTypeERSt6vectorINSt7__cxx1112basic_stringIcSt11char_traitsIcESaIcEEESaIS6_EE
0000000000000000 T _ZN9Alignment18getSiteFromResidueEiRiS0_
0000000000000000 T _ZN9Alignment18regroupSitePatternEiRSt6vectorIiSaIiEE
0000000000000000 T _ZN9Alignment18removeIdenticalSeqENSt7__cxx1112basic_stringIcSt11char_traitsIcESaIcEEEbRSt6vectorIS5_SaIS5_EES9_
0000000000000000 T _ZN9Alignment18ungroupSitePatternEv
0000000000000000 T _ZN9Alignment19buildRetainingSitesEPKcRSt6vectorIiSaIiEEiS1_
0000000000000000 T _ZN9Alignment19computeUnknownStateEv
0000000000000000 T _ZN9Alignment19convertStateBackStrB5cxx11Ej
0000000000000000 T _ZN9Alignment19countStatesForSitesEmmPm
0000000000000000 T _ZN9Alignment19extractPatternFreqsEPS_RSt6vectorIiSaIiEE
0000000000000000 T _ZN9Alignment19extractSubAlignmentEPS_RSt6vectorIiSaIiEEiiPS3_
0000000000000000 T _ZN9Alignment19getMaxSeqNameLengthEv
0000000000000000 T _ZN9Alignment19getNumNonstopCodonsEv
0000000000000000 W _ZN9Alignment19getSitePatternIndexERSt6vectorIiSaIiEE
0000000000000000 T _ZN9Alignment19printSiteInfoHeaderERSoPKcb
0000000000000000 T _ZN9Alignment19setExpectedNumSitesEi
0000000000000000 T _ZN9Alignment20buildFromPatternFreqERS_St6vectorIiSaIiEE
0000000000000000 T _ZN9Alignment20concatenateAlignmentEPS_
0000000000000000 T _ZN9Alignment20readPhylipSequentialEPcS0_
0000000000000000 T _ZN9Alignment21countStatePerSequenceEPj
0000000000000000 T _ZN9Alignment21generateUninfPatternsEjRSt6vectorIjSaIjEERS0_IiSaIiEERS0_I7PatternSaIS7_EE
0000000000000000 T _ZN9Alignment21isStandardGeneticCodeEv
                 U _ZN9Alignment22computeQuartetSupportsERSt6vectorIiSaIiEERS0_IlSaIlEE
0000000000000000 T _ZN9Alignment22doReadPhylipSequentialEPcS0_RSt6vectorINSt7__cxx1112basic_stringIcSt11char_traitsIcESaIcEEESaIS7_EERiSB_
0000000000000000 T _ZN9Alignment22orderPatternByNumCharsEi
0000000000000000 T _ZN9Alignment23computeDivergenceMatrixEPdS0_b
0000000000000000 T _ZN9Alignment24computeAbsoluteStateFreqEPj
0000000000000000 T _ZN9Alignment24computeUnconstrainedLogLEv
0000000000000000 T _ZN9Alignment24createBootstrapAlignmentEPS_PSt6vectorIiSaIiEEPKc
0000000000000000 T _ZN9Alignment24createBootstrapAlignmentEPiPKcS0_
0000000000000000 T _ZN9Alignment24createBootstrapAlignmentERSt6vectorIiSaIiEEPKc
0000000000000000 T _ZN9Alignment24createGapMaskedAlignmentEPS_S0_
0000000000000000 T _ZN9Alignment26getCodonStateTypeFromSitesEcccNSt7__cxx1112basic_stringIcSt11char_traitsIcESaIcEEEiRNS0_19basic_ostringstreamIcS3_S4_EERi
0000000000000000 T _ZN9Alignment26getUnobservedConstPatternsE7ASCTypeRSt6vectorI7PatternSaIS2_EE
0000000000000000 T _ZN9Alignment27computeStateFreqPerSequenceEPd
0000000000000000 T _ZN9Alignment7readMSFEPcS0_
0000000000000000 T _ZN9Alignment8convfreqEPd
0000000000000000 T _ZN9Alignment8getSeqIDERNSt7__cxx1112basic_stringIcSt11char_traitsIcESaIcEEE
0000000000000000 T _ZN9Alignment8readDistEPKcPd
0000000000000000 T _ZN9Alignment8readDistERSiPd
0000000000000000 T _ZN9Alignment9doReadMSFEPcS0_RSt6vectorINSt7__cxx1112basic_stringIcSt11char_traitsIcESaIcEEESaIS7_EERiSB_
0000000000000000 T _ZN9Alignment9doSymTestEmRSt6vectorI13SymTestResultSaIS1_EES4_S4_PiPS0_I11SymTestStatSaIS6_EE
0000000000000000 T _ZN9Alignment9initCodonEPc
0000000000000000 T _ZN9Alignment9printDistEPKcPd
0000000000000000 T _ZN9Alignment9printDistERSoPd
0000000000000000 T _ZN9Alignment9readFastaEPcS0_
0000000000000000 T _ZN9Alignment9readNexusEPc
0000000000000000 T _ZN9AlignmentC1EP12NxsDataBlockPcNSt7__cxx1112basic_stringIcSt11char_traitsIcESaIcEEE
0000000000000000 T _ZN9AlignmentC1EPcS0_R9InputTypeNSt7__cxx1112basic_stringIcSt11char_traitsIcESaIcEEE
0000000000000000 T _ZN9AlignmentC1Ev
0000000000000000 T _ZN9AlignmentC2EP12NxsDataBlockPcNSt7__cxx1112basic_stringIcSt11char_traitsIcESaIcEEE
0000000000000000 T _ZN9AlignmentC2EPcS0_R9InputTypeNSt7__cxx1112basic_stringIcSt11char_traitsIcESaIcEEE
0000000000000000 T _ZN9AlignmentC2Ev
0000000000000000 T _ZN9AlignmentD0Ev
0000000000000000 T _ZN9AlignmentD1Ev
0000000000000000 T _ZN9AlignmentD2Ev
                 U _ZN9NxsReader12ExitingBlockE9NxsString
                 U _ZN9NxsReader16DebugReportBlockER8NxsBlock
                 U _ZN9NxsReader21SkippingDisabledBlockE9NxsString
                 U _ZN9NxsReader3AddEP8NxsBlock
                 U _ZN9NxsReader7ExecuteER8NxsTokenb
                 U _ZN9NxsReaderC2Ev
                 U _ZN9NxsReaderD2Ev
                 U _ZN9RateGamma10cmpLnGammaEd
                 U _ZN9RateGamma18cmpIncompleteGammaEddd
0000000000000000 W _ZN9igzstreamD0Ev
0000000000000000 W _ZN9igzstreamD1Ev
0000000000000000 W _ZNK5Eigen18TriangularViewImplIKNS_5BlockIKNS_6MatrixIdLin1ELin1ELi0ELin1ELin1EEELin1ELin1ELb0EEELj2ENS_5DenseEE12solveInPlaceILi1ENS1_IS3_Lin1ELin1ELb0EEEEEvRKNS_10MatrixBaseIT0_EE
0000000000000000 W _ZNK5Eigen18TriangularViewImplIKNS_5BlockIKNS_6MatrixIdLin1ELin1ELi0ELin1ELin1EEELin1ELin1ELb0EEELj5ENS_5DenseEE12solveInPlaceILi1ENS1_IS3_Lin1ELin1ELb0EEEEEvRKNS_10MatrixBaseIT0_EE
0000000000000000 W _ZNK5Eigen8internal17product_evaluatorINS_7ProductINS_5BlockIKNS_6MatrixIdLin1ELin1ELi0ELin1ELin1EEELin1ELin1ELb0EEENS3_IS5_Lin1ELin1ELb0EEELi1EEELi8ENS_10DenseShapeESA_ddE5coeffEll
0000000000000000 W _ZNK5Eigen8internal9evaluatorINS_16PartialReduxExprIKNS_12CwiseUnaryOpINS0_13scalar_abs_opIdEEKNS_6MatrixIdLin1ELin1ELi0ELin1ELin1EEEEENS0_10member_sumIddEELi0EEEE5coeffEl
0000000000000000 W _ZNK5Eigen9FullPivLUINS_6MatrixIdLin1ELin1ELi0ELin1ELin1EEEE11_solve_implINS_14CwiseNullaryOpINS_8internal18scalar_identity_opIdEES2_EES2_EEvRKT_RT0_
0000000000000000 W _ZNK5boost10wrapexceptINS_4math14rounding_errorEE5cloneEv
0000000000000000 W _ZNK5boost10wrapexceptINS_4math14rounding_errorEE7rethrowEv
0000000000000000 W _ZNK5boost10wrapexceptINS_4math16evaluation_errorEE5cloneEv
0000000000000000 W _ZNK5boost10wrapexceptINS_4math16evaluation_errorEE7rethrowEv
0000000000000000 W _ZNK5boost10wrapexceptISt12domain_errorE5cloneEv
0000000000000000 W _ZNK5boost10wrapexceptISt12domain_errorE7rethrowEv
0000000000000000 W _ZNK5boost10wrapexceptISt14overflow_errorE5cloneEv
0000000000000000 W _ZNK5boost10wrapexceptISt14overflow_errorE7rethrowEv
                 U _ZNK7Pattern14computeGapCharEii
0000000000000000 T _ZNK9Alignment10adjustHashEbRm
0000000000000000 T _ZNK9Alignment10adjustHashEjRm
0000000000000000 T _ZNK9Alignment37computeJCDistanceFromObservedDistanceEd
0000000000000000 W _ZNKSt10_HashtableISt6vectorIjSaIjEESt4pairIKS2_iESaIS5_ENSt8__detail10_Select1stESt8equal_toIS2_E11hashPatternNS7_18_Mod_range_hashingENS7_20_Default_ranged_hashENS7_20_Prime_rehash_policyENS7_17_Hashtable_traitsILb1ELb0ELb1EEEE19_M_find_before_nodeEmRS4_m
                 U _ZNKSt11logic_error4whatEv
                 U _ZNKSt12__basic_fileIcE7is_openEv
                 U _ZNKSt13runtime_error4whatEv
                 U _ZNKSt5ctypeIcE13_M_widen_initEv
0000000000000000 W _ZNKSt5ctypeIcE8do_widenEc
                 U _ZNKSt7__cxx1112basic_stringIcSt11char_traitsIcESaIcEE13find_first_ofEPKcmm
                 U _ZNKSt7__cxx1112basic_stringIcSt11char_traitsIcESaIcEE4findEPKcmm
                 U _ZNKSt7__cxx1112basic_stringIcSt11char_traitsIcESaIcEE4findEcm
                 U _ZNKSt7__cxx1112basic_stringIcSt11char_traitsIcESaIcEE7compareEPKc
                 U _ZNKSt7__cxx1115basic_stringbufIcSt11char_traitsIcESaIcEE3strEv
0000000000000000 W _ZNKSt8_Rb_treeINSt7__cxx1112basic_stringIcSt11char_traitsIcESaIcEEESt4pairIKS5_iESt10_Select1stIS8_ESt4lessIS5_ESaIS8_EE4findERS7_
                 U _ZNKSt8__detail20_Prime_rehash_policy14_M_need_rehashEmmm
                 U _ZNSdD2Ev
                 U _ZNSi10_M_extractIdEERSiRT_
                 U _ZNSi10_M_extractImEERSiRT_
                 U _ZNSirsERi
                 U _ZNSo3putEc
                 U _ZNSo5flushEv
                 U _ZNSo5writeEPKcl
                 U _ZNSo9_M_insertIdEERSoT_
                 U _ZNSo9_M_insertIeEERSoT_
                 U _ZNSo9_M_insertIlEERSoT_
                 U _ZNSo9_M_insertImEERSoT_
                 U _ZNSolsEi
0000000000000000 W _ZNSt10_HashtableINSt7__cxx1112basic_stringIcSt11char_traitsIcESaIcEEES5_SaIS5_ENSt8__detail9_IdentityESt8equal_toIS5_ESt4hashIS5_ENS7_18_Mod_range_hashingENS7_20_Default_ranged_hashENS7_20_Prime_rehash_policyENS7_17_Hashtable_traitsILb1ELb1ELb1EEEE9_M_rehashEmRKm
0000000000000000 W _ZNSt10_HashtableINSt7__cxx1112basic_stringIcSt11char_traitsIcESaIcEEES5_SaIS5_ENSt8__detail9_IdentityESt8equal_toIS5_ESt4hashIS5_ENS7_18_Mod_range_hashingENS7_20_Default_ranged_hashENS7_20_Prime_rehash_policyENS7_17_Hashtable_traitsILb1ELb1ELb1EEEED1Ev
0000000000000000 W _ZNSt10_HashtableINSt7__cxx1112basic_stringIcSt11char_traitsIcESaIcEEES5_SaIS5_ENSt8__detail9_IdentityESt8equal_toIS5_ESt4hashIS5_ENS7_18_Mod_range_hashingENS7_20_Default_ranged_hashENS7_20_Prime_rehash_policyENS7_17_Hashtable_traitsILb1ELb1ELb1EEEED2Ev
0000000000000000 W _ZNSt10_HashtableISt6vectorIjSaIjEESt4pairIKS2_iESaIS5_ENSt8__detail10_Select1stESt8equal_toIS2_E11hashPatternNS7_18_Mod_range_hashingENS7_20_Default_ranged_hashENS7_20_Prime_rehash_policyENS7_17_Hashtable_traitsILb1ELb0ELb1EEEE4findERS4_
0000000000000000 W _ZNSt10_HashtableISt6vectorIjSaIjEESt4pairIKS2_iESaIS5_ENSt8__detail10_Select1stESt8equal_toIS2_E11hashPatternNS7_18_Mod_range_hashingENS7_20_Default_ranged_hashENS7_20_Prime_rehash_policyENS7_17_Hashtable_traitsILb1ELb0ELb1EEEE5clearEv
0000000000000000 W _ZNSt10_HashtableISt6vectorIjSaIjEESt4pairIKS2_iESaIS5_ENSt8__detail10_Select1stESt8equal_toIS2_E11hashPatternNS7_18_Mod_range_hashingENS7_20_Default_ranged_hashENS7_20_Prime_rehash_policyENS7_17_Hashtable_traitsILb1ELb0ELb1EEEE9_M_rehashEmRKm
0000000000000000 W _ZNSt10_HashtableISt6vectorIjSaIjEESt4pairIKS2_iESaIS5_ENSt8__detail10_Select1stESt8equal_toIS2_E11hashPatternNS7_18_Mod_range_hashingENS7_20_Default_ranged_hashENS7_20_Prime_rehash_policyENS7_17_Hashtable_traitsILb1ELb0ELb1EEEED1Ev
0000000000000000 W _ZNSt10_HashtableISt6vectorIjSaIjEESt4pairIKS2_iESaIS5_ENSt8__detail10_Select1stESt8equal_toIS2_E11hashPatternNS7_18_Mod_range_hashingENS7_20_Default_ranged_hashENS7_20_Prime_rehash_policyENS7_17_Hashtable_traitsILb1ELb0ELb1EEEED2Ev
0000000000000000 W _ZNSt10_HashtableIjSt4pairIKjjESaIS2_ENSt8__detail10_Select1stESt8equal_toIjESt4hashIjENS4_18_Mod_range_hashingENS4_20_Default_ranged_hashENS4_20_Prime_rehash_policyENS4_17_Hashtable_traitsILb0ELb0ELb1EEEE4findERS1_
0000000000000000 W _ZNSt10_HashtableIjSt4pairIKjjESaIS2_ENSt8__detail10_Select1stESt8equal_toIjESt4hashIjENS4_18_Mod_range_hashingENS4_20_Default_ranged_hashENS4_20_Prime_rehash_policyENS4_17_Hashtable_traitsILb0ELb0ELb1EEEE9_M_assignIRKSF_NS4_17_ReuseOrAllocNodeISaINS4_10_Hash_nodeIS2_Lb0EEEEEEEEvOT_RKT0_
0000000000000000 W _ZNSt10_HashtableIjSt4pairIKjjESaIS2_ENSt8__detail10_Select1stESt8equal_toIjESt4hashIjENS4_18_Mod_range_hashingENS4_20_Default_ranged_hashENS4_20_Prime_rehash_policyENS4_17_Hashtable_traitsILb0ELb0ELb1EEEE9_M_rehashEmRKm
0000000000000000 W _ZNSt10_HashtableIjSt4pairIKjjESaIS2_ENSt8__detail10_Select1stESt8equal_toIjESt4hashIjENS4_18_Mod_range_hashingENS4_20_Default_ranged_hashENS4_20_Prime_rehash_policyENS4_17_Hashtable_traitsILb0ELb0ELb1EEEED1Ev
0000000000000000 W _ZNSt10_HashtableIjSt4pairIKjjESaIS2_ENSt8__detail10_Select1stESt8equal_toIjESt4hashIjENS4_18_Mod_range_hashingENS4_20_Default_ranged_hashENS4_20_Prime_rehash_policyENS4_17_Hashtable_traitsILb0ELb0ELb1EEEED2Ev
                 U _ZNSt11logic_errorC2ERKS_
0000000000000000 W _ZNSt12_Destroy_auxILb0EE9__destroyIPNSt7__cxx1112basic_stringIcSt11char_traitsIcESaIcEEEEEvT_S9_
                 U _ZNSt12__basic_fileIcED1Ev
                 U _ZNSt12domain_errorC1ERKNSt7__cxx1112basic_stringIcSt11char_traitsIcESaIcEEE
                 U _ZNSt12domain_errorD1Ev
                 U _ZNSt12domain_errorD2Ev
                 U _ZNSt13basic_filebufIcSt11char_traitsIcEE4openEPKcSt13_Ios_Openmode
                 U _ZNSt13basic_filebufIcSt11char_traitsIcEE5closeEv
                 U _ZNSt13basic_filebufIcSt11char_traitsIcEEC1Ev
                 U _ZNSt13basic_filebufIcSt11char_traitsIcEED1Ev
                 U _ZNSt13runtime_errorC2ERKNSt7__cxx1112basic_stringIcSt11char_traitsIcESaIcEEE
                 U _ZNSt13runtime_errorC2ERKS_
                 U _ZNSt13runtime_errorD2Ev
                 U _ZNSt14basic_ifstreamIcSt11char_traitsIcEED1Ev
                 U _ZNSt14basic_ofstreamIcSt11char_traitsIcEED1Ev
                 U _ZNSt14overflow_errorC1ERKNSt7__cxx1112basic_stringIcSt11char_traitsIcESaIcEEE
                 U _ZNSt14overflow_errorD1Ev
                 U _ZNSt14overflow_errorD2Ev
                 U _ZNSt6localeC1Ev
                 U _ZNSt6localeD1Ev
0000000000000000 W _ZNSt6vectorI11SymTestStatSaIS0_EE17_M_realloc_insertIJRKS0_EEEvN9__gnu_cxx17__normal_iteratorIPS0_S2_EEDpOT_
0000000000000000 W _ZNSt6vectorI7PatternSaIS0_EE17_M_realloc_insertIJRKS0_EEEvN9__gnu_cxx17__normal_iteratorIPS0_S2_EEDpOT_
0000000000000000 W _ZNSt6vectorI7PatternSaIS0_EE7reserveEm
0000000000000000 W _ZNSt6vectorI7PatternSaIS0_EED1Ev
0000000000000000 W _ZNSt6vectorI7PatternSaIS0_EED2Ev
0000000000000000 W _ZNSt6vectorINSt7__cxx1112basic_stringIcSt11char_traitsIcESaIcEEESaIS5_EE12emplace_backIJS5_EEEvDpOT_
0000000000000000 W _ZNSt6vectorINSt7__cxx1112basic_stringIcSt11char_traitsIcESaIcEEESaIS5_EE14_M_fill_insertEN9__gnu_cxx17__normal_iteratorIPS5_S7_EEmRKS5_
0000000000000000 W _ZNSt6vectorINSt7__cxx1112basic_stringIcSt11char_traitsIcESaIcEEESaIS5_EE17_M_default_appendEm
0000000000000000 W _ZNSt6vectorINSt7__cxx1112basic_stringIcSt11char_traitsIcESaIcEEESaIS5_EE17_M_realloc_insertIJRKS5_EEEvN9__gnu_cxx17__normal_iteratorIPS5_S7_EEDpOT_
0000000000000000 W _ZNSt6vectorINSt7__cxx1112basic_stringIcSt11char_traitsIcESaIcEEESaIS5_EE17_M_realloc_insertIJS5_EEEvN9__gnu_cxx17__normal_iteratorIPS5_S7_EEDpOT_
0000000000000000 W _ZNSt6vectorINSt7__cxx1112basic_stringIcSt11char_traitsIcESaIcEEESaIS5_EED1Ev
0000000000000000 W _ZNSt6vectorINSt7__cxx1112basic_stringIcSt11char_traitsIcESaIcEEESaIS5_EED2Ev
0000000000000000 W _ZNSt6vectorIPdSaIS0_EE17_M_realloc_insertIJRKS0_EEEvN9__gnu_cxx17__normal_iteratorIPS0_S2_EEDpOT_
0000000000000000 W _ZNSt6vectorIPdSaIS0_EE17_M_realloc_insertIJS0_EEEvN9__gnu_cxx17__normal_iteratorIPS0_S2_EEDpOT_
0000000000000000 W _ZNSt6vectorIS_IjSaIjEESaIS1_EE17_M_realloc_insertIJRKS1_EEEvN9__gnu_cxx17__normal_iteratorIPS1_S3_EEDpOT_
0000000000000000 W _ZNSt6vectorIbSaIbEE14_M_fill_insertESt13_Bit_iteratormb
0000000000000000 W _ZNSt6vectorIiSaIiEE12emplace_backIJRmEEEvDpOT_
0000000000000000 W _ZNSt6vectorIiSaIiEE12emplace_backIJiEEEvDpOT_
0000000000000000 W _ZNSt6vectorIiSaIiEE14_M_fill_insertEN9__gnu_cxx17__normal_iteratorIPiS1_EEmRKi
0000000000000000 W _ZNSt6vectorIiSaIiEE17_M_default_appendEm
0000000000000000 W _ZNSt6vectorIiSaIiEE17_M_realloc_insertIJRKiEEEvN9__gnu_cxx17__normal_iteratorIPiS1_EEDpOT_
0000000000000000 W _ZNSt6vectorIjSaIjEE12emplace_backIJjEEEvDpOT_
0000000000000000 W _ZNSt6vectorIjSaIjEE14_M_fill_insertEN9__gnu_cxx17__normal_iteratorIPjS1_EEmRKj
0000000000000000 W _ZNSt6vectorIjSaIjEE17_M_default_appendEm
0000000000000000 W _ZNSt6vectorIjSaIjEE17_M_realloc_insertIJRKjEEEvN9__gnu_cxx17__normal_iteratorIPjS1_EEDpOT_
0000000000000000 W _ZNSt6vectorIjSaIjEE7reserveEm
0000000000000000 W _ZNSt6vectorImSaImEE14_M_fill_insertEN9__gnu_cxx17__normal_iteratorIPmS1_EEmRKm
                 U _ZNSt7__cxx1112basic_stringIcSt11char_traitsIcESaIcEE10_M_replaceEmmPKcm
                 U _ZNSt7__cxx1112basic_stringIcSt11char_traitsIcESaIcEE12_M_constructEmc
                 U _ZNSt7__cxx1112basic_stringIcSt11char_traitsIcESaIcEE14_M_replace_auxEmmmc
                 U _ZNSt7__cxx1112basic_stringIcSt11char_traitsIcESaIcEE4swapERS4_
                 U _ZNSt7__cxx1112basic_stringIcSt11char_traitsIcESaIcEE6appendEPKc
                 U _ZNSt7__cxx1112basic_stringIcSt11char_traitsIcESaIcEE6appendEPKcm
                 U _ZNSt7__cxx1112basic_stringIcSt11char_traitsIcESaIcEE7reserveEm
                 U _ZNSt7__cxx1112basic_stringIcSt11char_traitsIcESaIcEE8_M_eraseEmm
                 U _ZNSt7__cxx1112basic_stringIcSt11char_traitsIcESaIcEE9_M_appendEPKcm
                 U _ZNSt7__cxx1112basic_stringIcSt11char_traitsIcESaIcEE9_M_assignERKS4_
                 U _ZNSt7__cxx1112basic_stringIcSt11char_traitsIcESaIcEE9_M_createERmm
                 U _ZNSt7__cxx1112basic_stringIcSt11char_traitsIcESaIcEE9_M_mutateEmmPKcm
                 U _ZNSt7__cxx1112basic_stringIcSt11char_traitsIcESaIcEEC1EOS4_
                 U _ZNSt7__cxx1112basic_stringIcSt11char_traitsIcESaIcEEC1ERKS4_
                 U _ZNSt7__cxx1112basic_stringIcSt11char_traitsIcESaIcEED1Ev
                 U _ZNSt7__cxx1115basic_stringbufIcSt11char_traitsIcESaIcEE7_M_syncEPcmm
0000000000000000 W _ZNSt7__cxx1115basic_stringbufIcSt11char_traitsIcESaIcEED0Ev
0000000000000000 W _ZNSt7__cxx1115basic_stringbufIcSt11char_traitsIcESaIcEED1Ev
0000000000000000 W _ZNSt7__cxx1115basic_stringbufIcSt11char_traitsIcESaIcEED2Ev
                 U _ZNSt7__cxx1118basic_stringstreamIcSt11char_traitsIcESaIcEED1Ev
                 U _ZNSt7__cxx1119basic_istringstreamIcSt11char_traitsIcESaIcEED1Ev
                 U _ZNSt7__cxx1119basic_ostringstreamIcSt11char_traitsIcESaIcEED1Ev
0000000000000000 W _ZNSt8_Rb_treeINSt7__cxx1112basic_stringIcSt11char_traitsIcESaIcEEESt4pairIKS5_iESt10_Select1stIS8_ESt4lessIS5_ESaIS8_EE24_M_get_insert_unique_posERS7_
0000000000000000 W _ZNSt8_Rb_treeINSt7__cxx1112basic_stringIcSt11char_traitsIcESaIcEEESt4pairIKS5_iESt10_Select1stIS8_ESt4lessIS5_ESaIS8_EE29_M_get_insert_hint_unique_posESt23_Rb_tree_const_iteratorIS8_ERS7_
0000000000000000 W _ZNSt8_Rb_treeIcSt4pairIKciESt10_Select1stIS2_ESt4lessIcESaIS2_EE22_M_emplace_hint_uniqueIJRKSt21piecewise_construct_tSt5tupleIJRS1_EESD_IJEEEEESt17_Rb_tree_iteratorIS2_ESt23_Rb_tree_const_iteratorIS2_EDpOT_
0000000000000000 W _ZNSt8_Rb_treeIcSt4pairIKciESt10_Select1stIS2_ESt4lessIcESaIS2_EE24_M_get_insert_unique_posERS1_
0000000000000000 W _ZNSt8_Rb_treeIcSt4pairIKciESt10_Select1stIS2_ESt4lessIcESaIS2_EE29_M_get_insert_hint_unique_posESt23_Rb_tree_const_iteratorIS2_ERS1_
0000000000000000 W _ZNSt8__detail9_Map_baseISt6vectorIjSaIjEESt4pairIKS3_iESaIS6_ENS_10_Select1stESt8equal_toIS3_E11hashPatternNS_18_Mod_range_hashingENS_20_Default_ranged_hashENS_20_Prime_rehash_policyENS_17_Hashtable_traitsILb1ELb0ELb1EEELb1EEixERS5_
0000000000000000 W _ZNSt8__detail9_Map_baseIjSt4pairIKjjESaIS3_ENS_10_Select1stESt8equal_toIjESt4hashIjENS_18_Mod_range_hashingENS_20_Default_ranged_hashENS_20_Prime_rehash_policyENS_17_Hashtable_traitsILb0ELb0ELb1EEELb1EEixERS2_
                 U _ZNSt8ios_base4InitC1Ev
                 U _ZNSt8ios_base4InitD1Ev
                 U _ZNSt8ios_base7failureB5cxx11D1Ev
                 U _ZNSt8ios_baseC2Ev
                 U _ZNSt8ios_baseD2Ev
                 U _ZNSt9bad_allocD1Ev
                 U _ZNSt9basic_iosIcSt11char_traitsIcEE4initEPSt15basic_streambufIcS1_E
                 U _ZNSt9basic_iosIcSt11char_traitsIcEE5clearESt12_Ios_Iostate
                 U _ZSt11_Hash_bytesPKvmm
0000000000000000 W _ZSt16__do_uninit_copyIN9__gnu_cxx17__normal_iteratorIPKNSt7__cxx1112basic_stringIcSt11char_traitsIcESaIcEEESt6vectorIS7_SaIS7_EEEEPS7_ET0_T_SG_SF_
0000000000000000 W _ZSt16__do_uninit_copyIN9__gnu_cxx17__normal_iteratorIPNSt7__cxx1112basic_stringIcSt11char_traitsIcESaIcEEESt6vectorIS7_SaIS7_EEEES8_ET0_T_SE_SD_
0000000000000000 W _ZSt16__do_uninit_copyIPK7PatternPS0_ET0_T_S5_S4_
                 U _ZSt16__ostream_insertIcSt11char_traitsIcEERSt13basic_ostreamIT_T0_ES6_PKS3_l
                 U _ZSt16__throw_bad_castv
                 U _ZSt17__throw_bad_allocv
                 U _ZSt18_Rb_tree_decrementPSt18_Rb_tree_node_base
                 U _ZSt18_Rb_tree_incrementPSt18_Rb_tree_node_base
0000000000000000 W _ZSt18__do_uninit_fill_nIPNSt7__cxx1112basic_stringIcSt11char_traitsIcESaIcEEEmS5_ET_S7_T0_RKT1_
                 U _ZSt19__throw_logic_errorPKc
                 U _ZSt20__throw_length_errorPKc
                 U _ZSt24__throw_out_of_range_fmtPKcz
                 U _ZSt28__throw_bad_array_new_lengthv
                 U _ZSt29_Rb_tree_insert_and_rebalancebPSt18_Rb_tree_node_baseS0_RS_
                 U _ZSt4cerr
                 U _ZSt4cout
                 U _ZSt4endlIcSt11char_traitsIcEERSt13basic_ostreamIT_T0_ES6_
                 U _ZSt7getlineIcSt11char_traitsIcESaIcEERSt13basic_istreamIT_T0_ES7_RNSt7__cxx1112basic_stringIS4_S5_T1_EES4_
                 U _ZStlsISt11char_traitsIcEERSt13basic_ostreamIcT_ES5_PKc
0000000000000000 W _ZStplIcSt11char_traitsIcESaIcEENSt7__cxx1112basic_stringIT_T0_T1_EEOS8_S9_
0000000000000000 W _ZStplIcSt11char_traitsIcESaIcEENSt7__cxx1112basic_stringIT_T0_T1_EEPKS5_OS8_
0000000000000000 W _ZStplIcSt11char_traitsIcESaIcEENSt7__cxx1112basic_stringIT_T0_T1_EEPKS5_RKS8_
                 U _ZStrsIcSt11char_traitsIcESaIcEERSt13basic_istreamIT_T0_ES7_RNSt7__cxx1112basic_stringIS4_S5_T1_EE
0000000000000000 V _ZTC9igzstream0_12gzstreambase
0000000000000000 V _ZTC9igzstream408_Si
                 U _ZTI12gzstreambase
0000000000000000 V _ZTI7CharSet
0000000000000000 V _ZTI7MyToken
0000000000000000 V _ZTI8MyReader
                 U _ZTI8NxsToken
0000000000000000 V _ZTI9Alignment
                 U _ZTI9NxsReader
0000000000000000 V _ZTI9igzstream
0000000000000000 V _ZTIN3PML10StateSpaceE
0000000000000000 V _ZTIN5boost10wrapexceptINS_4math14rounding_errorEEE
0000000000000000 V _ZTIN5boost10wrapexceptINS_4math16evaluation_errorEEE
0000000000000000 V _ZTIN5boost10wrapexceptISt12domain_errorEE
0000000000000000 V _ZTIN5boost10wrapexceptISt14overflow_errorEE
0000000000000000 V _ZTIN5boost16exception_detail10clone_baseE
0000000000000000 V _ZTIN5boost4math14rounding_errorE
0000000000000000 V _ZTIN5boost4math16evaluation_errorE
0000000000000000 V _ZTIN5boost9exceptionE
0000000000000000 V _ZTINSt7__cxx1112basic_stringIcSt11char_traitsIcESaIcEEE
                 U _ZTINSt8ios_base7failureB5cxx11E
                 U _ZTIPKc
                 U _ZTISi
0000000000000000 V _ZTISt12_Vector_baseI7PatternSaIS0_EE
                 U _ZTISt12domain_error
                 U _ZTISt13runtime_error
                 U _ZTISt14overflow_error
0000000000000000 V _ZTISt6vectorI7PatternSaIS0_EE
                 U _ZTISt9bad_alloc
0000000000000000 V _ZTS7CharSet
0000000000000000 V _ZTS7MyToken
0000000000000000 V _ZTS8MyReader
0000000000000000 V _ZTS9Alignment
0000000000000000 V _ZTS9igzstream
0000000000000000 V _ZTSN3PML10StateSpaceE
0000000000000000 V _ZTSN5boost10wrapexceptINS_4math14rounding_errorEEE
0000000000000000 V _ZTSN5boost10wrapexceptINS_4math16evaluation_errorEEE
0000000000000000 V _ZTSN5boost10wrapexceptISt12domain_errorEE
0000000000000000 V _ZTSN5boost10wrapexceptISt14overflow_errorEE
0000000000000000 V _ZTSN5boost16exception_detail10clone_baseE
0000000000000000 V _ZTSN5boost4math14rounding_errorE
0000000000000000 V _ZTSN5boost4math16evaluation_errorE
0000000000000000 V _ZTSN5boost9exceptionE
0000000000000000 V _ZTSNSt7__cxx1112basic_stringIcSt11char_traitsIcESaIcEEE
0000000000000000 V _ZTSSt12_Vector_baseI7PatternSaIS0_EE
0000000000000000 V _ZTSSt6vectorI7PatternSaIS0_EE
0000000000000000 V _ZTT9igzstream
                 U _ZTTNSt7__cxx1118basic_stringstreamIcSt11char_traitsIcESaIcEEE
                 U _ZTTNSt7__cxx1119basic_istringstreamIcSt11char_traitsIcESaIcEEE
                 U _ZTTNSt7__cxx1119basic_ostringstreamIcSt11char_traitsIcESaIcEEE
                 U _ZTTSt14basic_ifstreamIcSt11char_traitsIcEE
                 U _ZTTSt14basic_ofstreamIcSt11char_traitsIcEE
                 U _ZTV11gzstreambuf
0000000000000000 V _ZTV7MyToken
0000000000000000 V _ZTV8MyReader
0000000000000000 V _ZTV9Alignment
0000000000000000 V _ZTV9igzstream
                 U _ZTVN10__cxxabiv117__class_type_infoE
                 U _ZTVN10__cxxabiv120__si_class_type_infoE
                 U _ZTVN10__cxxabiv121__vmi_class_type_infoE
0000000000000000 V _ZTVN5boost10wrapexceptINS_4math14rounding_errorEEE
0000000000000000 V _ZTVN5boost10wrapexceptINS_4math16evaluation_errorEEE
0000000000000000 V _ZTVN5boost10wrapexceptISt12domain_errorEE
0000000000000000 V _ZTVN5boost10wrapexceptISt14overflow_errorEE
0000000000000000 V _ZTVN5boost16exception_detail10clone_baseE
0000000000000000 V _ZTVN5boost4math14rounding_errorE
0000000000000000 V _ZTVN5boost4math16evaluation_errorE
0000000000000000 V _ZTVN5boost9exceptionE
                 U _ZTVNSt7__cxx1115basic_stringbufIcSt11char_traitsIcESaIcEEE
                 U _ZTVNSt7__cxx1118basic_stringstreamIcSt11char_traitsIcESaIcEEE
                 U _ZTVNSt7__cxx1119basic_istringstreamIcSt11char_traitsIcESaIcEEE
                 U _ZTVNSt7__cxx1119basic_ostringstreamIcSt11char_traitsIcESaIcEEE
                 U _ZTVNSt8ios_base7failureB5cxx11E
                 U _ZTVSt12domain_error
                 U _ZTVSt13basic_filebufIcSt11char_traitsIcEE
                 U _ZTVSt14basic_ifstreamIcSt11char_traitsIcEE
                 U _ZTVSt14basic_ofstreamIcSt11char_traitsIcEE
                 U _ZTVSt14overflow_error
                 U _ZTVSt15basic_streambufIcSt11char_traitsIcEE
                 U _ZTVSt9bad_alloc
                 U _ZTVSt9basic_iosIcSt11char_traitsIcEE
0000000000000070 W _ZThn24_N5boost10wrapexceptINS_4math14rounding_errorEED0Ev
0000000000000060 W _ZThn24_N5boost10wrapexceptINS_4math14rounding_errorEED1Ev
0000000000000070 W _ZThn24_N5boost10wrapexceptINS_4math16evaluation_errorEED0Ev
0000000000000000 W _ZThn24_N5boost10wrapexceptINS_4math16evaluation_errorEED1Ev
0000000000000060 W _ZThn24_N5boost10wrapexceptISt12domain_errorED0Ev
00000000000000a0 W _ZThn24_N5boost10wrapexceptISt12domain_errorED1Ev
00000000000000d0 W _ZThn24_N5boost10wrapexceptISt14overflow_errorED0Ev
0000000000000000 W _ZThn24_N5boost10wrapexceptISt14overflow_errorED1Ev
0000000000000070 W _ZThn408_N9igzstreamD0Ev
0000000000000070 W _ZThn408_N9igzstreamD1Ev
00000000000000f0 W _ZThn8_N5boost10wrapexceptINS_4math14rounding_errorEED0Ev
0000000000000000 W _ZThn8_N5boost10wrapexceptINS_4math14rounding_errorEED1Ev
00000000000000f0 W _ZThn8_N5boost10wrapexceptINS_4math16evaluation_errorEED0Ev
0000000000000060 W _ZThn8_N5boost10wrapexceptINS_4math16evaluation_errorEED1Ev
00000000000000d0 W _ZThn8_N5boost10wrapexceptISt12domain_errorED0Ev
0000000000000050 W _ZThn8_N5boost10wrapexceptISt12domain_errorED1Ev
0000000000000060 W _ZThn8_N5boost10wrapexceptISt14overflow_errorED0Ev
00000000000000a0 W _ZThn8_N5boost10wrapexceptISt14overflow_errorED1Ev
00000000000000f0 W _ZTv0_n24_N9igzstreamD0Ev
00000000000000e0 W _ZTv0_n24_N9igzstreamD1Ev
0000000000000000 u _ZZN5Eigen8internal20manage_caching_sizesENS_6ActionEPlS2_S2_E12m_cacheSizes
0000000000000000 u _ZZN5Eigen8internal22manage_multi_threadingENS_6ActionEPiE12m_maxThreads
0000000000000000 u _ZZN5boost4math19unchecked_factorialIeEET_jE10factorials
0000000000000000 u _ZZN5boost4math20binomial_coefficientIeNS0_8policies6policyINS2_14default_policyES4_S4_S4_S4_S4_S4_S4_S4_S4_S4_S4_S4_EEEET_jjRKT0_E8function
0000000000000000 u _ZZN5boost4math6detail10lgamma_impIeNS0_8policies6policyINS3_13promote_floatILb0EEENS3_14promote_doubleILb0EEENS3_14default_policyES9_S9_S9_S9_S9_S9_S9_S9_S9_S9_EENS0_7lanczos12lanczos17m64EEET_SD_RKT0_RKT1_PiE8function
0000000000000000 u _ZZN5boost4math6detail20gamma_incomplete_impIeNS0_8policies6policyINS3_13promote_floatILb0EEENS3_14promote_doubleILb0EEENS3_14default_policyES9_S9_S9_S9_S9_S9_S9_S9_S9_S9_EEEET_SB_SB_bbRKT0_PSB_E8function
0000000000000000 u _ZZN5boost4math6detail9gamma_impIeNS0_8policies6policyINS3_13promote_floatILb0EEENS3_14promote_doubleILb0EEENS3_14default_policyES9_S9_S9_S9_S9_S9_S9_S9_S9_S9_EENS0_7lanczos12lanczos17m64EEET_SD_RKT0_RKT1_E8function
0000000000000000 u _ZZN5boost4math6detail9ibeta_impIeNS0_8policies6policyINS3_13promote_floatILb0EEENS3_14promote_doubleILb0EEENS3_14default_policyES9_S9_S9_S9_S9_S9_S9_S9_S9_S9_EEEET_SB_SB_SB_RKT0_bbPSB_E8function
0000000000000000 u _ZZN5boost4math6detail9powm1_impIeNS0_8policies6policyINS3_13promote_floatILb0EEENS3_14promote_doubleILb0EEENS3_14default_policyES9_S9_S9_S9_S9_S9_S9_S9_S9_S9_EEEET_SB_SB_RKT0_E8function
0000000000000000 u _ZZN5boost4math7lanczos12lanczos17m6411lanczos_sumIeEET_RKS4_E3num
0000000000000000 u _ZZN5boost4math7lanczos12lanczos17m6411lanczos_sumIeEET_RKS4_E5denom
0000000000000000 u _ZZN5boost4math7lanczos12lanczos17m6423lanczos_sum_expG_scaledIeEET_RKS4_E3num
0000000000000000 u _ZZN5boost4math7lanczos12lanczos17m6423lanczos_sum_expG_scaledIeEET_RKS4_E5denom
0000000000000000 u _ZZN5boost4math7log1pmxIeNS0_8policies6policyINS2_13promote_floatILb0EEENS2_14promote_doubleILb0EEENS2_14default_policyES8_S8_S8_S8_S8_S8_S8_S8_S8_S8_EEEENS0_5tools12promote_argsIT_fffffE4typeESC_RKT0_E8function
                 U _ZdaPv
                 U _ZdlPv
0000000000000000 T _ZlsRSoRK13SymTestResult
                 U _Znam
                 U _Znwm
                 U __assert_fail
                 U __cxa_allocate_exception
                 U __cxa_atexit
                 U __cxa_begin_catch
                 U __cxa_call_unexpected
                 U __cxa_end_catch
                 U __cxa_free_exception
                 U __cxa_get_exception_ptr
                 U __cxa_guard_acquire
                 U __cxa_guard_release
                 w __cxa_pure_virtual
                 U __cxa_rethrow
                 U __cxa_throw
                 U __cxa_throw_bad_array_new_length
                 U __dso_handle
                 U __gxx_personality_v0
                 U __popcountdi2
                 U abort
                 U asinl
                 U calloc
                 U exit
                 U exp
                 U expl
                 U expm1l
                 U free
                 U frexpl
0000000000000000 D genetic_code1
0000000000000000 D genetic_code10
0000000000000000 D genetic_code11
0000000000000000 D genetic_code12
0000000000000000 D genetic_code13
0000000000000000 D genetic_code14
0000000000000000 D genetic_code15
0000000000000000 D genetic_code16
0000000000000000 D genetic_code2
0000000000000000 D genetic_code21
0000000000000000 D genetic_code22
0000000000000000 D genetic_code23
0000000000000000 D genetic_code24
0000000000000000 D genetic_code25
0000000000000000 D genetic_code3
0000000000000000 D genetic_code4
0000000000000000 D genetic_code5
0000000000000000 D genetic_code6
0000000000000000 D genetic_code9
                 U isalnum
                 U isalpha
                 U ldexpl
                 U log
                 U log10
                 U log1pl
                 U logl
                 U malloc
                 U memcmp
                 U memcpy
                 U memmove
                 U memset
                 U omp_get_max_threads
                 U omp_get_num_threads
                 U omp_get_thread_num
                 U omp_get_wtime
                 U powl
                 U round
                 U sinl
                 U sqrtl
                 U strchr
                 U strcmp
                 U strcpy
                 U strlen
                 U strncmp
                 U strrchr
                 U strtol
0000000000000000 D symbols_dna
0000000000000000 D symbols_morph
0000000000000000 D symbols_protein
0000000000000000 D symbols_rna
                 U toupper
                 U verbose_mode

alignmentpairwise.cpp.o:
0000000000000000 V DW.ref.__gxx_personality_v0
                 U GOMP_atomic_end
                 U GOMP_atomic_start
                 U GOMP_loop_end_nowait
                 U GOMP_loop_nonmonotonic_dynamic_next
                 U GOMP_loop_nonmonotonic_dynamic_start
                 U GOMP_parallel
                 U _GLOBAL_OFFSET_TABLE_
                 U _Unwind_Resume
0000000000000000 W _ZN10ModelSubst13getPtnModelIDEi
0000000000000000 W _ZN10ModelSubst18getTransMatrixSizeEv
0000000000000000 W _ZN10ModelSubst19isSiteSpecificModelEv
                 U _ZN12ModelFactory12computeTransEdii
                 U _ZN12ModelFactory16computeTransDervEdPdS0_S0_i
                 U _ZN12ModelFactory18computeTransMatrixEdPdii
0000000000000000 W _ZN12Optimization10targetFunkEPd
                 U _ZN12Optimization13optimGradientEiPdS0_
                 U _ZN12Optimization14derivativeFunkEPdS0_
                 U _ZN12Optimization14minimizeNewtonEddddRdi
                 U _ZN12Optimization16minimizeOneDimenEddddPdS0_
                 U _ZN12Optimization17restartParametersEPdiS0_S0_Pbi
0000000000000000 W _ZN12Optimization20computeFuncDervMultiEPdS0_S0_
0000000000000000 W _ZN12Optimization7getNDimEv
                 U _ZN12Optimization9optimFuncEiPd
                 U _ZN12OptimizationC2Ev
                 U _ZN12OptimizationD2Ev
0000000000000000 T _ZN17AlignmentPairwise10addPatternEiiii
0000000000000000 T _ZN17AlignmentPairwise12optimizeDistEd
0000000000000000 T _ZN17AlignmentPairwise12optimizeDistEdRd
0000000000000000 T _ZN17AlignmentPairwise13recomputeDistEiidRd
0000000000000000 T _ZN17AlignmentPairwise15computeFuncDervEdRdS0_
0000000000000000 T _ZN17AlignmentPairwise15computeFunctionEd
0000000000000000 T _ZN17AlignmentPairwise18setSequenceNumbersEii
0000000000000000 T _ZN17AlignmentPairwise7setTreeEP9PhyloTree
0000000000000000 T _ZN17AlignmentPairwiseC1EP9PhyloTree
0000000000000000 T _ZN17AlignmentPairwiseC1EP9PhyloTreeii
0000000000000000 T _ZN17AlignmentPairwiseC1Ev
0000000000000000 T _ZN17AlignmentPairwiseC2EP9PhyloTree
0000000000000000 T _ZN17AlignmentPairwiseC2EP9PhyloTreeii
0000000000000000 T _ZN17AlignmentPairwiseC2Ev
0000000000000000 T _ZN17AlignmentPairwiseD0Ev
0000000000000000 T _ZN17AlignmentPairwiseD1Ev
0000000000000000 T _ZN17AlignmentPairwiseD2Ev
0000000000000000 W _ZN17RateHeterogeneity10getPtnRateEi
0000000000000000 W _ZN17RateHeterogeneity13getGammaShapeEv
0000000000000000 W _ZN17RateHeterogeneity16getNDiscreteRateEv
0000000000000000 W _ZN17RateHeterogeneity18isSiteSpecificRateEv
0000000000000000 W _ZN17RateHeterogeneity7getPropEi
0000000000000000 W _ZN17RateHeterogeneity7getRateEi
0000000000000000 W _ZN17RateHeterogeneity9getPInvarEv
0000000000000000 W _ZN17RateHeterogeneity9getPtnCatEi
                 U _ZN6Params11getInstanceEv
0000000000000000 W _ZN9Alignment11computeDistEii
                 U _ZN9Alignment12computeConstER7Pattern
                 U _ZN9Alignment12convertStateEcN3PML7SeqTypeE
                 U _ZN9Alignment13checkGappySeqEb
                 U _ZN9Alignment13computeJCDistEii
                 U _ZN9Alignment13printSiteInfoEPKc
                 U _ZN9Alignment14computeObsDistEii
                 U _ZN9Alignment14countConstSiteEv
                 U _ZN9Alignment14getPatternFreqEPi
                 U _ZN9Alignment14getPatternFreqERSt6vectorIiSaIiEE
                 U _ZN9Alignment14printAlignmentE9InputTypeRSoPKcbS3_iS3_
0000000000000000 W _ZN9Alignment15getMaxNumStatesEv
                 U _ZN9Alignment16computeStateFreqEPdm
                 U _ZN9Alignment16convertPomoStateEi
0000000000000000 W _ZN9Alignment16isSuperAlignmentEv
                 U _ZN9Alignment16shuffleAlignmentEv
                 U _ZN9Alignment17checkAbsentStatesENSt7__cxx1112basic_stringIcSt11char_traitsIcESaIcEEE
                 U _ZN9Alignment18removeIdenticalSeqENSt7__cxx1112basic_stringIcSt11char_traitsIcESaIcEEEbRSt6vectorIS5_SaIS5_EES9_
                 U _ZN9Alignment19extractSubAlignmentEPS_RSt6vectorIiSaIiEEiiPS3_
0000000000000000 W _ZN9Alignment19getSitePatternIndexERSt6vectorIiSaIiEE
                 U _ZN9Alignment22computeQuartetSupportsERSt6vectorIiSaIiEERS0_IlSaIlEE
                 U _ZN9Alignment22orderPatternByNumCharsEi
                 U _ZN9Alignment23computeDivergenceMatrixEPdS0_b
                 U _ZN9Alignment24computeUnconstrainedLogLEv
                 U _ZN9Alignment24createBootstrapAlignmentEPS_PSt6vectorIiSaIiEEPKc
                 U _ZN9Alignment24createBootstrapAlignmentEPiPKcS0_
                 U _ZN9Alignment24createBootstrapAlignmentERSt6vectorIiSaIiEEPKc
                 U _ZN9Alignment9doSymTestEmRSt6vectorI13SymTestResultSaIS1_EES4_S4_PiPS0_I11SymTestStatSaIS6_EE
                 U _ZN9AlignmentC2Ev
                 U _ZN9AlignmentD2Ev
0000000000000000 W _ZN9PhyloTree15getModelFactoryEv
0000000000000000 W _ZN9PhyloTree8getModelEv
                 U _ZNK9Alignment37computeJCDistanceFromObservedDistanceEd
                 U _ZNK9PhyloTree15hasModelFactoryEv
                 U _ZNK9PhyloTree20hasRateHeterogeneityEv
                 U _ZNKSt5ctypeIcE13_M_widen_initEv
0000000000000000 W _ZNKSt5ctypeIcE8do_widenEc
                 U _ZNSo3putEc
                 U _ZNSo5flushEv
                 U _ZNSt8ios_base4InitC1Ev
                 U _ZNSt8ios_base4InitD1Ev
                 U _ZSt16__ostream_insertIcSt11char_traitsIcEERSt13basic_ostreamIT_T0_ES6_PKS3_l
                 U _ZSt16__throw_bad_castv
                 U _ZSt24__throw_out_of_range_fmtPKcz
                 U _ZSt28__throw_bad_array_new_lengthv
                 U _ZSt4cerr
                 U _ZTI12Optimization
0000000000000000 V _ZTI17AlignmentPairwise
                 U _ZTI9Alignment
                 U _ZTIPKc
0000000000000000 V _ZTS17AlignmentPairwise
0000000000000000 V _ZTV17AlignmentPairwise
                 U _ZTVN10__cxxabiv121__vmi_class_type_infoE
0000000000000000 T _ZThn832_N17AlignmentPairwise15computeFuncDervEdRdS0_
0000000000000000 T _ZThn832_N17AlignmentPairwise15computeFunctionEd
                 U _ZdaPv
                 U _ZdlPv
                 U _Znam
                 U _Znwm
                 U __cxa_allocate_exception
                 U __cxa_atexit
                 U __cxa_throw
                 U __cxa_throw_bad_array_new_length
                 U __dso_handle
                 U __gxx_personality_v0
                 U log
                 U memcpy
                 U memmove
                 U memset

alignmentsummary.cpp.o:
0000000000000000 V DW.ref.__gxx_personality_v0
                 U GOMP_parallel
                 U _GLOBAL_OFFSET_TABLE_
                 U _Unwind_Resume
0000000000000000 T _ZN16AlignmentSummary23constructSequenceMatrixEbP16progress_display
0000000000000000 T _ZN16AlignmentSummary30constructSequenceMatrixNoisilyEbPKcS1_
0000000000000000 T _ZN16AlignmentSummary39getSumOfConstantSiteFrequenciesForStateEi
0000000000000000 T _ZN16AlignmentSummaryC1EPK9Alignmentbb
0000000000000000 T _ZN16AlignmentSummaryC2EPK9Alignmentbb
0000000000000000 T _ZN16AlignmentSummaryD1Ev
0000000000000000 T _ZN16AlignmentSummaryD2Ev
                 U _ZN16progress_displayC1EdPKcS1_S1_
                 U _ZN16progress_displayD1Ev
                 U _ZN16progress_displaypLEd
0000000000000000 W _ZNSt8_Rb_treeIiSt4pairIKiiESt10_Select1stIS2_ESt4lessIiESaIS2_EE24_M_get_insert_unique_posERS1_
0000000000000000 W _ZNSt8_Rb_treeIiSt4pairIKiiESt10_Select1stIS2_ESt4lessIiESaIS2_EE29_M_get_insert_hint_unique_posESt23_Rb_tree_const_iteratorIS2_ERS1_
                 U _ZNSt8ios_base4InitC1Ev
                 U _ZNSt8ios_base4InitD1Ev
                 U _ZSt18_Rb_tree_decrementPSt18_Rb_tree_node_base
                 U _ZSt18_Rb_tree_incrementPSt18_Rb_tree_node_base
                 U _ZSt20__throw_length_errorPKc
                 U _ZSt24__throw_out_of_range_fmtPKcz
                 U _ZSt29_Rb_tree_insert_and_rebalancebPSt18_Rb_tree_node_baseS0_RS_
                 U _ZdaPv
                 U _ZdlPv
                 U _Znam
                 U _Znwm
                 U __cxa_atexit
                 U __dso_handle
                 U __gxx_personality_v0
                 U memmove
                 U omp_get_num_threads
                 U omp_get_thread_num

maalignment.cpp.o:
0000000000000000 V DW.ref._ZTINSt7__cxx1112basic_stringIcSt11char_traitsIcESaIcEEE
0000000000000000 V DW.ref._ZTINSt8ios_base7failureB5cxx11E
0000000000000000 V DW.ref._ZTIPKc
0000000000000000 V DW.ref._ZTISt9bad_alloc
0000000000000000 V DW.ref.__gxx_personality_v0
                 U _GLOBAL_OFFSET_TABLE_
                 U _Unwind_Resume
                 U _Z11convert_intPKc
                 U _Z14convert_doublePKc
                 U _Z6logFaci
                 U _Z8outErrorNSt7__cxx1112basic_stringIcSt11char_traitsIcESaIcEEEb
                 U _Z8outErrorPKcS0_b
                 U _Z8outErrorPKcb
0000000000000000 T _ZN11MaAlignment17printPatObsExpFreEPKc
0000000000000000 T _ZN11MaAlignment17printPatObsExpFreEPKcSt6vectorIiSaIiEE
0000000000000000 T _ZN11MaAlignment21computeExpectedNorFreEv
0000000000000000 T _ZN11MaAlignment25generateExpectedAlignmentEPS_Rd
0000000000000000 T _ZN11MaAlignment9readLogLLEPc
                 U _ZN7PatternC1ERKS_
                 U _ZN7PatternD1Ev
                 U _ZN9Alignment10addPatternER7Patternii
                 U _ZN9Alignment19convertStateBackStrB5cxx11Ej
                 U _ZNKSt5ctypeIcE13_M_widen_initEv
0000000000000000 W _ZNKSt5ctypeIcE8do_widenEc
                 U _ZNSo3putEc
                 U _ZNSo5flushEv
                 U _ZNSo9_M_insertIdEERSoT_
                 U _ZNSolsEi
0000000000000000 W _ZNSt12_Destroy_auxILb0EE9__destroyIPNSt7__cxx1112basic_stringIcSt11char_traitsIcESaIcEEEEEvT_S9_
                 U _ZNSt12__basic_fileIcED1Ev
                 U _ZNSt13basic_filebufIcSt11char_traitsIcEE4openEPKcSt13_Ios_Openmode
                 U _ZNSt13basic_filebufIcSt11char_traitsIcEE5closeEv
                 U _ZNSt13basic_filebufIcSt11char_traitsIcEEC1Ev
                 U _ZNSt13basic_filebufIcSt11char_traitsIcEED1Ev
                 U _ZNSt13runtime_errorC2ERKS_
                 U _ZNSt14basic_ifstreamIcSt11char_traitsIcEED1Ev
                 U _ZNSt14basic_ofstreamIcSt11char_traitsIcEED1Ev
                 U _ZNSt6localeD1Ev
0000000000000000 W _ZNSt6vectorIdSaIdEE14_M_fill_insertEN9__gnu_cxx17__normal_iteratorIPdS1_EEmRKd
0000000000000000 W _ZNSt6vectorIdSaIdEE17_M_realloc_insertIJdEEEvN9__gnu_cxx17__normal_iteratorIPdS1_EEDpOT_
0000000000000000 W _ZNSt6vectorIiSaIiEE14_M_fill_insertEN9__gnu_cxx17__normal_iteratorIPiS1_EEmRKi
0000000000000000 W _ZNSt6vectorIiSaIiEE17_M_default_appendEm
                 U _ZNSt7__cxx1112basic_stringIcSt11char_traitsIcESaIcEE9_M_assignERKS4_
                 U _ZNSt7__cxx1112basic_stringIcSt11char_traitsIcESaIcEE9_M_createERmm
                 U _ZNSt7__cxx1112basic_stringIcSt11char_traitsIcESaIcEEC1ERKS4_
                 U _ZNSt8ios_base4InitC1Ev
                 U _ZNSt8ios_base4InitD1Ev
                 U _ZNSt8ios_base7failureB5cxx11D1Ev
                 U _ZNSt8ios_baseC2Ev
                 U _ZNSt8ios_baseD2Ev
                 U _ZNSt9bad_allocD1Ev
                 U _ZNSt9basic_iosIcSt11char_traitsIcEE4initEPSt15basic_streambufIcS1_E
                 U _ZNSt9basic_iosIcSt11char_traitsIcEE5clearESt12_Ios_Iostate
0000000000000000 W _ZSt16__do_uninit_copyIN9__gnu_cxx17__normal_iteratorIPNSt7__cxx1112basic_stringIcSt11char_traitsIcESaIcEEESt6vectorIS7_SaIS7_EEEES8_ET0_T_SE_SD_
                 U _ZSt16__ostream_insertIcSt11char_traitsIcEERSt13basic_ostreamIT_T0_ES6_PKS3_l
                 U _ZSt16__throw_bad_castv
                 U _ZSt20__throw_length_errorPKc
                 U _ZSt24__throw_out_of_range_fmtPKcz
                 U _ZSt28__throw_bad_array_new_lengthv
                 U _ZSt4cout
                 U _ZStrsIcSt11char_traitsIcESaIcEERSt13basic_istreamIT_T0_ES7_RNSt7__cxx1112basic_stringIS4_S5_T1_EE
0000000000000000 V _ZTINSt7__cxx1112basic_stringIcSt11char_traitsIcESaIcEEE
                 U _ZTINSt8ios_base7failureB5cxx11E
                 U _ZTIPKc
                 U _ZTISt9bad_alloc
0000000000000000 V _ZTSNSt7__cxx1112basic_stringIcSt11char_traitsIcESaIcEEE
                 U _ZTTSt14basic_ifstreamIcSt11char_traitsIcEE
                 U _ZTTSt14basic_ofstreamIcSt11char_traitsIcEE
                 U _ZTVN10__cxxabiv117__class_type_infoE
                 U _ZTVNSt8ios_base7failureB5cxx11E
                 U _ZTVSt13basic_filebufIcSt11char_traitsIcEE
                 U _ZTVSt14basic_ifstreamIcSt11char_traitsIcEE
                 U _ZTVSt14basic_ofstreamIcSt11char_traitsIcEE
                 U _ZTVSt15basic_streambufIcSt11char_traitsIcEE
                 U _ZTVSt9bad_alloc
                 U _ZTVSt9basic_iosIcSt11char_traitsIcEE
                 U _ZdlPv
                 U _Znwm
                 U __cxa_atexit
                 U __cxa_begin_catch
                 U __cxa_end_catch
                 U __cxa_get_exception_ptr
                 U __cxa_rethrow
                 U __dso_handle
                 U __gxx_personality_v0
                 U exp
                 U log
                 U memcpy
                 U memmove
                 U memset
                 U strlen
                 U verbose_mode

pattern.cpp.o:
                 U _GLOBAL_OFFSET_TABLE_
0000000000000000 T _ZN7Pattern20computeAmbiguousCharEi
0000000000000000 T _ZN7PatternC1ERKS_
0000000000000000 T _ZN7PatternC1Eii
0000000000000000 T _ZN7PatternC1Ev
0000000000000000 T _ZN7PatternC2ERKS_
0000000000000000 T _ZN7PatternC2Eii
0000000000000000 T _ZN7PatternC2Ev
0000000000000000 T _ZN7PatternD0Ev
0000000000000000 T _ZN7PatternD1Ev
0000000000000000 T _ZN7PatternD2Ev
0000000000000000 T _ZNK7Pattern14computeGapCharEii
                 U _ZNSt8ios_base4InitC1Ev
                 U _ZNSt8ios_base4InitD1Ev
                 U _ZSt20__throw_length_errorPKc
                 U _ZSt28__throw_bad_array_new_lengthv
0000000000000000 V _ZTI7Pattern
0000000000000000 V _ZTISt12_Vector_baseIjSaIjEE
0000000000000000 V _ZTISt6vectorIjSaIjEE
0000000000000000 V _ZTS7Pattern
0000000000000000 V _ZTSSt12_Vector_baseIjSaIjEE
0000000000000000 V _ZTSSt6vectorIjSaIjEE
0000000000000000 V _ZTV7Pattern
                 U _ZTVN10__cxxabiv117__class_type_infoE
                 U _ZTVN10__cxxabiv121__vmi_class_type_infoE
                 U _ZdlPv
                 U _Znwm
                 U __cxa_atexit
                 U __dso_handle
                 U memmove
                 U memset

sequence.cpp.o:
0000000000000000 V DW.ref.__gxx_personality_v0
                 U _GLOBAL_OFFSET_TABLE_
                 U _Unwind_Resume
0000000000000000 T _ZN8SequenceC1Ev
0000000000000000 T _ZN8SequenceC2Ev
0000000000000000 W _ZNSt6vectorIS_IsSaIsEESaIS1_EE17_M_default_appendEm
0000000000000000 W _ZNSt6vectorIsSaIsEE17_M_default_appendEm
                 U _ZNSt8ios_base4InitC1Ev
                 U _ZNSt8ios_base4InitD1Ev
                 U _ZSt20__throw_length_errorPKc
                 U _ZdlPv
                 U _Znwm
                 U __cxa_atexit
                 U __dso_handle
                 U __gxx_personality_v0
                 U memmove
                 U memset

sequencechunkstr.cpp.o:
0000000000000000 V DW.ref.__gxx_personality_v0
                 U _GLOBAL_OFFSET_TABLE_
                 U _Unwind_Resume
0000000000000000 T _ZN16SequenceChunkStrC1Ev
0000000000000000 T _ZN16SequenceChunkStrC2Ev
0000000000000000 T _ZN16SequenceChunkStrD1Ev
0000000000000000 T _ZN16SequenceChunkStrD2Ev
                 U _ZNSt7__cxx1112basic_stringIcSt11char_traitsIcESaIcEE10_M_replaceEmmPKcm
                 U _ZNSt7__cxx1112basic_stringIcSt11char_traitsIcESaIcEE4swapERS4_
                 U _ZNSt8ios_base4InitC1Ev
                 U _ZNSt8ios_base4InitD1Ev
                 U _ZdlPv
                 U __cxa_atexit
                 U __dso_handle
                 U __gxx_personality_v0

substitution.cpp.o:
0000000000000000 V DW.ref.__gxx_personality_v0
                 U _GLOBAL_OFFSET_TABLE_
                 U _Unwind_Resume
0000000000000000 W _Z10_my_assertPKcS0_S0_i
                 U _Z10outWarningNSt7__cxx1112basic_stringIcSt11char_traitsIcESaIcEEE
                 U _Z11convert_intPKc
                 U _Z18convertIntToStringB5cxx11i
                 U _Z8outErrorNSt7__cxx1112basic_stringIcSt11char_traitsIcESaIcEEEb
                 U _Z8outErrorPKcb
0000000000000000 T _ZN12SubstitutionC1ERKNSt7__cxx1112basic_stringIcSt11char_traitsIcESaIcEEEP9AlignmentRKi
0000000000000000 T _ZN12SubstitutionC2ERKNSt7__cxx1112basic_stringIcSt11char_traitsIcESaIcEEEP9AlignmentRKi
0000000000000000 T _ZN13SubstitutionsC1ERKNSt7__cxx1112basic_stringIcSt11char_traitsIcESaIcEEEP9AlignmentRKi
0000000000000000 T _ZN13SubstitutionsC2ERKNSt7__cxx1112basic_stringIcSt11char_traitsIcESaIcEEEP9AlignmentRKi
                 U _ZN6Params11getInstanceEv
                 U _ZN9Alignment26getCodonStateTypeFromSitesEcccNSt7__cxx1112basic_stringIcSt11char_traitsIcESaIcEEEiRNS0_19basic_ostringstreamIcS3_S4_EERi
0000000000000000 T _ZNK12Substitution10parseStateERKNSt7__cxx1112basic_stringIcSt11char_traitsIcESaIcEEEP9Alignment
0000000000000000 T _ZNK12Substitution11getNewStateEv
0000000000000000 T _ZNK12Substitution11getOldStateEv
0000000000000000 T _ZNK12Substitution11getPositionEv
                 U _ZNKSt5ctypeIcE13_M_widen_initEv
0000000000000000 W _ZNKSt5ctypeIcE8do_widenEc
                 U _ZNKSt7__cxx1112basic_stringIcSt11char_traitsIcESaIcEE4findEPKcmm
                 U _ZNSo3putEc
                 U _ZNSo5flushEv
                 U _ZNSolsEi
                 U _ZNSt6localeC1Ev
                 U _ZNSt6localeD1Ev
0000000000000000 W _ZNSt6vectorI12SubstitutionSaIS0_EE17_M_realloc_insertIJNSt7__cxx1112basic_stringIcSt11char_traitsIcESaIcEEERKP9AlignmentRKiEEEvN9__gnu_cxx17__normal_iteratorIPS0_S2_EEDpOT_
0000000000000000 W _ZNSt6vectorI12SubstitutionSaIS0_EE17_M_realloc_insertIJRNSt7__cxx1112basic_stringIcSt11char_traitsIcESaIcEEERKP9AlignmentRKiEEEvN9__gnu_cxx17__normal_iteratorIPS0_S2_EEDpOT_
                 U _ZNSt7__cxx1112basic_stringIcSt11char_traitsIcESaIcEE10_M_replaceEmmPKcm
                 U _ZNSt7__cxx1112basic_stringIcSt11char_traitsIcESaIcEE12_M_constructEmc
                 U _ZNSt7__cxx1112basic_stringIcSt11char_traitsIcESaIcEE14_M_replace_auxEmmmc
                 U _ZNSt7__cxx1112basic_stringIcSt11char_traitsIcESaIcEE7reserveEm
                 U _ZNSt7__cxx1112basic_stringIcSt11char_traitsIcESaIcEE8_M_eraseEmm
                 U _ZNSt7__cxx1112basic_stringIcSt11char_traitsIcESaIcEE9_M_appendEPKcm
                 U _ZNSt7__cxx1112basic_stringIcSt11char_traitsIcESaIcEE9_M_createERmm
                 U _ZNSt7__cxx1119basic_ostringstreamIcSt11char_traitsIcESaIcEED1Ev
                 U _ZNSt8ios_base4InitC1Ev
                 U _ZNSt8ios_base4InitD1Ev
                 U _ZNSt8ios_baseC2Ev
                 U _ZNSt8ios_baseD2Ev
                 U _ZNSt9basic_iosIcSt11char_traitsIcEE4initEPSt15basic_streambufIcS1_E
                 U _ZSt16__throw_bad_castv
                 U _ZSt20__throw_length_errorPKc
                 U _ZSt24__throw_out_of_range_fmtPKcz
                 U _ZSt4cerr
                 U _ZStlsISt11char_traitsIcEERSt13basic_ostreamIcT_ES5_PKc
0000000000000000 W _ZStplIcSt11char_traitsIcESaIcEENSt7__cxx1112basic_stringIT_T0_T1_EEPKS5_RKS8_
                 U _ZTTNSt7__cxx1119basic_ostringstreamIcSt11char_traitsIcESaIcEEE
                 U _ZTVNSt7__cxx1115basic_stringbufIcSt11char_traitsIcESaIcEEE
                 U _ZTVNSt7__cxx1119basic_ostringstreamIcSt11char_traitsIcESaIcEEE
                 U _ZTVSt15basic_streambufIcSt11char_traitsIcEE
                 U _ZTVSt9basic_iosIcSt11char_traitsIcEE
                 U _ZdlPv
                 U _Znwm
                 U __cxa_atexit
                 U __cxa_begin_catch
                 U __cxa_end_catch
                 U __cxa_rethrow
                 U __dso_handle
                 U __gxx_personality_v0
                 U abort
                 U memcpy
                 U strlen
                 U strrchr
                 U verbose_mode

superalignment.cpp.o:
0000000000000000 V DW.ref._ZTINSt7__cxx1112basic_stringIcSt11char_traitsIcESaIcEEE
0000000000000000 V DW.ref._ZTINSt8ios_base7failureB5cxx11E
0000000000000000 V DW.ref.__gxx_personality_v0
                 U GOMP_parallel
                 U _GLOBAL_OFFSET_TABLE_
                 U _Unwind_Resume
0000000000000000 W _Z10_my_assertPKcS0_S0_i
                 U _Z10outWarningNSt7__cxx1112basic_stringIcSt11char_traitsIcESaIcEEE
                 U _Z10outWarningPKc
                 U _Z10random_intiPi
                 U _Z10trimStringRNSt7__cxx1112basic_stringIcSt11char_traitsIcESaIcEEE
                 U _Z11convert_intPKc
                 U _Z11init_randomibPPi
                 U _Z11isDirectoryPKc
                 U _Z11safeGetlineRSiRNSt7__cxx1112basic_stringIcSt11char_traitsIcESaIcEEE
                 U _Z13finish_randomPi
                 U _Z13getFilesInDirPKcRSt6vectorINSt7__cxx1112basic_stringIcSt11char_traitsIcESaIcEEESaIS7_EE
0000000000000000 T _Z15createAlignmentNSt7__cxx1112basic_stringIcSt11char_traitsIcESaIcEEEPKc9InputTypeS4_
                 U _Z15detectInputFilePKc
                 U _Z17detectSeqTypeNameNSt7__cxx1112basic_stringIcSt11char_traitsIcESaIcEEE
                 U _Z17random_resamplingiRSt6vectorIiSaIiEEPi
                 U _Z18convertIntToStringB5cxx11i
                 U _Z8outErrorNSt7__cxx1112basic_stringIcSt11char_traitsIcESaIcEEEb
                 U _Z8outErrorPKcNSt7__cxx1112basic_stringIcSt11char_traitsIcESaIcEEEb
                 U _Z8outErrorPKcS0_b
                 U _Z8outErrorPKcb
                 U _ZN10MSetsBlockC1Ev
                 U _ZN12NxsDataBlockC1EP12NxsTaxaBlockP19NxsAssumptionsBlock
                 U _ZN12NxsTaxaBlockC1Ev
0000000000000000 T _ZN14SuperAlignment11computeDistEii
0000000000000000 T _ZN14SuperAlignment12buildPatternEv
0000000000000000 T _ZN14SuperAlignment13printSiteInfoEPKc
0000000000000000 T _ZN14SuperAlignment13readPartitionER6Params
0000000000000000 T _ZN14SuperAlignment14computeObsDistEii
0000000000000000 T _ZN14SuperAlignment14countConstSiteEv
0000000000000000 T _ZN14SuperAlignment14getPatternFreqEPi
0000000000000000 T _ZN14SuperAlignment14getPatternFreqERSt6vectorIiSaIiEE
0000000000000000 T _ZN14SuperAlignment14printAlignmentE9InputTypeRSoPKcbS3_iS3_
0000000000000000 T _ZN14SuperAlignment14printPartitionEPKcS1_
0000000000000000 T _ZN14SuperAlignment14printPartitionERSoPKcb
0000000000000000 T _ZN14SuperAlignment14readFromParamsER6Params
0000000000000000 W _ZN14SuperAlignment15getMaxNumStatesEv
0000000000000000 W _ZN14SuperAlignment16isSuperAlignmentEv
0000000000000000 T _ZN14SuperAlignment16linkSubAlignmentEi
0000000000000000 T _ZN14SuperAlignment16readPartitionDirENSt7__cxx1112basic_stringIcSt11char_traitsIcESaIcEEEPcR9InputTypeS5_b
0000000000000000 T _ZN14SuperAlignment16removePartitionsERSt3setIiSt4lessIiESaIiEE
0000000000000000 T _ZN14SuperAlignment16shuffleAlignmentEv
0000000000000000 T _ZN14SuperAlignment17checkAbsentStatesENSt7__cxx1112basic_stringIcSt11char_traitsIcESaIcEEE
0000000000000000 T _ZN14SuperAlignment17extractPartitionsERSt6vectorIiSaIiEE
0000000000000000 T _ZN14SuperAlignment17readPartitionListENSt7__cxx1112basic_stringIcSt11char_traitsIcESaIcEEEPcR9InputTypeS5_b
0000000000000000 T _ZN14SuperAlignment18computeMissingDataEv
0000000000000000 T _ZN14SuperAlignment18printBestPartitionEPKc
0000000000000000 T _ZN14SuperAlignment18printSubAlignmentsER6Params
0000000000000000 T _ZN14SuperAlignment18readPartitionNexusER6Params
0000000000000000 T _ZN14SuperAlignment18readPartitionRaxmlER6Params
0000000000000000 T _ZN14SuperAlignment18removeIdenticalSeqENSt7__cxx1112basic_stringIcSt11char_traitsIcESaIcEEEbRSt6vectorIS5_SaIS5_EES9_
0000000000000000 T _ZN14SuperAlignment19extractSubAlignmentEP9AlignmentRSt6vectorIiSaIiEEiiPS4_
0000000000000000 T _ZN14SuperAlignment19getSitePatternIndexERSt6vectorIiSaIiEE
0000000000000000 T _ZN14SuperAlignment19printPartitionRaxmlEPKc
0000000000000000 T _ZN14SuperAlignment21concatenateAlignmentsERSt3setIiSt4lessIiESaIiEE
0000000000000000 T _ZN14SuperAlignment21concatenateAlignmentsEv
                 U _ZN14SuperAlignment22computeQuartetSupportsERSt6vectorIiSaIiEERS0_IlSaIlEE
0000000000000000 T _ZN14SuperAlignment22orderPatternByNumCharsEi
0000000000000000 T _ZN14SuperAlignment22printCombinedAlignmentERSob
0000000000000000 T _ZN14SuperAlignment23computeDivergenceMatrixEPdS0_b
0000000000000000 T _ZN14SuperAlignment23printBestPartitionRaxmlEPKc
0000000000000000 T _ZN14SuperAlignment24computeUnconstrainedLogLEv
0000000000000000 T _ZN14SuperAlignment24createBootstrapAlignmentEP9AlignmentPSt6vectorIiSaIiEEPKc
0000000000000000 T _ZN14SuperAlignment24createBootstrapAlignmentEPiPKcS0_
0000000000000000 T _ZN14SuperAlignment24createBootstrapAlignmentERSt6vectorIiSaIiEEPKc
0000000000000000 T _ZN14SuperAlignment4initEPSt6vectorINSt7__cxx1112basic_stringIcSt11char_traitsIcESaIcEEESaIS6_EE
0000000000000000 T _ZN14SuperAlignment9doSymTestEmRSt6vectorI13SymTestResultSaIS1_EES4_S4_PiPS0_I11SymTestStatSaIS6_EE
0000000000000000 T _ZN14SuperAlignmentC1ER6Params
0000000000000000 T _ZN14SuperAlignmentC1Ev
0000000000000000 T _ZN14SuperAlignmentC2ER6Params
0000000000000000 T _ZN14SuperAlignmentC2Ev
0000000000000000 T _ZN14SuperAlignmentD0Ev
0000000000000000 T _ZN14SuperAlignmentD1Ev
0000000000000000 T _ZN14SuperAlignmentD2Ev
                 U _ZN19NxsAssumptionsBlockC1EP12NxsTaxaBlock
                 U _ZN6Params11getInstanceEv
0000000000000000 W _ZN7CharSetD1Ev
0000000000000000 W _ZN7CharSetD2Ev
0000000000000000 W _ZN7MyToken13OutputCommentERK9NxsString
0000000000000000 W _ZN7MyTokenD0Ev
0000000000000000 W _ZN7MyTokenD1Ev
0000000000000000 W _ZN7MyTokenD2Ev
                 U _ZN7PatternC1ERKS_
                 U _ZN7PatternC1Ev
                 U _ZN7PatternD1Ev
0000000000000000 W _ZN8MyReader10NexusErrorE9NxsStringSt4fposI11__mbstate_tEll
0000000000000000 W _ZN8MyReader13EnteringBlockE9NxsString
0000000000000000 W _ZN8MyReader13OutputCommentERK9NxsString
0000000000000000 W _ZN8MyReader13SkippingBlockE9NxsString
0000000000000000 W _ZN8MyReader15ExecuteStartingEv
0000000000000000 W _ZN8MyReader15ExecuteStoppingEv
0000000000000000 W _ZN8MyReaderD0Ev
0000000000000000 W _ZN8MyReaderD1Ev
0000000000000000 W _ZN8MyReaderD2Ev
                 U _ZN8NxsTokenC2ERSi
                 U _ZN8NxsTokenD2Ev
                 U _ZN9Alignment10addPatternER7Patternii
                 U _ZN9Alignment10getSeqNameB5cxx11Ei
                 U _ZN9Alignment10getSeqTypeEPKc
                 U _ZN9Alignment12computeConstER7Pattern
                 U _ZN9Alignment12convertStateEcN3PML7SeqTypeE
                 U _ZN9Alignment12extractSitesEPS_PKcb
                 U _ZN9Alignment13checkGappySeqEb
                 U _ZN9Alignment13copyAlignmentEPS_
                 U _ZN9Alignment13printSiteInfoERSoi
                 U _ZN9Alignment14printAlignmentE9InputTypePKcbS2_iS2_
                 U _ZN9Alignment14removeGappySeqEv
                 U _ZN9Alignment16computeStateFreqEPdm
                 U _ZN9Alignment18convertToCodonOrAAEPS_Pcb
                 U _ZN9Alignment19convertStateBackStrB5cxx11Ej
                 U _ZN9Alignment19extractSubAlignmentEPS_RSt6vectorIiSaIiEEiiPS3_
                 U _ZN9Alignment19getMaxSeqNameLengthEv
                 U _ZN9Alignment19printSiteInfoHeaderERSoPKcb
                 U _ZN9Alignment24createBootstrapAlignmentEPS_PSt6vectorIiSaIiEEPKc
                 U _ZN9Alignment8getSeqIDERNSt7__cxx1112basic_stringIcSt11char_traitsIcESaIcEEE
                 U _ZN9AlignmentC1EP12NxsDataBlockPcNSt7__cxx1112basic_stringIcSt11char_traitsIcESaIcEEE
                 U _ZN9AlignmentC1EPcS0_R9InputTypeNSt7__cxx1112basic_stringIcSt11char_traitsIcESaIcEEE
                 U _ZN9AlignmentC1Ev
                 U _ZN9AlignmentC2Ev
                 U _ZN9AlignmentD2Ev
                 U _ZN9NxsReader12ExitingBlockE9NxsString
                 U _ZN9NxsReader16DebugReportBlockER8NxsBlock
                 U _ZN9NxsReader21SkippingDisabledBlockE9NxsString
                 U _ZN9NxsReader3AddEP8NxsBlock
                 U _ZN9NxsReader7ExecuteER8NxsTokenb
                 U _ZN9NxsReaderC2Ev
                 U _ZN9NxsReaderD2Ev
                 U _ZNK9Alignment10adjustHashEbRm
                 U _ZNK9Alignment10adjustHashEjRm
                 U _ZNKSt12__basic_fileIcE7is_openEv
                 U _ZNKSt5ctypeIcE13_M_widen_initEv
0000000000000000 W _ZNKSt5ctypeIcE8do_widenEc
                 U _ZNKSt7__cxx1112basic_stringIcSt11char_traitsIcESaIcEE13find_first_ofEPKcmm
                 U _ZNKSt7__cxx1112basic_stringIcSt11char_traitsIcESaIcEE4findEPKcmm
                 U _ZNKSt7__cxx1112basic_stringIcSt11char_traitsIcESaIcEE4findEcm
                 U _ZNKSt7__cxx1112basic_stringIcSt11char_traitsIcESaIcEE6substrEmm
                 U _ZNKSt7__cxx1112basic_stringIcSt11char_traitsIcESaIcEE7compareEPKc
                 U _ZNKSt8__detail20_Prime_rehash_policy14_M_need_rehashEmmm
                 U _ZNSdD2Ev
                 U _ZNSo3putEc
                 U _ZNSo5flushEv
                 U _ZNSo9_M_insertIdEERSoT_
                 U _ZNSo9_M_insertIlEERSoT_
                 U _ZNSo9_M_insertImEERSoT_
                 U _ZNSolsEi
0000000000000000 W _ZNSt10_HashtableINSt7__cxx1112basic_stringIcSt11char_traitsIcESaIcEEES5_SaIS5_ENSt8__detail9_IdentityESt8equal_toIS5_ESt4hashIS5_ENS7_18_Mod_range_hashingENS7_20_Default_ranged_hashENS7_20_Prime_rehash_policyENS7_17_Hashtable_traitsILb1ELb1ELb1EEEE4findERKS5_
0000000000000000 W _ZNSt10_HashtableINSt7__cxx1112basic_stringIcSt11char_traitsIcESaIcEEES5_SaIS5_ENSt8__detail9_IdentityESt8equal_toIS5_ESt4hashIS5_ENS7_18_Mod_range_hashingENS7_20_Default_ranged_hashENS7_20_Prime_rehash_policyENS7_17_Hashtable_traitsILb1ELb1ELb1EEEE9_M_rehashEmRKm
0000000000000000 W _ZNSt10_HashtableINSt7__cxx1112basic_stringIcSt11char_traitsIcESaIcEEES5_SaIS5_ENSt8__detail9_IdentityESt8equal_toIS5_ESt4hashIS5_ENS7_18_Mod_range_hashingENS7_20_Default_ranged_hashENS7_20_Prime_rehash_policyENS7_17_Hashtable_traitsILb1ELb1ELb1EEEED1Ev
0000000000000000 W _ZNSt10_HashtableINSt7__cxx1112basic_stringIcSt11char_traitsIcESaIcEEES5_SaIS5_ENSt8__detail9_IdentityESt8equal_toIS5_ESt4hashIS5_ENS7_18_Mod_range_hashingENS7_20_Default_ranged_hashENS7_20_Prime_rehash_policyENS7_17_Hashtable_traitsILb1ELb1ELb1EEEED2Ev
0000000000000000 W _ZNSt10_HashtableISt6vectorIjSaIjEESt4pairIKS2_iESaIS5_ENSt8__detail10_Select1stESt8equal_toIS2_E11hashPatternNS7_18_Mod_range_hashingENS7_20_Default_ranged_hashENS7_20_Prime_rehash_policyENS7_17_Hashtable_traitsILb1ELb0ELb1EEEE5clearEv
0000000000000000 W _ZNSt10_HashtableISt6vectorIjSaIjEESt4pairIKS2_iESaIS5_ENSt8__detail10_Select1stESt8equal_toIS2_E11hashPatternNS7_18_Mod_range_hashingENS7_20_Default_ranged_hashENS7_20_Prime_rehash_policyENS7_17_Hashtable_traitsILb1ELb0ELb1EEEE9_M_rehashEmRKm
0000000000000000 W _ZNSt12_Destroy_auxILb0EE9__destroyIPNSt7__cxx1112basic_stringIcSt11char_traitsIcESaIcEEEEEvT_S9_
0000000000000000 W _ZNSt12_Destroy_auxILb0EE9__destroyIPSt6vectorIiSaIiEEEEvT_S6_
                 U _ZNSt12__basic_fileIcED1Ev
0000000000000000 W _ZNSt13_Bvector_baseISaIbEE13_M_deallocateEv
                 U _ZNSt13basic_filebufIcSt11char_traitsIcEE4openEPKcSt13_Ios_Openmode
                 U _ZNSt13basic_filebufIcSt11char_traitsIcEE5closeEv
                 U _ZNSt13basic_filebufIcSt11char_traitsIcEEC1Ev
                 U _ZNSt13basic_filebufIcSt11char_traitsIcEED1Ev
                 U _ZNSt13runtime_errorC2ERKS_
                 U _ZNSt14basic_ifstreamIcSt11char_traitsIcEED1Ev
                 U _ZNSt14basic_ofstreamIcSt11char_traitsIcEED1Ev
                 U _ZNSt6localeC1Ev
                 U _ZNSt6localeD1Ev
0000000000000000 W _ZNSt6vectorI7PatternSaIS0_EE17_M_realloc_insertIJRKS0_EEEvN9__gnu_cxx17__normal_iteratorIPS0_S2_EEDpOT_
0000000000000000 W _ZNSt6vectorIN3PML7SeqTypeESaIS1_EE17_M_realloc_insertIJRKS1_EEEvN9__gnu_cxx17__normal_iteratorIPS1_S3_EEDpOT_
0000000000000000 W _ZNSt6vectorINSt7__cxx1112basic_stringIcSt11char_traitsIcESaIcEEESaIS5_EE17_M_realloc_insertIJRKS5_EEEvN9__gnu_cxx17__normal_iteratorIPS5_S7_EEDpOT_
0000000000000000 W _ZNSt6vectorINSt7__cxx1112basic_stringIcSt11char_traitsIcESaIcEEESaIS5_EED1Ev
0000000000000000 W _ZNSt6vectorINSt7__cxx1112basic_stringIcSt11char_traitsIcESaIcEEESaIS5_EED2Ev
0000000000000000 W _ZNSt6vectorIP9AlignmentSaIS1_EE17_M_default_appendEm
0000000000000000 W _ZNSt6vectorIP9AlignmentSaIS1_EE17_M_realloc_insertIJRKS1_EEEvN9__gnu_cxx17__normal_iteratorIPS1_S3_EEDpOT_
0000000000000000 W _ZNSt6vectorIPcSaIS0_EE17_M_realloc_insertIJRKS0_EEEvN9__gnu_cxx17__normal_iteratorIPS0_S2_EEDpOT_
0000000000000000 W _ZNSt6vectorIS_IiSaIiEESaIS1_EE17_M_default_appendEm
0000000000000000 W _ZNSt6vectorIS_IiSaIiEESaIS1_EE17_M_realloc_insertIJRKS1_EEEvN9__gnu_cxx17__normal_iteratorIPS1_S3_EEDpOT_
0000000000000000 W _ZNSt6vectorIS_IiSaIiEESaIS1_EED1Ev
0000000000000000 W _ZNSt6vectorIS_IiSaIiEESaIS1_EED2Ev
0000000000000000 W _ZNSt6vectorISt3setIiSt4lessIiESaIiEESaIS4_EE17_M_realloc_insertIJS4_EEEvN9__gnu_cxx17__normal_iteratorIPS4_S6_EEDpOT_
0000000000000000 W _ZNSt6vectorIbSaIbEE14_M_fill_insertESt13_Bit_iteratormb
0000000000000000 W _ZNSt6vectorIiSaIiEE14_M_fill_insertEN9__gnu_cxx17__normal_iteratorIPiS1_EEmRKi
0000000000000000 W _ZNSt6vectorIiSaIiEE17_M_default_appendEm
0000000000000000 W _ZNSt6vectorIiSaIiEE17_M_realloc_insertIJRKiEEEvN9__gnu_cxx17__normal_iteratorIPiS1_EEDpOT_
0000000000000000 W _ZNSt6vectorIiSaIiEE17_M_realloc_insertIJiEEEvN9__gnu_cxx17__normal_iteratorIPiS1_EEDpOT_
0000000000000000 W _ZNSt6vectorIjSaIjEE14_M_fill_insertEN9__gnu_cxx17__normal_iteratorIPjS1_EEmRKj
0000000000000000 W _ZNSt6vectorIjSaIjEE17_M_default_appendEm
0000000000000000 W _ZNSt6vectorImSaImEE14_M_fill_insertEN9__gnu_cxx17__normal_iteratorIPmS1_EEmRKm
                 U _ZNSt7__cxx1112basic_stringIcSt11char_traitsIcESaIcEE10_M_replaceEmmPKcm
                 U _ZNSt7__cxx1112basic_stringIcSt11char_traitsIcESaIcEE12_M_constructEmc
                 U _ZNSt7__cxx1112basic_stringIcSt11char_traitsIcESaIcEE4swapERS4_
                 U _ZNSt7__cxx1112basic_stringIcSt11char_traitsIcESaIcEE7reserveEm
                 U _ZNSt7__cxx1112basic_stringIcSt11char_traitsIcESaIcEE8_M_eraseEmm
                 U _ZNSt7__cxx1112basic_stringIcSt11char_traitsIcESaIcEE9_M_appendEPKcm
                 U _ZNSt7__cxx1112basic_stringIcSt11char_traitsIcESaIcEE9_M_assignERKS4_
                 U _ZNSt7__cxx1112basic_stringIcSt11char_traitsIcESaIcEE9_M_createERmm
                 U _ZNSt7__cxx1112basic_stringIcSt11char_traitsIcESaIcEEC1EOS4_
                 U _ZNSt7__cxx1112basic_stringIcSt11char_traitsIcESaIcEEC1ERKS4_
                 U _ZNSt7__cxx1112basic_stringIcSt11char_traitsIcESaIcEED1Ev
                 U _ZNSt7__cxx1115basic_stringbufIcSt11char_traitsIcESaIcEE7_M_syncEPcmm
                 U _ZNSt7__cxx1118basic_stringstreamIcSt11char_traitsIcESaIcEED1Ev
0000000000000000 W _ZNSt8_Rb_treeIiiSt9_IdentityIiESt4lessIiESaIiEE16_M_insert_uniqueIRKiEESt4pairISt17_Rb_tree_iteratorIiEbEOT_
0000000000000000 W _ZNSt8__detail9_Map_baseISt6vectorIjSaIjEESt4pairIKS3_iESaIS6_ENS_10_Select1stESt8equal_toIS3_E11hashPatternNS_18_Mod_range_hashingENS_20_Default_ranged_hashENS_20_Prime_rehash_policyENS_17_Hashtable_traitsILb1ELb0ELb1EEELb1EEixERS5_
                 U _ZNSt8ios_base4InitC1Ev
                 U _ZNSt8ios_base4InitD1Ev
                 U _ZNSt8ios_base7failureB5cxx11D1Ev
                 U _ZNSt8ios_baseC2Ev
                 U _ZNSt8ios_baseD2Ev
                 U _ZNSt9basic_iosIcSt11char_traitsIcEE4initEPSt15basic_streambufIcS1_E
                 U _ZNSt9basic_iosIcSt11char_traitsIcEE5clearESt12_Ios_Iostate
                 U _ZSt11_Hash_bytesPKvmm
0000000000000000 W _ZSt16__do_uninit_copyIPK7PatternPS0_ET0_T_S5_S4_
                 U _ZSt16__ostream_insertIcSt11char_traitsIcEERSt13basic_ostreamIT_T0_ES6_PKS3_l
                 U _ZSt16__throw_bad_castv
                 U _ZSt17__throw_bad_allocv
                 U _ZSt18_Rb_tree_decrementPSt18_Rb_tree_node_base
                 U _ZSt18_Rb_tree_incrementPKSt18_Rb_tree_node_base
                 U _ZSt19__throw_logic_errorPKc
                 U _ZSt20__throw_length_errorPKc
                 U _ZSt24__throw_out_of_range_fmtPKcz
                 U _ZSt28__throw_bad_array_new_lengthv
                 U _ZSt29_Rb_tree_insert_and_rebalancebPSt18_Rb_tree_node_baseS0_RS_
                 U _ZSt4cerr
                 U _ZSt4cout
                 U _ZSt4endlIcSt11char_traitsIcEERSt13basic_ostreamIT_T0_ES6_
                 U _ZSt7getlineIcSt11char_traitsIcESaIcEERSt13basic_istreamIT_T0_ES7_RNSt7__cxx1112basic_stringIS4_S5_T1_EES4_
                 U _ZStlsISt11char_traitsIcEERSt13basic_ostreamIcT_ES5_PKc
0000000000000000 W _ZStplIcSt11char_traitsIcESaIcEENSt7__cxx1112basic_stringIT_T0_T1_EEPKS5_RKS8_
0000000000000000 V _ZTI14SuperAlignment
0000000000000000 V _ZTI7MyToken
0000000000000000 V _ZTI8MyReader
                 U _ZTI8NxsToken
                 U _ZTI9Alignment
                 U _ZTI9NxsReader
0000000000000000 V _ZTINSt7__cxx1112basic_stringIcSt11char_traitsIcESaIcEEE
                 U _ZTINSt8ios_base7failureB5cxx11E
0000000000000000 V _ZTS14SuperAlignment
0000000000000000 V _ZTS7MyToken
0000000000000000 V _ZTS8MyReader
0000000000000000 V _ZTSNSt7__cxx1112basic_stringIcSt11char_traitsIcESaIcEEE
                 U _ZTTNSt7__cxx1118basic_stringstreamIcSt11char_traitsIcESaIcEEE
                 U _ZTTSt14basic_ifstreamIcSt11char_traitsIcEE
                 U _ZTTSt14basic_ofstreamIcSt11char_traitsIcEE
0000000000000000 V _ZTV14SuperAlignment
0000000000000000 V _ZTV7MyToken
0000000000000000 V _ZTV8MyReader
                 U _ZTVN10__cxxabiv117__class_type_infoE
                 U _ZTVN10__cxxabiv120__si_class_type_infoE
                 U _ZTVNSt7__cxx1115basic_stringbufIcSt11char_traitsIcESaIcEEE
                 U _ZTVNSt7__cxx1118basic_stringstreamIcSt11char_traitsIcESaIcEEE
                 U _ZTVNSt8ios_base7failureB5cxx11E
                 U _ZTVSt13basic_filebufIcSt11char_traitsIcEE
                 U _ZTVSt14basic_ifstreamIcSt11char_traitsIcEE
                 U _ZTVSt14basic_ofstreamIcSt11char_traitsIcEE
                 U _ZTVSt15basic_streambufIcSt11char_traitsIcEE
                 U _ZTVSt9basic_iosIcSt11char_traitsIcEE
                 U _ZdaPv
                 U _ZdlPv
                 U _Znam
                 U _Znwm
                 U __cxa_allocate_exception
                 U __cxa_atexit
                 U __cxa_begin_catch
                 U __cxa_end_catch
                 U __cxa_get_exception_ptr
                 U __cxa_rethrow
                 U __cxa_throw
                 U __cxa_throw_bad_array_new_length
                 U __dso_handle
                 U __gxx_personality_v0
                 U abort
                 U exit
                 U log
                 U memcmp
                 U memcpy
                 U memmove
                 U memset
                 U omp_get_num_threads
                 U omp_get_thread_num
                 U omp_get_wtime
                 U strchr
                 U strcmp
                 U strlen
                 U strncmp
                 U strrchr
                 U verbose_mode

superalignmentpairwise.cpp.o:
0000000000000000 V DW.ref.__gxx_personality_v0
                 U _GLOBAL_OFFSET_TABLE_
                 U _Unwind_Resume
0000000000000000 W _ZN12Optimization10targetFunkEPd
                 U _ZN12Optimization13optimGradientEiPdS0_
                 U _ZN12Optimization14derivativeFunkEPdS0_
                 U _ZN12Optimization17restartParametersEPdiS0_S0_Pbi
0000000000000000 W _ZN12Optimization20computeFuncDervMultiEPdS0_S0_
0000000000000000 W _ZN12Optimization7getNDimEv
                 U _ZN12Optimization9optimFuncEiPd
                 U _ZN17AlignmentPairwise13recomputeDistEiidRd
                 U _ZN17AlignmentPairwiseC1EP9PhyloTreeii
                 U _ZN17AlignmentPairwiseC2Ev
                 U _ZN17AlignmentPairwiseD1Ev
                 U _ZN17AlignmentPairwiseD2Ev
0000000000000000 T _ZN22SuperAlignmentPairwise15computeFuncDervEdRdS0_
0000000000000000 T _ZN22SuperAlignmentPairwise15computeFunctionEd
0000000000000000 T _ZN22SuperAlignmentPairwiseC1EP14PhyloSuperTreeii
0000000000000000 T _ZN22SuperAlignmentPairwiseC1Ev
0000000000000000 T _ZN22SuperAlignmentPairwiseC2EP14PhyloSuperTreeii
0000000000000000 T _ZN22SuperAlignmentPairwiseC2Ev
0000000000000000 T _ZN22SuperAlignmentPairwiseD0Ev
0000000000000000 T _ZN22SuperAlignmentPairwiseD1Ev
0000000000000000 T _ZN22SuperAlignmentPairwiseD2Ev
                 U _ZN3PML10StateSpaceD2Ev
                 U _ZN7PatternC1ERKS_
0000000000000000 W _ZN9Alignment11computeDistEii
                 U _ZN9Alignment12computeConstER7Pattern
                 U _ZN9Alignment12convertStateEcN3PML7SeqTypeE
                 U _ZN9Alignment13checkGappySeqEb
                 U _ZN9Alignment13computeJCDistEii
                 U _ZN9Alignment13printSiteInfoEPKc
                 U _ZN9Alignment14computeObsDistEii
                 U _ZN9Alignment14countConstSiteEv
                 U _ZN9Alignment14getPatternFreqEPi
                 U _ZN9Alignment14getPatternFreqERSt6vectorIiSaIiEE
                 U _ZN9Alignment14printAlignmentE9InputTypeRSoPKcbS3_iS3_
0000000000000000 W _ZN9Alignment15getMaxNumStatesEv
                 U _ZN9Alignment16computeStateFreqEPdm
0000000000000000 W _ZN9Alignment16isSuperAlignmentEv
                 U _ZN9Alignment16shuffleAlignmentEv
                 U _ZN9Alignment17checkAbsentStatesENSt7__cxx1112basic_stringIcSt11char_traitsIcESaIcEEE
                 U _ZN9Alignment18removeIdenticalSeqENSt7__cxx1112basic_stringIcSt11char_traitsIcESaIcEEEbRSt6vectorIS5_SaIS5_EES9_
                 U _ZN9Alignment19extractSubAlignmentEPS_RSt6vectorIiSaIiEEiiPS3_
0000000000000000 W _ZN9Alignment19getSitePatternIndexERSt6vectorIiSaIiEE
                 U _ZN9Alignment22computeQuartetSupportsERSt6vectorIiSaIiEERS0_IlSaIlEE
                 U _ZN9Alignment22orderPatternByNumCharsEi
                 U _ZN9Alignment23computeDivergenceMatrixEPdS0_b
                 U _ZN9Alignment24computeUnconstrainedLogLEv
                 U _ZN9Alignment24createBootstrapAlignmentEPS_PSt6vectorIiSaIiEEPKc
                 U _ZN9Alignment24createBootstrapAlignmentEPiPKcS0_
                 U _ZN9Alignment24createBootstrapAlignmentERSt6vectorIiSaIiEEPKc
                 U _ZN9Alignment9doSymTestEmRSt6vectorI13SymTestResultSaIS1_EES4_S4_PiPS0_I11SymTestStatSaIS6_EE
0000000000000000 W _ZN9AlignmentC1ERKS_
0000000000000000 W _ZN9AlignmentC2ERKS_
                 U _ZNKSt5ctypeIcE13_M_widen_initEv
0000000000000000 W _ZNKSt5ctypeIcE8do_widenEc
                 U _ZNSo3putEc
                 U _ZNSo5flushEv
0000000000000000 W _ZNSt10_HashtableINSt7__cxx1112basic_stringIcSt11char_traitsIcESaIcEEESt4pairIKS5_jESaIS8_ENSt8__detail10_Select1stESt8equal_toIS5_ESt4hashIS5_ENSA_18_Mod_range_hashingENSA_20_Default_ranged_hashENSA_20_Prime_rehash_policyENSA_17_Hashtable_traitsILb1ELb0ELb1EEEE5clearEv
0000000000000000 W _ZNSt10_HashtableIjSt4pairIKjNSt7__cxx1112basic_stringIcSt11char_traitsIcESaIcEEEESaIS8_ENSt8__detail10_Select1stESt8equal_toIjESt4hashIjENSA_18_Mod_range_hashingENSA_20_Default_ranged_hashENSA_20_Prime_rehash_policyENSA_17_Hashtable_traitsILb0ELb0ELb1EEEE5clearEv
0000000000000000 W _ZNSt10_HashtableIjSt4pairIKjSt6vectorIjSaIjEEESaIS5_ENSt8__detail10_Select1stESt8equal_toIjESt4hashIjENS7_18_Mod_range_hashingENS7_20_Default_ranged_hashENS7_20_Prime_rehash_policyENS7_17_Hashtable_traitsILb0ELb0ELb1EEEE5clearEv
0000000000000000 W _ZNSt6vectorI17AlignmentPairwiseSaIS0_EE17_M_realloc_insertIJS0_EEEvN9__gnu_cxx17__normal_iteratorIPS0_S2_EEDpOT_
0000000000000000 W _ZNSt6vectorI17AlignmentPairwiseSaIS0_EE7reserveEm
0000000000000000 W _ZNSt6vectorI7PatternSaIS0_EED1Ev
0000000000000000 W _ZNSt6vectorI7PatternSaIS0_EED2Ev
0000000000000000 W _ZNSt6vectorINSt7__cxx1112basic_stringIcSt11char_traitsIcESaIcEEESaIS5_EEC1ERKS7_
0000000000000000 W _ZNSt6vectorINSt7__cxx1112basic_stringIcSt11char_traitsIcESaIcEEESaIS5_EEC2ERKS7_
                 U _ZNSt7__cxx1112basic_stringIcSt11char_traitsIcESaIcEE9_M_createERmm
                 U _ZNSt8ios_base4InitC1Ev
                 U _ZNSt8ios_base4InitD1Ev
0000000000000000 W _ZSt16__do_uninit_copyIPK17AlignmentPairwisePS0_ET0_T_S5_S4_
                 U _ZSt16__ostream_insertIcSt11char_traitsIcEERSt13basic_ostreamIT_T0_ES6_PKS3_l
                 U _ZSt16__throw_bad_castv
                 U _ZSt17__throw_bad_allocv
                 U _ZSt20__throw_length_errorPKc
                 U _ZSt28__throw_bad_array_new_lengthv
                 U _ZSt4cerr
                 U _ZTI17AlignmentPairwise
0000000000000000 V _ZTI22SuperAlignmentPairwise
0000000000000000 V _ZTS22SuperAlignmentPairwise
                 U _ZTV17AlignmentPairwise
0000000000000000 V _ZTV22SuperAlignmentPairwise
                 U _ZTV9Alignment
                 U _ZTVN10__cxxabiv120__si_class_type_infoE
0000000000000000 T _ZThn832_N22SuperAlignmentPairwise15computeFuncDervEdRdS0_
0000000000000000 T _ZThn832_N22SuperAlignmentPairwise15computeFunctionEd
                 U _ZdlPv
                 U _Znwm
                 U __cxa_atexit
                 U __cxa_begin_catch
                 U __cxa_end_catch
                 U __cxa_rethrow
                 U __dso_handle
                 U __gxx_personality_v0
                 U memcpy
                 U memmove
                 U memset

superalignmentpairwiseplen.cpp.o:
                 U _GLOBAL_OFFSET_TABLE_
0000000000000000 W _ZN12Optimization10targetFunkEPd
                 U _ZN12Optimization13optimGradientEiPdS0_
                 U _ZN12Optimization14derivativeFunkEPdS0_
                 U _ZN12Optimization17restartParametersEPdiS0_S0_Pbi
0000000000000000 W _ZN12Optimization20computeFuncDervMultiEPdS0_S0_
0000000000000000 W _ZN12Optimization7getNDimEv
                 U _ZN12Optimization9optimFuncEiPd
                 U _ZN17AlignmentPairwise13recomputeDistEiidRd
                 U _ZN22SuperAlignmentPairwiseC2EP14PhyloSuperTreeii
                 U _ZN22SuperAlignmentPairwiseD2Ev
0000000000000000 T _ZN26SuperAlignmentPairwisePlen15computeFuncDervEdRdS0_
0000000000000000 T _ZN26SuperAlignmentPairwisePlen15computeFunctionEd
0000000000000000 T _ZN26SuperAlignmentPairwisePlenC1EP18PhyloSuperTreePlenii
0000000000000000 T _ZN26SuperAlignmentPairwisePlenC2EP18PhyloSuperTreePlenii
0000000000000000 T _ZN26SuperAlignmentPairwisePlenD0Ev
0000000000000000 T _ZN26SuperAlignmentPairwisePlenD1Ev
0000000000000000 T _ZN26SuperAlignmentPairwisePlenD2Ev
0000000000000000 W _ZN9Alignment11computeDistEii
                 U _ZN9Alignment12computeConstER7Pattern
                 U _ZN9Alignment12convertStateEcN3PML7SeqTypeE
                 U _ZN9Alignment13checkGappySeqEb
                 U _ZN9Alignment13computeJCDistEii
                 U _ZN9Alignment13printSiteInfoEPKc
                 U _ZN9Alignment14computeObsDistEii
                 U _ZN9Alignment14countConstSiteEv
                 U _ZN9Alignment14getPatternFreqEPi
                 U _ZN9Alignment14getPatternFreqERSt6vectorIiSaIiEE
                 U _ZN9Alignment14printAlignmentE9InputTypeRSoPKcbS3_iS3_
0000000000000000 W _ZN9Alignment15getMaxNumStatesEv
                 U _ZN9Alignment16computeStateFreqEPdm
0000000000000000 W _ZN9Alignment16isSuperAlignmentEv
                 U _ZN9Alignment16shuffleAlignmentEv
                 U _ZN9Alignment17checkAbsentStatesENSt7__cxx1112basic_stringIcSt11char_traitsIcESaIcEEE
                 U _ZN9Alignment18removeIdenticalSeqENSt7__cxx1112basic_stringIcSt11char_traitsIcESaIcEEEbRSt6vectorIS5_SaIS5_EES9_
                 U _ZN9Alignment19extractSubAlignmentEPS_RSt6vectorIiSaIiEEiiPS3_
0000000000000000 W _ZN9Alignment19getSitePatternIndexERSt6vectorIiSaIiEE
                 U _ZN9Alignment22computeQuartetSupportsERSt6vectorIiSaIiEERS0_IlSaIlEE
                 U _ZN9Alignment22orderPatternByNumCharsEi
                 U _ZN9Alignment23computeDivergenceMatrixEPdS0_b
                 U _ZN9Alignment24computeUnconstrainedLogLEv
                 U _ZN9Alignment24createBootstrapAlignmentEPS_PSt6vectorIiSaIiEEPKc
                 U _ZN9Alignment24createBootstrapAlignmentEPiPKcS0_
                 U _ZN9Alignment24createBootstrapAlignmentERSt6vectorIiSaIiEEPKc
                 U _ZN9Alignment9doSymTestEmRSt6vectorI13SymTestResultSaIS1_EES4_S4_PiPS0_I11SymTestStatSaIS6_EE
                 U _ZNKSt5ctypeIcE13_M_widen_initEv
0000000000000000 W _ZNKSt5ctypeIcE8do_widenEc
                 U _ZNSo3putEc
                 U _ZNSo5flushEv
                 U _ZNSt8ios_base4InitC1Ev
                 U _ZNSt8ios_base4InitD1Ev
                 U _ZSt16__ostream_insertIcSt11char_traitsIcEERSt13basic_ostreamIT_T0_ES6_PKS3_l
                 U _ZSt16__throw_bad_castv
                 U _ZSt24__throw_out_of_range_fmtPKcz
                 U _ZSt28__throw_bad_array_new_lengthv
                 U _ZSt4cerr
                 U _ZTI22SuperAlignmentPairwise
0000000000000000 V _ZTI26SuperAlignmentPairwisePlen
0000000000000000 V _ZTS26SuperAlignmentPairwisePlen
0000000000000000 V _ZTV26SuperAlignmentPairwisePlen
                 U _ZTVN10__cxxabiv120__si_class_type_infoE
0000000000000000 T _ZThn832_N26SuperAlignmentPairwisePlen15computeFuncDervEdRdS0_
0000000000000000 T _ZThn832_N26SuperAlignmentPairwisePlen15computeFunctionEd
                 U _ZdlPv
                 U _Znwm
                 U __cxa_atexit
                 U __dso_handle
                 U memcpy
                 U memmove

superalignmentunlinked.cpp.o:
0000000000000000 V DW.ref.__gxx_personality_v0
                 U _GLOBAL_OFFSET_TABLE_
                 U _Unwind_Resume
                 U _ZN14SuperAlignment11computeDistEii
                 U _ZN14SuperAlignment12buildPatternEv
                 U _ZN14SuperAlignment13printSiteInfoEPKc
                 U _ZN14SuperAlignment14computeObsDistEii
                 U _ZN14SuperAlignment14countConstSiteEv
                 U _ZN14SuperAlignment14getPatternFreqEPi
                 U _ZN14SuperAlignment14getPatternFreqERSt6vectorIiSaIiEE
                 U _ZN14SuperAlignment14printAlignmentE9InputTypeRSoPKcbS3_iS3_
                 U _ZN14SuperAlignment14readFromParamsER6Params
0000000000000000 W _ZN14SuperAlignment15getMaxNumStatesEv
0000000000000000 W _ZN14SuperAlignment16isSuperAlignmentEv
                 U _ZN14SuperAlignment16shuffleAlignmentEv
                 U _ZN14SuperAlignment17checkAbsentStatesENSt7__cxx1112basic_stringIcSt11char_traitsIcESaIcEEE
                 U _ZN14SuperAlignment18removeIdenticalSeqENSt7__cxx1112basic_stringIcSt11char_traitsIcESaIcEEEbRSt6vectorIS5_SaIS5_EES9_
                 U _ZN14SuperAlignment19extractSubAlignmentEP9AlignmentRSt6vectorIiSaIiEEiiPS4_
                 U _ZN14SuperAlignment19getSitePatternIndexERSt6vectorIiSaIiEE
                 U _ZN14SuperAlignment22computeQuartetSupportsERSt6vectorIiSaIiEERS0_IlSaIlEE
                 U _ZN14SuperAlignment22orderPatternByNumCharsEi
                 U _ZN14SuperAlignment23computeDivergenceMatrixEPdS0_b
                 U _ZN14SuperAlignment24computeUnconstrainedLogLEv
                 U _ZN14SuperAlignment24createBootstrapAlignmentEP9AlignmentPSt6vectorIiSaIiEEPKc
                 U _ZN14SuperAlignment24createBootstrapAlignmentEPiPKcS0_
                 U _ZN14SuperAlignment24createBootstrapAlignmentERSt6vectorIiSaIiEEPKc
                 U _ZN14SuperAlignment4initEPSt6vectorINSt7__cxx1112basic_stringIcSt11char_traitsIcESaIcEEESaIS6_EE
                 U _ZN14SuperAlignment9doSymTestEmRSt6vectorI13SymTestResultSaIS1_EES4_S4_PiPS0_I11SymTestStatSaIS6_EE
                 U _ZN14SuperAlignmentC2Ev
                 U _ZN14SuperAlignmentD2Ev
0000000000000000 T _ZN22SuperAlignmentUnlinked12buildPatternEv
0000000000000000 T _ZN22SuperAlignmentUnlinked12computeConstER7Pattern
0000000000000000 T _ZN22SuperAlignmentUnlinked4initEPSt6vectorINSt7__cxx1112basic_stringIcSt11char_traitsIcESaIcEEESaIS6_EE
0000000000000000 T _ZN22SuperAlignmentUnlinkedC1ER6Params
0000000000000000 T _ZN22SuperAlignmentUnlinkedC1Ev
0000000000000000 T _ZN22SuperAlignmentUnlinkedC2ER6Params
0000000000000000 T _ZN22SuperAlignmentUnlinkedC2Ev
0000000000000000 W _ZN22SuperAlignmentUnlinkedD0Ev
0000000000000000 W _ZN22SuperAlignmentUnlinkedD1Ev
0000000000000000 W _ZN22SuperAlignmentUnlinkedD2Ev
                 U _ZN7PatternC1ERKS_
                 U _ZN7PatternC1Eii
                 U _ZN7PatternD1Ev
                 U _ZN9Alignment12computeConstER7Pattern
                 U _ZN9Alignment12convertStateEcN3PML7SeqTypeE
                 U _ZN9Alignment13checkGappySeqEb
                 U _ZN9Alignment16computeStateFreqEPdm
                 U _ZNKSt5ctypeIcE13_M_widen_initEv
0000000000000000 W _ZNKSt5ctypeIcE8do_widenEc
                 U _ZNSo3putEc
                 U _ZNSo5flushEv
                 U _ZNSo9_M_insertImEERSoT_
0000000000000000 W _ZNSt12_Destroy_auxILb0EE9__destroyIPNSt7__cxx1112basic_stringIcSt11char_traitsIcESaIcEEEEEvT_S9_
0000000000000000 W _ZNSt6vectorI7PatternSaIS0_EE14_M_fill_insertEN9__gnu_cxx17__normal_iteratorIPS0_S2_EEmRKS0_
0000000000000000 W _ZNSt6vectorIiSaIiEE14_M_fill_insertEN9__gnu_cxx17__normal_iteratorIPiS1_EEmRKi
                 U _ZNSt7__cxx1112basic_stringIcSt11char_traitsIcESaIcEE9_M_createERmm
0000000000000000 W _ZNSt8_Rb_treeINSt7__cxx1112basic_stringIcSt11char_traitsIcESaIcEEESt4pairIKS5_iESt10_Select1stIS8_ESt4lessIS5_ESaIS8_EE24_M_get_insert_unique_posERS7_
0000000000000000 W _ZNSt8_Rb_treeINSt7__cxx1112basic_stringIcSt11char_traitsIcESaIcEEESt4pairIKS5_iESt10_Select1stIS8_ESt4lessIS5_ESaIS8_EE29_M_get_insert_hint_unique_posESt23_Rb_tree_const_iteratorIS8_ERS7_
                 U _ZNSt8ios_base4InitC1Ev
                 U _ZNSt8ios_base4InitD1Ev
0000000000000000 W _ZSt16__do_uninit_copyIN9__gnu_cxx17__normal_iteratorIPNSt7__cxx1112basic_stringIcSt11char_traitsIcESaIcEEESt6vectorIS7_SaIS7_EEEES8_ET0_T_SE_SD_
0000000000000000 W _ZSt16__do_uninit_copyIPK7PatternPS0_ET0_T_S5_S4_
                 U _ZSt16__ostream_insertIcSt11char_traitsIcEERSt13basic_ostreamIT_T0_ES6_PKS3_l
                 U _ZSt16__throw_bad_castv
                 U _ZSt18_Rb_tree_decrementPSt18_Rb_tree_node_base
                 U _ZSt18_Rb_tree_incrementPSt18_Rb_tree_node_base
0000000000000000 W _ZSt18__do_uninit_fill_nIP7PatternmS0_ET_S2_T0_RKT1_
                 U _ZSt20__throw_length_errorPKc
                 U _ZSt24__throw_out_of_range_fmtPKcz
                 U _ZSt28__throw_bad_array_new_lengthv
                 U _ZSt29_Rb_tree_insert_and_rebalancebPSt18_Rb_tree_node_baseS0_RS_
                 U _ZSt4cout
                 U _ZTI14SuperAlignment
0000000000000000 V _ZTI22SuperAlignmentUnlinked
0000000000000000 V _ZTS22SuperAlignmentUnlinked
0000000000000000 V _ZTV22SuperAlignmentUnlinked
                 U _ZTVN10__cxxabiv120__si_class_type_infoE
                 U _ZdlPv
                 U _Znwm
                 U __cxa_atexit
                 U __cxa_begin_catch
                 U __cxa_end_catch
                 U __cxa_rethrow
                 U __dso_handle
                 U __gxx_personality_v0
                 U memcmp
                 U memcpy
                 U memmove
                 U memset

bitset_index.c.o:
0000000000000000 T bitset_hashEquals
0000000000000000 T bitset_hash_map_free_buckets
0000000000000000 T bitset_hash_map_free_map_array
0000000000000000 T bitset_hashcode
0000000000000000 T bitset_hashmap_indexfor
0000000000000000 T bitset_hashmap_putvalue
0000000000000000 T bitset_hashmap_rehash
0000000000000000 T bitset_hashmap_value
                 U equal_or_complement_id_hashtables
                 U free
0000000000000000 T free_bitset_hashmap
                 U lookup_id
                 U malloc
                 U memset
0000000000000000 T new_bitset_hashmap
                 U realloc

booster.c.o:
                 U Generic_Exit
                 U bitset_hashmap_putvalue
                 U bitset_hashmap_value
                 U calloc
                 U complete_parse_nh
                 U copy_nh_stream_into_str
0000000000000000 T fbp
                 U fclose
                 U fopen
                 U fprintf
                 U fputc
                 U free
                 U free_bitset_hashmap
0000000000000000 T free_matrices
                 U free_tree
                 U fwrite
                 U lookup_id
0000000000000000 T main_booster
                 U malloc
                 U new_bitset_hashmap
                 U realloc
0000000000000000 T reset_matrices
0000000000000000 T species_to_move
                 U sprintf
                 U stderr
                 U stdout
                 U strdup
0000000000000000 T tbe
                 U tell_size_of_one_tree
                 U update_all_i_c_post_order_boot_tree
                 U update_all_i_c_post_order_ref_tree
                 U write_nh_tree

hashmap.c.o:
                 U calloc
0000000000000000 T crc32_booster
                 U free
0000000000000000 T hashmap_free
0000000000000000 T hashmap_get
0000000000000000 T hashmap_hash
0000000000000000 T hashmap_hash_int
0000000000000000 T hashmap_iterate
0000000000000000 T hashmap_length
0000000000000000 T hashmap_new
0000000000000000 T hashmap_put
0000000000000000 T hashmap_rehash
0000000000000000 T hashmap_remove
                 U malloc
                 U strcmp
                 U strlen

hashtables_bfields.c.o:
                 U Generic_Exit
                 U __assert_fail
0000000000000000 T add_id
0000000000000000 T bitCount
                 U calloc
0000000000000000 T clear_id_hashtable
0000000000000000 T complement_id_hashtable
0000000000000000 T complement_id_hashtables
0000000000000000 T complement_id_hashtbl
0000000000000000 T create_id_hash_table
0000000000000000 T delete_id
0000000000000000 T equal_id_hashtables
0000000000000000 T equal_or_complement_id_hashtables
0000000000000000 T fill_id_hashtable
                 U fprintf
                 U fputc
                 U free
0000000000000000 T free_id_hashtable
0000000000000000 T lookup_id
                 U malloc
                 U memset
                 U ntax
0000000000000000 T print_id_hashtable
                 U shuffle
                 U stderr
0000000000000000 T suffle_hash_table
0000000000000000 T update_id_hashtable

io.c.o:
0000000000000000 T Generic_Exit
                 U exit
                 U fprintf
                 U stderr

prng.c.o:
                 U __assert_fail
                 U log
0000000000000000 T prng_get_byte
0000000000000000 T prng_get_bytes
0000000000000000 T prng_get_double
0000000000000000 T prng_get_double_normal
0000000000000000 T prng_get_int
0000000000000000 T prng_get_long
0000000000000000 T prng_get_octet
0000000000000000 T prng_get_uint
0000000000000000 T prng_get_ulong
0000000000000000 T prng_seed_bytes
0000000000000000 T prng_seed_time
                 U sqrt
                 U time

sort.c.o:
0000000000000000 T comp_double
0000000000000000 T comp_indexes
0000000000000000 T comp_indexes_apple
                 U qsort
0000000000000000 T sort_double

stats.c.o:
                 U Generic_Exit
0000000000000000 T binomial
0000000000000000 T divide_and_conquer_double_vec
0000000000000000 T divide_and_conquer_int_vec
                 U exp
0000000000000000 T exponentiel
0000000000000000 T factorial_log_rmnj
                 U fprintf
                 U free
                 U fwrite
0000000000000000 T gauss
                 U log
0000000000000000 T log_fact
                 U malloc
0000000000000000 T max_double
0000000000000000 T max_int
0000000000000000 T max_int_vec
0000000000000000 T max_short_unsigned_vec
0000000000000000 T mean_double_vec
0000000000000000 T mean_int_vec
0000000000000000 T median_double_vec
0000000000000000 T median_int_vec
                 U memcpy
                 U memset
0000000000000000 T merge_sorted_double_vecs
0000000000000000 T merge_sorted_int_vecs
0000000000000000 T min_double
0000000000000000 T min_int
0000000000000000 T normal
0000000000000000 T pnorm
0000000000000000 T print_double_vec
0000000000000000 T print_int_vec
                 U prng_get_int
0000000000000000 T proba
0000000000000000 T qnorm
0000000000000000 T rand_to
0000000000000000 T sample
0000000000000000 T sample_from_counts
0000000000000000 T shuffle
0000000000000000 T sigma
                 U sin
                 U sqrt
                 U stderr
0000000000000000 T sum
0000000000000000 T sum_vec_of_ints
0000000000000000 T sum_vec_of_ints_but_one
0000000000000000 T summary_double_vec
0000000000000000 T summary_double_vec_nocopy
0000000000000000 T swap_doubles
0000000000000000 T swap_ints
0000000000000000 T unif

tree.c.o:
                 U Generic_Exit
                 U __assert_fail
                 U __ctype_b_loc
                 U __isoc99_sscanf
                 U add_id
0000000000000000 T build_taxid_hashmap
0000000000000000 T build_taxname_lookup_table
                 U calloc
0000000000000000 T collapse_branch
                 U complement_id_hashtable
                 U complement_id_hashtbl
0000000000000000 T complete_parse_nh
0000000000000000 T copy_nh_stream_into_str
0000000000000000 T count_leaves
0000000000000000 T count_multifurcations
0000000000000000 T count_outer_commas
0000000000000000 T count_roots
0000000000000000 T count_zero_length_branches
                 U create_id_hash_table
0000000000000000 T create_son_and_connect_to_father
0000000000000000 T dir_a_to_b
                 U fclose
                 U fgetc
                 U fopen
                 U fprintf
                 U fputs
                 U free
0000000000000000 T free_edge
0000000000000000 T free_hashmap_data
                 U free_id_hashtable
0000000000000000 T free_node
0000000000000000 T free_taxid_hashmap
0000000000000000 T free_tree
                 U fwrite
0000000000000000 T gen_rand_tree
0000000000000000 T get_tax_id_from_tax_name
0000000000000000 T get_taxname_lookup_table
0000000000000000 T graft_new_node_on_branch
0000000000000000 T greatest_topo_depth
                 U hashmap_free
                 U hashmap_iterate
                 U hashmap_new
                 U hashmap_put
0000000000000000 T index_next_toplevel_comma
0000000000000000 T index_toplevel_colon
                 U log10
                 U malloc
0000000000000000 T mean_bootstrap_support
0000000000000000 T median_bootstrap_support
                 U median_double_vec
                 U memmove
                 U memset
                 U min_double
                 U min_int
0000000000000000 T new_edge
0000000000000000 T new_node
0000000000000000 T new_tree
                 U normal
0000000000000000 B ntax
0000000000000000 T parse_double
0000000000000000 T parse_nh_string
0000000000000000 T parse_substring_into_node
0000000000000000 T post_order_traversal
0000000000000000 T post_order_traversal_data
0000000000000000 T post_order_traversal_data_recur
0000000000000000 T post_order_traversal_recur
0000000000000000 T pre_order_traversal
0000000000000000 T pre_order_traversal_data
0000000000000000 T pre_order_traversal_data_recur
0000000000000000 T pre_order_traversal_recur
0000000000000000 T process_name_and_brlen
                 U putc
                 U rand_to
0000000000000000 T recompute_identifiers
0000000000000000 T regraft_branch_on_node
0000000000000000 T remove_single_node
0000000000000000 T remove_taxon
0000000000000000 T reorient_edges
0000000000000000 T reorient_edges_recur
0000000000000000 T reroot_acceptable
                 U shuffle
0000000000000000 T shuffle_taxa
                 U sprintf
                 U stderr
                 U strcmp
                 U strcpy
                 U strdup
0000000000000000 T strip_toplevel_parentheses
                 U strlen
                 U strncpy
0000000000000000 T summary_bootstrap_support
                 U summary_double_vec_nocopy
0000000000000000 T tell_size_of_one_tree
0000000000000000 T unrooted_to_rooted
0000000000000000 T update_all_i_c_post_order_boot_tree
0000000000000000 T update_all_i_c_post_order_ref_tree
0000000000000000 T update_all_topo_depths_from_hashtables
0000000000000000 T update_bootstrap_supports_doer
0000000000000000 T update_bootstrap_supports_from_node_names
0000000000000000 T update_hashtables_post_alltree
0000000000000000 T update_hashtables_post_doer
0000000000000000 T update_hashtables_pre_alltree
0000000000000000 T update_hashtables_pre_doer
0000000000000000 T update_i_c_post_order_boot_tree
0000000000000000 T update_i_c_post_order_ref_tree
                 U update_id_hashtable
0000000000000000 T update_node_depths_post_alltree
0000000000000000 T update_node_depths_post_doer
0000000000000000 T update_node_depths_pre_alltree
0000000000000000 T update_node_depths_pre_doer
0000000000000000 T write_nh_tree
0000000000000000 T write_subtree_to_stream

tree_utils.c.o:
                 U __assert_fail
                 U calloc
                 U create_id_hash_table
                 U free
                 U free_id_hashtable
0000000000000000 T gen_random_tree
                 U graft_new_node_on_branch
                 U log10
                 U new_tree
                 U rand_to
                 U reroot_acceptable
                 U shuffle
                 U update_all_topo_depths_from_hashtables
                 U update_hashtables_post_alltree
                 U update_hashtables_pre_alltree
                 U update_node_depths_post_alltree
                 U update_node_depths_pre_alltree

binomial_tpe.cpp.o:
                 U _Z12gsl_pow_uintdj
                 U _Z13random_doublePi
0000000000000000 T _Z16gsl_ran_binomialdjPi
                 U log
                 U sqrt

gauss.cpp.o:
0000000000000000 T _Z18gsl_cdf_gaussian_Pdd
0000000000000000 T _Z18gsl_cdf_gaussian_Qdd
0000000000000000 T _Z19gsl_cdf_ugaussian_Pd
0000000000000000 T _Z19gsl_cdf_ugaussian_Qd
                 U exp

gaussinv.cpp.o:
0000000000000000 T _Z21gsl_cdf_gaussian_Pinvdd
0000000000000000 T _Z21gsl_cdf_gaussian_Qinvdd
0000000000000000 T _Z22gsl_cdf_ugaussian_Pinvd
0000000000000000 T _Z22gsl_cdf_ugaussian_Qinvd
                 U log
                 U sqrt

gausspdf.cpp.o:
0000000000000000 T _Z20gsl_ran_gaussian_pdfdd
0000000000000000 T _Z21gsl_ran_ugaussian_pdfd
                 U exp

multinomial.cpp.o:
                 U _Z16gsl_ran_binomialdjPi
0000000000000000 T _Z19gsl_ran_multinomialmjPKdPjPi

pow_int.cpp.o:
0000000000000000 T _Z11gsl_pow_intdi
0000000000000000 T _Z12gsl_pow_uintdj

parsmultistate.cpp.o:

phylotreeavx.cpp.o:
0000000000000000 V DW.ref.__gxx_personality_v0
                 U GOMP_atomic_end
                 U GOMP_atomic_start
                 U GOMP_barrier
                 U GOMP_critical_end
                 U GOMP_critical_start
                 U GOMP_loop_end_nowait
                 U GOMP_loop_nonmonotonic_dynamic_next
                 U GOMP_loop_nonmonotonic_dynamic_start
                 U GOMP_parallel
                 U _GLOBAL_OFFSET_TABLE_
                 U _Unwind_Resume
0000000000000000 W _Z10_my_assertPKcS0_S0_i
                 U _Z10outWarningNSt7__cxx1112basic_stringIcSt11char_traitsIcESaIcEEE
                 U _Z10outWarningPKc
0000000000000000 W _Z13aligned_allocI6Vec8uiEPT_m
0000000000000000 W _Z13aligned_allocIdEPT_m
0000000000000000 W _Z13computeBoundsI5Vec4dEviimRSt6vectorImSaImEE
0000000000000000 W _Z13dotProductVecI5Vec4dS0_Lb0EEvPT0_PT_RS3_m
0000000000000000 W _Z13dotProductVecI5Vec4ddLb0EEvPT0_PT_RS3_m
0000000000000000 W _Z13productVecMatI5Vec4dS0_Lb0EEvPT_PT0_S2_RS1_m
0000000000000000 W _Z13productVecMatI5Vec4dS0_Lb0EEvPT_PT0_S2_m
0000000000000000 W _Z13productVecMatI5Vec4ddLb0EEvPT_PT0_S2_RS1_m
0000000000000000 W _Z13productVecMatI5Vec4ddLb0EEvPT_PT0_S2_m
0000000000000000 W _Z14dotProduct3VecI5Vec4ddLb0EEvPT0_PT_S4_RS3_m
0000000000000000 W _Z16dotProductTripleI5Vec4dS0_Lb0ELb0EEvPT0_S2_S2_PT_RS3_S5_S5_mm
0000000000000000 W _Z16dotProductTripleI5Vec4ddLb0ELb0EEvPT0_S2_S2_PT_RS3_S5_S5_mm
0000000000000000 W _Z16dotProductTripleI5Vec4ddLb0ELb1EEvPT0_S2_S2_PT_RS3_S5_S5_mm
                 U _Z16print_stacktraceRSoj
0000000000000000 W _Z17dotProductDualVecI5Vec4dS0_Lb0EEvPT0_PT_S2_S4_RS3_m
0000000000000000 W _Z17dotProductDualVecI5Vec4ddLb0EEvPT0_PT_S2_S4_RS3_m
                 U _Z20convertInt64ToStringB5cxx11l
                 U _Z8outErrorNSt7__cxx1112basic_stringIcSt11char_traitsIcESaIcEEEb
                 U _Z8outErrorPKcb
0000000000000000 W _ZN10ModelSubst12getNMixturesEv
0000000000000000 W _ZN10ModelSubst12isReversibleEv
0000000000000000 W _ZN10ModelSubst16getMixtureWeightEi
0000000000000000 W _ZN10ModelSubst19isSiteSpecificModelEv
0000000000000000 W _ZN10ModelSubst9writeInfoERSo
                 U _ZN12ModelFactory18computeTransMatrixEdPdii
                 U _ZN13MemSlotVector6unlockEP13PhyloNeighbor
                 U _ZN13MemSlotVector7findNeiEP13PhyloNeighbor
0000000000000000 W _ZN17RateHeterogeneity7getPropEi
0000000000000000 W _ZN17RateHeterogeneity7getRateEi
0000000000000000 W _ZN17RateHeterogeneity8getNRateEv
0000000000000000 W _ZN17RateHeterogeneity9writeInfoERSo
                 U _ZN4Node12findNeighborEPS_
                 U _ZN4Node6degreeEv
                 U _ZN4Node6isLeafEv
                 U _ZN6Params11getInstanceEv
0000000000000000 W _ZN8Neighbor9getLengthEi
                 U _ZN9PhyloNode11computeSizeEP4Node
0000000000000000 W _ZN9PhyloTree11getAlnNSiteEv
0000000000000000 W _ZN9PhyloTree13getCurMixtureEv
0000000000000000 W _ZN9PhyloTree14dotProductSIMDId5Vec4dEET_PS2_S3_i
0000000000000000 W _ZN9PhyloTree14dotProductSIMDIf5Vec8fEET_PS2_S3_i
                 U _ZN9PhyloTree16getBitsBlockSizeEv
0000000000000000 T _ZN9PhyloTree16setDotProductAVXEv
0000000000000000 W _ZN9PhyloTree18computePartialInfoI5Vec4dEEvR13TraversalInfoPT_PdS6_
0000000000000000 W _ZN9PhyloTree18computePartialInfoI5Vec4dLi20EEEvR13TraversalInfoPT_PdS6_
0000000000000000 W _ZN9PhyloTree18computePartialInfoI5Vec4dLi4EEEvR13TraversalInfoPT_PdS6_
                 U _ZN9PhyloTree20computeTraversalInfoEP13PhyloNeighborP9PhyloNodeRPd
0000000000000000 W _ZN9PhyloTree20computeTraversalInfoI5Vec4dEEvP9PhyloNodeS3_b
0000000000000000 W _ZN9PhyloTree20computeTraversalInfoI5Vec4dLi20EEEvP9PhyloNodeS3_b
0000000000000000 W _ZN9PhyloTree20computeTraversalInfoI5Vec4dLi4EEEvP9PhyloNodeS3_b
0000000000000000 T _ZN9PhyloTree21setParsimonyKernelAVXEv
                 U _ZN9PhyloTree22getBufferPartialLhSizeEv
0000000000000000 T _ZN9PhyloTree22setLikelihoodKernelAVXEv
0000000000000000 W _ZN9PhyloTree25computeLikelihoodDervSIMDI5Vec4dLb0ELi20ELb0ELb0EEEvP13PhyloNeighborP9PhyloNodePdS6_
0000000000000000 W _ZN9PhyloTree25computeLikelihoodDervSIMDI5Vec4dLb0ELi20ELb0ELb1EEEvP13PhyloNeighborP9PhyloNodePdS6_
0000000000000000 W _ZN9PhyloTree25computeLikelihoodDervSIMDI5Vec4dLb0ELi4ELb0ELb0EEEvP13PhyloNeighborP9PhyloNodePdS6_
0000000000000000 W _ZN9PhyloTree25computeLikelihoodDervSIMDI5Vec4dLb0ELi4ELb0ELb1EEEvP13PhyloNeighborP9PhyloNodePdS6_
0000000000000000 W _ZN9PhyloTree25computeLikelihoodDervSIMDI5Vec4dLb1ELi20ELb0ELb0EEEvP13PhyloNeighborP9PhyloNodePdS6_
0000000000000000 W _ZN9PhyloTree25computeLikelihoodDervSIMDI5Vec4dLb1ELi20ELb0ELb1EEEvP13PhyloNeighborP9PhyloNodePdS6_
0000000000000000 W _ZN9PhyloTree25computeLikelihoodDervSIMDI5Vec4dLb1ELi4ELb0ELb0EEEvP13PhyloNeighborP9PhyloNodePdS6_
0000000000000000 W _ZN9PhyloTree25computeLikelihoodDervSIMDI5Vec4dLb1ELi4ELb0ELb1EEEvP13PhyloNeighborP9PhyloNodePdS6_
                 U _ZN9PhyloTree26computeTipPartialParsimonyEv
0000000000000000 W _ZN9PhyloTree27computeLikelihoodBranchSIMDI5Vec4dLb0ELi20ELb0ELb0EEEdP13PhyloNeighborP9PhyloNodeb
0000000000000000 W _ZN9PhyloTree27computeLikelihoodBranchSIMDI5Vec4dLb0ELi20ELb0ELb1EEEdP13PhyloNeighborP9PhyloNodeb
0000000000000000 W _ZN9PhyloTree27computeLikelihoodBranchSIMDI5Vec4dLb0ELi4ELb0ELb0EEEdP13PhyloNeighborP9PhyloNodeb
0000000000000000 W _ZN9PhyloTree27computeLikelihoodBranchSIMDI5Vec4dLb0ELi4ELb0ELb1EEEdP13PhyloNeighborP9PhyloNodeb
0000000000000000 W _ZN9PhyloTree27computeLikelihoodBranchSIMDI5Vec4dLb1ELi20ELb0ELb0EEEdP13PhyloNeighborP9PhyloNodeb
0000000000000000 W _ZN9PhyloTree27computeLikelihoodBranchSIMDI5Vec4dLb1ELi20ELb0ELb1EEEdP13PhyloNeighborP9PhyloNodeb
0000000000000000 W _ZN9PhyloTree27computeLikelihoodBranchSIMDI5Vec4dLb1ELi4ELb0ELb0EEEdP13PhyloNeighborP9PhyloNodeb
0000000000000000 W _ZN9PhyloTree27computeLikelihoodBranchSIMDI5Vec4dLb1ELi4ELb0ELb1EEEdP13PhyloNeighborP9PhyloNodeb
0000000000000000 W _ZN9PhyloTree27computeLikelihoodBufferSIMDI5Vec4dLb0ELi20ELb0ELb0EEEvP13PhyloNeighborP9PhyloNodemmi
0000000000000000 W _ZN9PhyloTree27computeLikelihoodBufferSIMDI5Vec4dLb0ELi20ELb0ELb1EEEvP13PhyloNeighborP9PhyloNodemmi
0000000000000000 W _ZN9PhyloTree27computeLikelihoodBufferSIMDI5Vec4dLb0ELi4ELb0ELb0EEEvP13PhyloNeighborP9PhyloNodemmi
0000000000000000 W _ZN9PhyloTree27computeLikelihoodBufferSIMDI5Vec4dLb0ELi4ELb0ELb1EEEvP13PhyloNeighborP9PhyloNodemmi
0000000000000000 W _ZN9PhyloTree27computeLikelihoodBufferSIMDI5Vec4dLb1ELi20ELb0ELb0EEEvP13PhyloNeighborP9PhyloNodemmi
0000000000000000 W _ZN9PhyloTree27computeLikelihoodBufferSIMDI5Vec4dLb1ELi20ELb0ELb1EEEvP13PhyloNeighborP9PhyloNodemmi
0000000000000000 W _ZN9PhyloTree27computeLikelihoodBufferSIMDI5Vec4dLb1ELi4ELb0ELb0EEEvP13PhyloNeighborP9PhyloNodemmi
0000000000000000 W _ZN9PhyloTree27computeLikelihoodBufferSIMDI5Vec4dLb1ELi4ELb0ELb1EEEvP13PhyloNeighborP9PhyloNodemmi
                 U _ZN9PhyloTree27computeTipPartialLikelihoodEv
0000000000000000 W _ZN9PhyloTree28computePartialLikelihoodSIMDI5Vec4dLb0ELi20ELb0ELb0EEEvR13TraversalInfommi
0000000000000000 W _ZN9PhyloTree28computePartialLikelihoodSIMDI5Vec4dLb0ELi20ELb0ELb1EEEvR13TraversalInfommi
0000000000000000 W _ZN9PhyloTree28computePartialLikelihoodSIMDI5Vec4dLb0ELi4ELb0ELb0EEEvR13TraversalInfommi
0000000000000000 W _ZN9PhyloTree28computePartialLikelihoodSIMDI5Vec4dLb0ELi4ELb0ELb1EEEvR13TraversalInfommi
0000000000000000 W _ZN9PhyloTree28computePartialLikelihoodSIMDI5Vec4dLb1ELi20ELb0ELb0EEEvR13TraversalInfommi
0000000000000000 W _ZN9PhyloTree28computePartialLikelihoodSIMDI5Vec4dLb1ELi20ELb0ELb1EEEvR13TraversalInfommi
0000000000000000 W _ZN9PhyloTree28computePartialLikelihoodSIMDI5Vec4dLb1ELi4ELb0ELb0EEEvR13TraversalInfommi
0000000000000000 W _ZN9PhyloTree28computePartialLikelihoodSIMDI5Vec4dLb1ELi4ELb0ELb1EEEvR13TraversalInfommi
0000000000000000 W _ZN9PhyloTree30computeParsimonyBranchFastSIMDI6Vec8uiEEiP13PhyloNeighborP9PhyloNodePi
0000000000000000 W _ZN9PhyloTree31computeLikelihoodDervMixlenSIMDI5Vec4dLb0ELi20ELb0ELb0EEEvP13PhyloNeighborP9PhyloNodeRdS6_
0000000000000000 W _ZN9PhyloTree31computeLikelihoodDervMixlenSIMDI5Vec4dLb0ELi4ELb0ELb0EEEvP13PhyloNeighborP9PhyloNodeRdS6_
0000000000000000 W _ZN9PhyloTree31computeLikelihoodDervMixlenSIMDI5Vec4dLb1ELi20ELb0ELb0EEEvP13PhyloNeighborP9PhyloNodeRdS6_
0000000000000000 W _ZN9PhyloTree31computeLikelihoodDervMixlenSIMDI5Vec4dLb1ELi4ELb0ELb0EEEvP13PhyloNeighborP9PhyloNodeRdS6_
0000000000000000 W _ZN9PhyloTree31computeLikelihoodFromBufferSIMDI5Vec4dLi20ELb0ELb0EEEdv
0000000000000000 W _ZN9PhyloTree31computeLikelihoodFromBufferSIMDI5Vec4dLi20ELb0ELb1EEEdv
0000000000000000 W _ZN9PhyloTree31computeLikelihoodFromBufferSIMDI5Vec4dLi4ELb0ELb0EEEdv
0000000000000000 W _ZN9PhyloTree31computeLikelihoodFromBufferSIMDI5Vec4dLi4ELb0ELb1EEEdv
0000000000000000 W _ZN9PhyloTree31computeNonrevLikelihoodDervSIMDI5Vec4dLb0ELi20ELb0EEEvP13PhyloNeighborP9PhyloNodePdS6_
0000000000000000 W _ZN9PhyloTree31computeNonrevLikelihoodDervSIMDI5Vec4dLb0ELi4ELb0EEEvP13PhyloNeighborP9PhyloNodePdS6_
0000000000000000 W _ZN9PhyloTree31computeNonrevLikelihoodDervSIMDI5Vec4dLb1ELi20ELb0EEEvP13PhyloNeighborP9PhyloNodePdS6_
0000000000000000 W _ZN9PhyloTree31computeNonrevLikelihoodDervSIMDI5Vec4dLb1ELi4ELb0EEEvP13PhyloNeighborP9PhyloNodePdS6_
0000000000000000 W _ZN9PhyloTree31computePartialParsimonyFastSIMDI6Vec8uiEEvP13PhyloNeighborP9PhyloNode
0000000000000000 W _ZN9PhyloTree32computeLikelihoodDervGenericSIMDI5Vec4dLb1ELb0ELb0EEEvP13PhyloNeighborP9PhyloNodePdS6_
0000000000000000 W _ZN9PhyloTree32computeLikelihoodDervGenericSIMDI5Vec4dLb1ELb0ELb1EEEvP13PhyloNeighborP9PhyloNodePdS6_
0000000000000000 W _ZN9PhyloTree33computeNonrevLikelihoodBranchSIMDI5Vec4dLb0ELi20ELb0EEEdP13PhyloNeighborP9PhyloNodeb
0000000000000000 W _ZN9PhyloTree33computeNonrevLikelihoodBranchSIMDI5Vec4dLb0ELi4ELb0EEEdP13PhyloNeighborP9PhyloNodeb
0000000000000000 W _ZN9PhyloTree33computeNonrevLikelihoodBranchSIMDI5Vec4dLb1ELi20ELb0EEEdP13PhyloNeighborP9PhyloNodeb
0000000000000000 W _ZN9PhyloTree33computeNonrevLikelihoodBranchSIMDI5Vec4dLb1ELi4ELb0EEEdP13PhyloNeighborP9PhyloNodeb
0000000000000000 W _ZN9PhyloTree33computeParsimonyBranchSankoffSIMDI6Vec8uiEEiP13PhyloNeighborP9PhyloNodePi
0000000000000000 W _ZN9PhyloTree34computeLikelihoodBranchGenericSIMDI5Vec4dLb1ELb0ELb0EEEdP13PhyloNeighborP9PhyloNodeb
0000000000000000 W _ZN9PhyloTree34computeLikelihoodBranchGenericSIMDI5Vec4dLb1ELb0ELb1EEEdP13PhyloNeighborP9PhyloNodeb
0000000000000000 W _ZN9PhyloTree34computeLikelihoodBufferGenericSIMDI5Vec4dLb1ELb0ELb0EEEvP13PhyloNeighborP9PhyloNodemmi
0000000000000000 W _ZN9PhyloTree34computeLikelihoodBufferGenericSIMDI5Vec4dLb1ELb0ELb1EEEvP13PhyloNeighborP9PhyloNodemmi
0000000000000000 W _ZN9PhyloTree34computeNonrevPartialLikelihoodSIMDI5Vec4dLb0ELi20ELb0EEEvR13TraversalInfommi
0000000000000000 W _ZN9PhyloTree34computeNonrevPartialLikelihoodSIMDI5Vec4dLb0ELi4ELb0EEEvR13TraversalInfommi
0000000000000000 W _ZN9PhyloTree34computeNonrevPartialLikelihoodSIMDI5Vec4dLb1ELi20ELb0EEEvR13TraversalInfommi
0000000000000000 W _ZN9PhyloTree34computeNonrevPartialLikelihoodSIMDI5Vec4dLb1ELi4ELb0EEEvR13TraversalInfommi
0000000000000000 W _ZN9PhyloTree34computePartialParsimonySankoffSIMDI6Vec8uiEEvP13PhyloNeighborP9PhyloNode
0000000000000000 W _ZN9PhyloTree35computePartialLikelihoodGenericSIMDI5Vec4dLb1ELb0ELb0EEEvR13TraversalInfommi
0000000000000000 W _ZN9PhyloTree35computePartialLikelihoodGenericSIMDI5Vec4dLb1ELb0ELb1EEEvR13TraversalInfommi
0000000000000000 W _ZN9PhyloTree38computeLikelihoodDervMixlenGenericSIMDI5Vec4dLb1ELb0ELb0EEEvP13PhyloNeighborP9PhyloNodeRdS6_
0000000000000000 W _ZN9PhyloTree38computeLikelihoodFromBufferGenericSIMDI5Vec4dLb0ELb0EEEdv
0000000000000000 W _ZN9PhyloTree38computeLikelihoodFromBufferGenericSIMDI5Vec4dLb0ELb1EEEdv
0000000000000000 W _ZN9PhyloTree38computeNonrevLikelihoodDervGenericSIMDI5Vec4dLb0ELb0EEEvP13PhyloNeighborP9PhyloNodePdS6_
0000000000000000 W _ZN9PhyloTree38computeNonrevLikelihoodDervGenericSIMDI5Vec4dLb1ELb0EEEvP13PhyloNeighborP9PhyloNodePdS6_
0000000000000000 W _ZN9PhyloTree40computeNonrevLikelihoodBranchGenericSIMDI5Vec4dLb0ELb0EEEdP13PhyloNeighborP9PhyloNodeb
0000000000000000 W _ZN9PhyloTree40computeNonrevLikelihoodBranchGenericSIMDI5Vec4dLb1ELb0EEEdP13PhyloNeighborP9PhyloNodeb
0000000000000000 W _ZN9PhyloTree41computeNonrevPartialLikelihoodGenericSIMDI5Vec4dLb0ELb0EEEvR13TraversalInfommi
0000000000000000 W _ZN9PhyloTree41computeNonrevPartialLikelihoodGenericSIMDI5Vec4dLb1ELb0EEEvR13TraversalInfommi
0000000000000000 W _ZN9PhyloTree8getModelEv
0000000000000000 W _ZN9PhyloTree8isMixlenEv
0000000000000000 W _ZN9PhyloTree9getMixlenEv
0000000000000000 W _ZNK10ModelSubst14getEigenvaluesEv
0000000000000000 W _ZNK10ModelSubst15getEigenvectorsEv
0000000000000000 W _ZNK10ModelSubst22getInverseEigenvectorsEv
                 U _ZNKSt5ctypeIcE13_M_widen_initEv
0000000000000000 W _ZNKSt5ctypeIcE8do_widenEc
                 U _ZNKSt7__cxx1112basic_stringIcSt11char_traitsIcESaIcEE7compareEPKc
                 U _ZNSo3putEc
                 U _ZNSo5flushEv
                 U _ZNSo9_M_insertIlEERSoT_
                 U _ZNSo9_M_insertImEERSoT_
                 U _ZNSolsEi
0000000000000000 W _ZNSt6vectorIiSaIiEE17_M_default_appendEm
0000000000000000 W _ZNSt6vectorImSaImEE17_M_realloc_insertIJRKmEEEvN9__gnu_cxx17__normal_iteratorIPmS1_EEDpOT_
                 U _ZNSt7__cxx1112basic_stringIcSt11char_traitsIcESaIcEE10_M_replaceEmmPKcm
                 U _ZNSt7__cxx1112basic_stringIcSt11char_traitsIcESaIcEE7reserveEm
                 U _ZNSt7__cxx1112basic_stringIcSt11char_traitsIcESaIcEE9_M_appendEPKcm
                 U _ZNSt8ios_base4InitC1Ev
                 U _ZNSt8ios_base4InitD1Ev
                 U _ZSt16__ostream_insertIcSt11char_traitsIcEERSt13basic_ostreamIT_T0_ES6_PKS3_l
                 U _ZSt16__throw_bad_castv
                 U _ZSt20__throw_length_errorPKc
                 U _ZSt24__throw_out_of_range_fmtPKcz
                 U _ZSt4cerr
                 U _ZSt4cout
                 U _ZStlsISt11char_traitsIcEERSt13basic_ostreamIcT_ES5_PKc
0000000000000000 W _ZStplIcSt11char_traitsIcESaIcEENSt7__cxx1112basic_stringIT_T0_T1_EEPKS5_RKS8_
0000000000000000 u _ZZN5Vec8f6cutoffEiE4mask
                 U _ZdlPv
                 U _Znwm
                 U __assert_fail
                 U __cxa_atexit
                 U __dso_handle
                 U __gxx_personality_v0
                 U abort
                 U exp
                 U free
                 U ldexp
                 U log
                 U memcpy
                 U memmove
                 U memset
                 U omp_get_num_threads
                 U omp_get_thread_num
                 U posix_memalign
                 U strlen
                 U strrchr
                 U verbose_mode

phylokernelfma.cpp.o:
0000000000000000 V DW.ref.__gxx_personality_v0
                 U GOMP_atomic_end
                 U GOMP_atomic_start
                 U GOMP_barrier
                 U GOMP_critical_end
                 U GOMP_critical_start
                 U GOMP_loop_end_nowait
                 U GOMP_loop_nonmonotonic_dynamic_next
                 U GOMP_loop_nonmonotonic_dynamic_start
                 U GOMP_parallel
                 U _GLOBAL_OFFSET_TABLE_
                 U _Unwind_Resume
0000000000000000 W _Z10_my_assertPKcS0_S0_i
                 U _Z10outWarningNSt7__cxx1112basic_stringIcSt11char_traitsIcESaIcEEE
                 U _Z10outWarningPKc
0000000000000000 W _Z13aligned_allocIdEPT_m
0000000000000000 W _Z13computeBoundsI5Vec4dEviimRSt6vectorImSaImEE
0000000000000000 W _Z13dotProductVecI5Vec4dS0_Lb1EEvPT0_PT_RS3_m
0000000000000000 W _Z13dotProductVecI5Vec4ddLb1EEvPT0_PT_RS3_m
0000000000000000 W _Z13productVecMatI5Vec4dS0_Lb1EEvPT_PT0_S2_RS1_m
0000000000000000 W _Z13productVecMatI5Vec4dS0_Lb1EEvPT_PT0_S2_m
0000000000000000 W _Z13productVecMatI5Vec4ddLb1EEvPT_PT0_S2_RS1_m
0000000000000000 W _Z13productVecMatI5Vec4ddLb1EEvPT_PT0_S2_m
0000000000000000 W _Z14dotProduct3VecI5Vec4ddLb1EEvPT0_PT_S4_RS3_m
0000000000000000 W _Z16dotProductTripleI5Vec4dS0_Lb1ELb0EEvPT0_S2_S2_PT_RS3_S5_S5_mm
0000000000000000 W _Z16dotProductTripleI5Vec4ddLb1ELb0EEvPT0_S2_S2_PT_RS3_S5_S5_mm
0000000000000000 W _Z16dotProductTripleI5Vec4ddLb1ELb1EEvPT0_S2_S2_PT_RS3_S5_S5_mm
                 U _Z16print_stacktraceRSoj
0000000000000000 W _Z17dotProductDualVecI5Vec4dS0_Lb1EEvPT0_PT_S2_S4_RS3_m
0000000000000000 W _Z17dotProductDualVecI5Vec4ddLb1EEvPT0_PT_S2_S4_RS3_m
                 U _Z20convertInt64ToStringB5cxx11l
                 U _Z8outErrorNSt7__cxx1112basic_stringIcSt11char_traitsIcESaIcEEEb
                 U _Z8outErrorPKcb
0000000000000000 W _ZN10ModelSubst12getNMixturesEv
0000000000000000 W _ZN10ModelSubst12isReversibleEv
0000000000000000 W _ZN10ModelSubst16getMixtureWeightEi
0000000000000000 W _ZN10ModelSubst19isSiteSpecificModelEv
0000000000000000 W _ZN10ModelSubst9writeInfoERSo
                 U _ZN12ModelFactory18computeTransMatrixEdPdii
                 U _ZN13MemSlotVector6unlockEP13PhyloNeighbor
                 U _ZN13MemSlotVector7findNeiEP13PhyloNeighbor
0000000000000000 W _ZN17RateHeterogeneity7getPropEi
0000000000000000 W _ZN17RateHeterogeneity7getRateEi
0000000000000000 W _ZN17RateHeterogeneity8getNRateEv
0000000000000000 W _ZN17RateHeterogeneity9writeInfoERSo
                 U _ZN4Node12findNeighborEPS_
                 U _ZN4Node6degreeEv
                 U _ZN4Node6isLeafEv
                 U _ZN6Params11getInstanceEv
0000000000000000 W _ZN8Neighbor9getLengthEi
                 U _ZN9PhyloNode11computeSizeEP4Node
0000000000000000 W _ZN9PhyloTree11getAlnNSiteEv
0000000000000000 W _ZN9PhyloTree13getCurMixtureEv
0000000000000000 W _ZN9PhyloTree14dotProductSIMDId5Vec4dEET_PS2_S3_i
0000000000000000 W _ZN9PhyloTree14dotProductSIMDIf5Vec8fEET_PS2_S3_i
0000000000000000 T _ZN9PhyloTree16setDotProductFMAEv
0000000000000000 W _ZN9PhyloTree18computePartialInfoI5Vec4dEEvR13TraversalInfoPT_PdS6_
0000000000000000 W _ZN9PhyloTree18computePartialInfoI5Vec4dLi20EEEvR13TraversalInfoPT_PdS6_
0000000000000000 W _ZN9PhyloTree18computePartialInfoI5Vec4dLi4EEEvR13TraversalInfoPT_PdS6_
                 U _ZN9PhyloTree20computeTraversalInfoEP13PhyloNeighborP9PhyloNodeRPd
0000000000000000 W _ZN9PhyloTree20computeTraversalInfoI5Vec4dEEvP9PhyloNodeS3_b
0000000000000000 W _ZN9PhyloTree20computeTraversalInfoI5Vec4dLi20EEEvP9PhyloNodeS3_b
0000000000000000 W _ZN9PhyloTree20computeTraversalInfoI5Vec4dLi4EEEvP9PhyloNodeS3_b
                 U _ZN9PhyloTree22getBufferPartialLhSizeEv
0000000000000000 T _ZN9PhyloTree22setLikelihoodKernelFMAEv
0000000000000000 W _ZN9PhyloTree25computeLikelihoodDervSIMDI5Vec4dLb0ELi20ELb1ELb0EEEvP13PhyloNeighborP9PhyloNodePdS6_
0000000000000000 W _ZN9PhyloTree25computeLikelihoodDervSIMDI5Vec4dLb0ELi20ELb1ELb1EEEvP13PhyloNeighborP9PhyloNodePdS6_
0000000000000000 W _ZN9PhyloTree25computeLikelihoodDervSIMDI5Vec4dLb0ELi4ELb1ELb0EEEvP13PhyloNeighborP9PhyloNodePdS6_
0000000000000000 W _ZN9PhyloTree25computeLikelihoodDervSIMDI5Vec4dLb0ELi4ELb1ELb1EEEvP13PhyloNeighborP9PhyloNodePdS6_
0000000000000000 W _ZN9PhyloTree25computeLikelihoodDervSIMDI5Vec4dLb1ELi20ELb1ELb0EEEvP13PhyloNeighborP9PhyloNodePdS6_
0000000000000000 W _ZN9PhyloTree25computeLikelihoodDervSIMDI5Vec4dLb1ELi20ELb1ELb1EEEvP13PhyloNeighborP9PhyloNodePdS6_
0000000000000000 W _ZN9PhyloTree25computeLikelihoodDervSIMDI5Vec4dLb1ELi4ELb1ELb0EEEvP13PhyloNeighborP9PhyloNodePdS6_
0000000000000000 W _ZN9PhyloTree25computeLikelihoodDervSIMDI5Vec4dLb1ELi4ELb1ELb1EEEvP13PhyloNeighborP9PhyloNodePdS6_
0000000000000000 W _ZN9PhyloTree27computeLikelihoodBranchSIMDI5Vec4dLb0ELi20ELb1ELb0EEEdP13PhyloNeighborP9PhyloNodeb
0000000000000000 W _ZN9PhyloTree27computeLikelihoodBranchSIMDI5Vec4dLb0ELi20ELb1ELb1EEEdP13PhyloNeighborP9PhyloNodeb
0000000000000000 W _ZN9PhyloTree27computeLikelihoodBranchSIMDI5Vec4dLb0ELi4ELb1ELb0EEEdP13PhyloNeighborP9PhyloNodeb
0000000000000000 W _ZN9PhyloTree27computeLikelihoodBranchSIMDI5Vec4dLb0ELi4ELb1ELb1EEEdP13PhyloNeighborP9PhyloNodeb
0000000000000000 W _ZN9PhyloTree27computeLikelihoodBranchSIMDI5Vec4dLb1ELi20ELb1ELb0EEEdP13PhyloNeighborP9PhyloNodeb
0000000000000000 W _ZN9PhyloTree27computeLikelihoodBranchSIMDI5Vec4dLb1ELi20ELb1ELb1EEEdP13PhyloNeighborP9PhyloNodeb
0000000000000000 W _ZN9PhyloTree27computeLikelihoodBranchSIMDI5Vec4dLb1ELi4ELb1ELb0EEEdP13PhyloNeighborP9PhyloNodeb
0000000000000000 W _ZN9PhyloTree27computeLikelihoodBranchSIMDI5Vec4dLb1ELi4ELb1ELb1EEEdP13PhyloNeighborP9PhyloNodeb
0000000000000000 W _ZN9PhyloTree27computeLikelihoodBufferSIMDI5Vec4dLb0ELi20ELb1ELb0EEEvP13PhyloNeighborP9PhyloNodemmi
0000000000000000 W _ZN9PhyloTree27computeLikelihoodBufferSIMDI5Vec4dLb0ELi20ELb1ELb1EEEvP13PhyloNeighborP9PhyloNodemmi
0000000000000000 W _ZN9PhyloTree27computeLikelihoodBufferSIMDI5Vec4dLb0ELi4ELb1ELb0EEEvP13PhyloNeighborP9PhyloNodemmi
0000000000000000 W _ZN9PhyloTree27computeLikelihoodBufferSIMDI5Vec4dLb0ELi4ELb1ELb1EEEvP13PhyloNeighborP9PhyloNodemmi
0000000000000000 W _ZN9PhyloTree27computeLikelihoodBufferSIMDI5Vec4dLb1ELi20ELb1ELb0EEEvP13PhyloNeighborP9PhyloNodemmi
0000000000000000 W _ZN9PhyloTree27computeLikelihoodBufferSIMDI5Vec4dLb1ELi20ELb1ELb1EEEvP13PhyloNeighborP9PhyloNodemmi
0000000000000000 W _ZN9PhyloTree27computeLikelihoodBufferSIMDI5Vec4dLb1ELi4ELb1ELb0EEEvP13PhyloNeighborP9PhyloNodemmi
0000000000000000 W _ZN9PhyloTree27computeLikelihoodBufferSIMDI5Vec4dLb1ELi4ELb1ELb1EEEvP13PhyloNeighborP9PhyloNodemmi
                 U _ZN9PhyloTree27computeTipPartialLikelihoodEv
0000000000000000 W _ZN9PhyloTree28computePartialLikelihoodSIMDI5Vec4dLb0ELi20ELb1ELb0EEEvR13TraversalInfommi
0000000000000000 W _ZN9PhyloTree28computePartialLikelihoodSIMDI5Vec4dLb0ELi20ELb1ELb1EEEvR13TraversalInfommi
0000000000000000 W _ZN9PhyloTree28computePartialLikelihoodSIMDI5Vec4dLb0ELi4ELb1ELb0EEEvR13TraversalInfommi
0000000000000000 W _ZN9PhyloTree28computePartialLikelihoodSIMDI5Vec4dLb0ELi4ELb1ELb1EEEvR13TraversalInfommi
0000000000000000 W _ZN9PhyloTree28computePartialLikelihoodSIMDI5Vec4dLb1ELi20ELb1ELb0EEEvR13TraversalInfommi
0000000000000000 W _ZN9PhyloTree28computePartialLikelihoodSIMDI5Vec4dLb1ELi20ELb1ELb1EEEvR13TraversalInfommi
0000000000000000 W _ZN9PhyloTree28computePartialLikelihoodSIMDI5Vec4dLb1ELi4ELb1ELb0EEEvR13TraversalInfommi
0000000000000000 W _ZN9PhyloTree28computePartialLikelihoodSIMDI5Vec4dLb1ELi4ELb1ELb1EEEvR13TraversalInfommi
0000000000000000 W _ZN9PhyloTree31computeLikelihoodDervMixlenSIMDI5Vec4dLb0ELi20ELb1ELb0EEEvP13PhyloNeighborP9PhyloNodeRdS6_
0000000000000000 W _ZN9PhyloTree31computeLikelihoodDervMixlenSIMDI5Vec4dLb0ELi4ELb1ELb0EEEvP13PhyloNeighborP9PhyloNodeRdS6_
0000000000000000 W _ZN9PhyloTree31computeLikelihoodDervMixlenSIMDI5Vec4dLb1ELi20ELb1ELb0EEEvP13PhyloNeighborP9PhyloNodeRdS6_
0000000000000000 W _ZN9PhyloTree31computeLikelihoodDervMixlenSIMDI5Vec4dLb1ELi4ELb1ELb0EEEvP13PhyloNeighborP9PhyloNodeRdS6_
0000000000000000 W _ZN9PhyloTree31computeLikelihoodFromBufferSIMDI5Vec4dLi20ELb1ELb0EEEdv
0000000000000000 W _ZN9PhyloTree31computeLikelihoodFromBufferSIMDI5Vec4dLi20ELb1ELb1EEEdv
0000000000000000 W _ZN9PhyloTree31computeLikelihoodFromBufferSIMDI5Vec4dLi4ELb1ELb0EEEdv
0000000000000000 W _ZN9PhyloTree31computeLikelihoodFromBufferSIMDI5Vec4dLi4ELb1ELb1EEEdv
0000000000000000 W _ZN9PhyloTree31computeNonrevLikelihoodDervSIMDI5Vec4dLb0ELi20ELb1EEEvP13PhyloNeighborP9PhyloNodePdS6_
0000000000000000 W _ZN9PhyloTree31computeNonrevLikelihoodDervSIMDI5Vec4dLb0ELi4ELb1EEEvP13PhyloNeighborP9PhyloNodePdS6_
0000000000000000 W _ZN9PhyloTree31computeNonrevLikelihoodDervSIMDI5Vec4dLb1ELi20ELb1EEEvP13PhyloNeighborP9PhyloNodePdS6_
0000000000000000 W _ZN9PhyloTree31computeNonrevLikelihoodDervSIMDI5Vec4dLb1ELi4ELb1EEEvP13PhyloNeighborP9PhyloNodePdS6_
0000000000000000 W _ZN9PhyloTree32computeLikelihoodDervGenericSIMDI5Vec4dLb1ELb1ELb0EEEvP13PhyloNeighborP9PhyloNodePdS6_
0000000000000000 W _ZN9PhyloTree32computeLikelihoodDervGenericSIMDI5Vec4dLb1ELb1ELb1EEEvP13PhyloNeighborP9PhyloNodePdS6_
0000000000000000 W _ZN9PhyloTree33computeNonrevLikelihoodBranchSIMDI5Vec4dLb0ELi20ELb1EEEdP13PhyloNeighborP9PhyloNodeb
0000000000000000 W _ZN9PhyloTree33computeNonrevLikelihoodBranchSIMDI5Vec4dLb0ELi4ELb1EEEdP13PhyloNeighborP9PhyloNodeb
0000000000000000 W _ZN9PhyloTree33computeNonrevLikelihoodBranchSIMDI5Vec4dLb1ELi20ELb1EEEdP13PhyloNeighborP9PhyloNodeb
0000000000000000 W _ZN9PhyloTree33computeNonrevLikelihoodBranchSIMDI5Vec4dLb1ELi4ELb1EEEdP13PhyloNeighborP9PhyloNodeb
0000000000000000 W _ZN9PhyloTree34computeLikelihoodBranchGenericSIMDI5Vec4dLb1ELb1ELb0EEEdP13PhyloNeighborP9PhyloNodeb
0000000000000000 W _ZN9PhyloTree34computeLikelihoodBranchGenericSIMDI5Vec4dLb1ELb1ELb1EEEdP13PhyloNeighborP9PhyloNodeb
0000000000000000 W _ZN9PhyloTree34computeLikelihoodBufferGenericSIMDI5Vec4dLb1ELb1ELb0EEEvP13PhyloNeighborP9PhyloNodemmi
0000000000000000 W _ZN9PhyloTree34computeLikelihoodBufferGenericSIMDI5Vec4dLb1ELb1ELb1EEEvP13PhyloNeighborP9PhyloNodemmi
0000000000000000 W _ZN9PhyloTree34computeNonrevPartialLikelihoodSIMDI5Vec4dLb0ELi20ELb1EEEvR13TraversalInfommi
0000000000000000 W _ZN9PhyloTree34computeNonrevPartialLikelihoodSIMDI5Vec4dLb0ELi4ELb1EEEvR13TraversalInfommi
0000000000000000 W _ZN9PhyloTree34computeNonrevPartialLikelihoodSIMDI5Vec4dLb1ELi20ELb1EEEvR13TraversalInfommi
0000000000000000 W _ZN9PhyloTree34computeNonrevPartialLikelihoodSIMDI5Vec4dLb1ELi4ELb1EEEvR13TraversalInfommi
0000000000000000 W _ZN9PhyloTree35computePartialLikelihoodGenericSIMDI5Vec4dLb1ELb1ELb0EEEvR13TraversalInfommi
0000000000000000 W _ZN9PhyloTree35computePartialLikelihoodGenericSIMDI5Vec4dLb1ELb1ELb1EEEvR13TraversalInfommi
0000000000000000 W _ZN9PhyloTree38computeLikelihoodDervMixlenGenericSIMDI5Vec4dLb1ELb1ELb0EEEvP13PhyloNeighborP9PhyloNodeRdS6_
0000000000000000 W _ZN9PhyloTree38computeLikelihoodFromBufferGenericSIMDI5Vec4dLb1ELb0EEEdv
0000000000000000 W _ZN9PhyloTree38computeLikelihoodFromBufferGenericSIMDI5Vec4dLb1ELb1EEEdv
0000000000000000 W _ZN9PhyloTree38computeNonrevLikelihoodDervGenericSIMDI5Vec4dLb0ELb1EEEvP13PhyloNeighborP9PhyloNodePdS6_
0000000000000000 W _ZN9PhyloTree38computeNonrevLikelihoodDervGenericSIMDI5Vec4dLb1ELb1EEEvP13PhyloNeighborP9PhyloNodePdS6_
0000000000000000 W _ZN9PhyloTree40computeNonrevLikelihoodBranchGenericSIMDI5Vec4dLb0ELb1EEEdP13PhyloNeighborP9PhyloNodeb
0000000000000000 W _ZN9PhyloTree40computeNonrevLikelihoodBranchGenericSIMDI5Vec4dLb1ELb1EEEdP13PhyloNeighborP9PhyloNodeb
0000000000000000 W _ZN9PhyloTree41computeNonrevPartialLikelihoodGenericSIMDI5Vec4dLb0ELb1EEEvR13TraversalInfommi
0000000000000000 W _ZN9PhyloTree41computeNonrevPartialLikelihoodGenericSIMDI5Vec4dLb1ELb1EEEvR13TraversalInfommi
0000000000000000 W _ZN9PhyloTree8getModelEv
0000000000000000 W _ZN9PhyloTree8isMixlenEv
0000000000000000 W _ZN9PhyloTree9getMixlenEv
0000000000000000 W _ZNK10ModelSubst14getEigenvaluesEv
0000000000000000 W _ZNK10ModelSubst15getEigenvectorsEv
0000000000000000 W _ZNK10ModelSubst22getInverseEigenvectorsEv
                 U _ZNKSt5ctypeIcE13_M_widen_initEv
0000000000000000 W _ZNKSt5ctypeIcE8do_widenEc
                 U _ZNSo3putEc
                 U _ZNSo5flushEv
                 U _ZNSo9_M_insertIlEERSoT_
                 U _ZNSo9_M_insertImEERSoT_
                 U _ZNSolsEi
0000000000000000 W _ZNSt6vectorIiSaIiEE17_M_default_appendEm
0000000000000000 W _ZNSt6vectorImSaImEE17_M_realloc_insertIJRKmEEEvN9__gnu_cxx17__normal_iteratorIPmS1_EEDpOT_
                 U _ZNSt7__cxx1112basic_stringIcSt11char_traitsIcESaIcEE10_M_replaceEmmPKcm
                 U _ZNSt7__cxx1112basic_stringIcSt11char_traitsIcESaIcEE7reserveEm
                 U _ZNSt7__cxx1112basic_stringIcSt11char_traitsIcESaIcEE9_M_appendEPKcm
                 U _ZNSt8ios_base4InitC1Ev
                 U _ZNSt8ios_base4InitD1Ev
                 U _ZSt16__ostream_insertIcSt11char_traitsIcEERSt13basic_ostreamIT_T0_ES6_PKS3_l
                 U _ZSt16__throw_bad_castv
                 U _ZSt20__throw_length_errorPKc
                 U _ZSt24__throw_out_of_range_fmtPKcz
                 U _ZSt4cerr
                 U _ZSt4cout
                 U _ZStlsISt11char_traitsIcEERSt13basic_ostreamIcT_ES5_PKc
0000000000000000 W _ZStplIcSt11char_traitsIcESaIcEENSt7__cxx1112basic_stringIT_T0_T1_EEPKS5_RKS8_
0000000000000000 u _ZZN5Vec8f6cutoffEiE4mask
                 U _ZdlPv
                 U _Znwm
                 U __cxa_atexit
                 U __dso_handle
                 U __gxx_personality_v0
                 U abort
                 U exp
                 U free
                 U ldexp
                 U log
                 U memcpy
                 U memmove
                 U memset
                 U omp_get_num_threads
                 U omp_get_thread_num
                 U posix_memalign
                 U strlen
                 U strrchr
                 U verbose_mode

phylokernelsse.cpp.o:
0000000000000000 V DW.ref.__gxx_personality_v0
                 U GOMP_atomic_end
                 U GOMP_atomic_start
                 U GOMP_barrier
                 U GOMP_critical_end
                 U GOMP_critical_start
                 U GOMP_loop_end_nowait
                 U GOMP_loop_nonmonotonic_dynamic_next
                 U GOMP_loop_nonmonotonic_dynamic_start
                 U GOMP_parallel
                 U _GLOBAL_OFFSET_TABLE_
                 U _Unwind_Resume
0000000000000000 W _Z10_my_assertPKcS0_S0_i
                 U _Z10outWarningNSt7__cxx1112basic_stringIcSt11char_traitsIcESaIcEEE
                 U _Z10outWarningPKc
0000000000000000 W _Z13aligned_allocI6Vec4uiEPT_m
0000000000000000 W _Z13aligned_allocIdEPT_m
0000000000000000 W _Z13computeBoundsI5Vec2dEviimRSt6vectorImSaImEE
0000000000000000 W _Z13dotProductVecI5Vec2dS0_Lb0EEvPT0_PT_RS3_m
0000000000000000 W _Z13dotProductVecI5Vec2ddLb0EEvPT0_PT_RS3_m
0000000000000000 W _Z13productVecMatI5Vec2dS0_Lb0EEvPT_PT0_S2_RS1_m
0000000000000000 W _Z13productVecMatI5Vec2dS0_Lb0EEvPT_PT0_S2_m
0000000000000000 W _Z13productVecMatI5Vec2ddLb0EEvPT_PT0_S2_RS1_m
0000000000000000 W _Z13productVecMatI5Vec2ddLb0EEvPT_PT0_S2_m
0000000000000000 W _Z14dotProduct3VecI5Vec2ddLb0EEvPT0_PT_S4_RS3_m
0000000000000000 W _Z16dotProductTripleI5Vec2dS0_Lb0ELb0EEvPT0_S2_S2_PT_RS3_S5_S5_mm
0000000000000000 W _Z16dotProductTripleI5Vec2ddLb0ELb0EEvPT0_S2_S2_PT_RS3_S5_S5_mm
0000000000000000 W _Z16dotProductTripleI5Vec2ddLb0ELb1EEvPT0_S2_S2_PT_RS3_S5_S5_mm
                 U _Z16print_stacktraceRSoj
0000000000000000 W _Z17dotProductDualVecI5Vec2dS0_Lb0EEvPT0_PT_S2_S4_RS3_m
0000000000000000 W _Z17dotProductDualVecI5Vec2ddLb0EEvPT0_PT_S2_S4_RS3_m
                 U _Z20convertInt64ToStringB5cxx11l
                 U _Z8outErrorNSt7__cxx1112basic_stringIcSt11char_traitsIcESaIcEEEb
                 U _Z8outErrorPKcb
0000000000000000 W _ZN10ModelSubst12getNMixturesEv
0000000000000000 W _ZN10ModelSubst12isReversibleEv
0000000000000000 W _ZN10ModelSubst16getMixtureWeightEi
0000000000000000 W _ZN10ModelSubst19isSiteSpecificModelEv
0000000000000000 W _ZN10ModelSubst9writeInfoERSo
                 U _ZN12ModelFactory18computeTransMatrixEdPdii
                 U _ZN13MemSlotVector6unlockEP13PhyloNeighbor
                 U _ZN13MemSlotVector7findNeiEP13PhyloNeighbor
0000000000000000 W _ZN17RateHeterogeneity7getPropEi
0000000000000000 W _ZN17RateHeterogeneity7getRateEi
0000000000000000 W _ZN17RateHeterogeneity8getNRateEv
0000000000000000 W _ZN17RateHeterogeneity9writeInfoERSo
                 U _ZN4Node12findNeighborEPS_
                 U _ZN4Node6degreeEv
                 U _ZN4Node6isLeafEv
                 U _ZN6Params11getInstanceEv
0000000000000000 W _ZN8Neighbor9getLengthEi
                 U _ZN9PhyloNode11computeSizeEP4Node
0000000000000000 W _ZN9PhyloTree11getAlnNSiteEv
0000000000000000 W _ZN9PhyloTree13getCurMixtureEv
0000000000000000 W _ZN9PhyloTree14dotProductSIMDId5Vec2dEET_PS2_S3_i
0000000000000000 W _ZN9PhyloTree14dotProductSIMDIf5Vec4fEET_PS2_S3_i
                 U _ZN9PhyloTree16getBitsBlockSizeEv
0000000000000000 T _ZN9PhyloTree16setDotProductSSEEv
0000000000000000 W _ZN9PhyloTree18computePartialInfoI5Vec2dEEvR13TraversalInfoPT_PdS6_
0000000000000000 W _ZN9PhyloTree18computePartialInfoI5Vec2dLi20EEEvR13TraversalInfoPT_PdS6_
0000000000000000 W _ZN9PhyloTree18computePartialInfoI5Vec2dLi4EEEvR13TraversalInfoPT_PdS6_
                 U _ZN9PhyloTree20computeTraversalInfoEP13PhyloNeighborP9PhyloNodeRPd
0000000000000000 W _ZN9PhyloTree20computeTraversalInfoI5Vec2dEEvP9PhyloNodeS3_b
0000000000000000 W _ZN9PhyloTree20computeTraversalInfoI5Vec2dLi20EEEvP9PhyloNodeS3_b
0000000000000000 W _ZN9PhyloTree20computeTraversalInfoI5Vec2dLi4EEEvP9PhyloNodeS3_b
0000000000000000 T _ZN9PhyloTree21setParsimonyKernelSSEEv
                 U _ZN9PhyloTree22getBufferPartialLhSizeEv
0000000000000000 T _ZN9PhyloTree22setLikelihoodKernelSSEEv
0000000000000000 W _ZN9PhyloTree25computeLikelihoodDervSIMDI5Vec2dLb0ELi20ELb0ELb0EEEvP13PhyloNeighborP9PhyloNodePdS6_
0000000000000000 W _ZN9PhyloTree25computeLikelihoodDervSIMDI5Vec2dLb0ELi20ELb0ELb1EEEvP13PhyloNeighborP9PhyloNodePdS6_
0000000000000000 W _ZN9PhyloTree25computeLikelihoodDervSIMDI5Vec2dLb0ELi4ELb0ELb0EEEvP13PhyloNeighborP9PhyloNodePdS6_
0000000000000000 W _ZN9PhyloTree25computeLikelihoodDervSIMDI5Vec2dLb0ELi4ELb0ELb1EEEvP13PhyloNeighborP9PhyloNodePdS6_
0000000000000000 W _ZN9PhyloTree25computeLikelihoodDervSIMDI5Vec2dLb1ELi20ELb0ELb0EEEvP13PhyloNeighborP9PhyloNodePdS6_
0000000000000000 W _ZN9PhyloTree25computeLikelihoodDervSIMDI5Vec2dLb1ELi20ELb0ELb1EEEvP13PhyloNeighborP9PhyloNodePdS6_
0000000000000000 W _ZN9PhyloTree25computeLikelihoodDervSIMDI5Vec2dLb1ELi4ELb0ELb0EEEvP13PhyloNeighborP9PhyloNodePdS6_
0000000000000000 W _ZN9PhyloTree25computeLikelihoodDervSIMDI5Vec2dLb1ELi4ELb0ELb1EEEvP13PhyloNeighborP9PhyloNodePdS6_
                 U _ZN9PhyloTree26computeTipPartialParsimonyEv
0000000000000000 W _ZN9PhyloTree27computeLikelihoodBranchSIMDI5Vec2dLb0ELi20ELb0ELb0EEEdP13PhyloNeighborP9PhyloNodeb
0000000000000000 W _ZN9PhyloTree27computeLikelihoodBranchSIMDI5Vec2dLb0ELi20ELb0ELb1EEEdP13PhyloNeighborP9PhyloNodeb
0000000000000000 W _ZN9PhyloTree27computeLikelihoodBranchSIMDI5Vec2dLb0ELi4ELb0ELb0EEEdP13PhyloNeighborP9PhyloNodeb
0000000000000000 W _ZN9PhyloTree27computeLikelihoodBranchSIMDI5Vec2dLb0ELi4ELb0ELb1EEEdP13PhyloNeighborP9PhyloNodeb
0000000000000000 W _ZN9PhyloTree27computeLikelihoodBranchSIMDI5Vec2dLb1ELi20ELb0ELb0EEEdP13PhyloNeighborP9PhyloNodeb
0000000000000000 W _ZN9PhyloTree27computeLikelihoodBranchSIMDI5Vec2dLb1ELi20ELb0ELb1EEEdP13PhyloNeighborP9PhyloNodeb
0000000000000000 W _ZN9PhyloTree27computeLikelihoodBranchSIMDI5Vec2dLb1ELi4ELb0ELb0EEEdP13PhyloNeighborP9PhyloNodeb
0000000000000000 W _ZN9PhyloTree27computeLikelihoodBranchSIMDI5Vec2dLb1ELi4ELb0ELb1EEEdP13PhyloNeighborP9PhyloNodeb
0000000000000000 W _ZN9PhyloTree27computeLikelihoodBufferSIMDI5Vec2dLb0ELi20ELb0ELb0EEEvP13PhyloNeighborP9PhyloNodemmi
0000000000000000 W _ZN9PhyloTree27computeLikelihoodBufferSIMDI5Vec2dLb0ELi20ELb0ELb1EEEvP13PhyloNeighborP9PhyloNodemmi
0000000000000000 W _ZN9PhyloTree27computeLikelihoodBufferSIMDI5Vec2dLb0ELi4ELb0ELb0EEEvP13PhyloNeighborP9PhyloNodemmi
0000000000000000 W _ZN9PhyloTree27computeLikelihoodBufferSIMDI5Vec2dLb0ELi4ELb0ELb1EEEvP13PhyloNeighborP9PhyloNodemmi
0000000000000000 W _ZN9PhyloTree27computeLikelihoodBufferSIMDI5Vec2dLb1ELi20ELb0ELb0EEEvP13PhyloNeighborP9PhyloNodemmi
0000000000000000 W _ZN9PhyloTree27computeLikelihoodBufferSIMDI5Vec2dLb1ELi20ELb0ELb1EEEvP13PhyloNeighborP9PhyloNodemmi
0000000000000000 W _ZN9PhyloTree27computeLikelihoodBufferSIMDI5Vec2dLb1ELi4ELb0ELb0EEEvP13PhyloNeighborP9PhyloNodemmi
0000000000000000 W _ZN9PhyloTree27computeLikelihoodBufferSIMDI5Vec2dLb1ELi4ELb0ELb1EEEvP13PhyloNeighborP9PhyloNodemmi
                 U _ZN9PhyloTree27computeTipPartialLikelihoodEv
0000000000000000 W _ZN9PhyloTree28computePartialLikelihoodSIMDI5Vec2dLb0ELi20ELb0ELb0EEEvR13TraversalInfommi
0000000000000000 W _ZN9PhyloTree28computePartialLikelihoodSIMDI5Vec2dLb0ELi20ELb0ELb1EEEvR13TraversalInfommi
0000000000000000 W _ZN9PhyloTree28computePartialLikelihoodSIMDI5Vec2dLb0ELi4ELb0ELb0EEEvR13TraversalInfommi
0000000000000000 W _ZN9PhyloTree28computePartialLikelihoodSIMDI5Vec2dLb0ELi4ELb0ELb1EEEvR13TraversalInfommi
0000000000000000 W _ZN9PhyloTree28computePartialLikelihoodSIMDI5Vec2dLb1ELi20ELb0ELb0EEEvR13TraversalInfommi
0000000000000000 W _ZN9PhyloTree28computePartialLikelihoodSIMDI5Vec2dLb1ELi20ELb0ELb1EEEvR13TraversalInfommi
0000000000000000 W _ZN9PhyloTree28computePartialLikelihoodSIMDI5Vec2dLb1ELi4ELb0ELb0EEEvR13TraversalInfommi
0000000000000000 W _ZN9PhyloTree28computePartialLikelihoodSIMDI5Vec2dLb1ELi4ELb0ELb1EEEvR13TraversalInfommi
0000000000000000 W _ZN9PhyloTree30computeParsimonyBranchFastSIMDI6Vec4uiEEiP13PhyloNeighborP9PhyloNodePi
0000000000000000 W _ZN9PhyloTree31computeLikelihoodDervMixlenSIMDI5Vec2dLb0ELi20ELb0ELb0EEEvP13PhyloNeighborP9PhyloNodeRdS6_
0000000000000000 W _ZN9PhyloTree31computeLikelihoodDervMixlenSIMDI5Vec2dLb0ELi4ELb0ELb0EEEvP13PhyloNeighborP9PhyloNodeRdS6_
0000000000000000 W _ZN9PhyloTree31computeLikelihoodDervMixlenSIMDI5Vec2dLb1ELi20ELb0ELb0EEEvP13PhyloNeighborP9PhyloNodeRdS6_
0000000000000000 W _ZN9PhyloTree31computeLikelihoodDervMixlenSIMDI5Vec2dLb1ELi4ELb0ELb0EEEvP13PhyloNeighborP9PhyloNodeRdS6_
0000000000000000 W _ZN9PhyloTree31computeLikelihoodFromBufferSIMDI5Vec2dLi20ELb0ELb0EEEdv
0000000000000000 W _ZN9PhyloTree31computeLikelihoodFromBufferSIMDI5Vec2dLi20ELb0ELb1EEEdv
0000000000000000 W _ZN9PhyloTree31computeLikelihoodFromBufferSIMDI5Vec2dLi4ELb0ELb0EEEdv
0000000000000000 W _ZN9PhyloTree31computeLikelihoodFromBufferSIMDI5Vec2dLi4ELb0ELb1EEEdv
0000000000000000 W _ZN9PhyloTree31computeNonrevLikelihoodDervSIMDI5Vec2dLb0ELi4ELb0EEEvP13PhyloNeighborP9PhyloNodePdS6_
0000000000000000 W _ZN9PhyloTree31computeNonrevLikelihoodDervSIMDI5Vec2dLb1ELi4ELb0EEEvP13PhyloNeighborP9PhyloNodePdS6_
0000000000000000 W _ZN9PhyloTree31computePartialParsimonyFastSIMDI6Vec4uiEEvP13PhyloNeighborP9PhyloNode
0000000000000000 W _ZN9PhyloTree32computeLikelihoodDervGenericSIMDI5Vec2dLb1ELb0ELb0EEEvP13PhyloNeighborP9PhyloNodePdS6_
0000000000000000 W _ZN9PhyloTree32computeLikelihoodDervGenericSIMDI5Vec2dLb1ELb0ELb1EEEvP13PhyloNeighborP9PhyloNodePdS6_
0000000000000000 W _ZN9PhyloTree33computeNonrevLikelihoodBranchSIMDI5Vec2dLb0ELi4ELb0EEEdP13PhyloNeighborP9PhyloNodeb
0000000000000000 W _ZN9PhyloTree33computeNonrevLikelihoodBranchSIMDI5Vec2dLb1ELi4ELb0EEEdP13PhyloNeighborP9PhyloNodeb
0000000000000000 W _ZN9PhyloTree33computeParsimonyBranchSankoffSIMDI6Vec4uiEEiP13PhyloNeighborP9PhyloNodePi
0000000000000000 W _ZN9PhyloTree34computeLikelihoodBranchGenericSIMDI5Vec2dLb1ELb0ELb0EEEdP13PhyloNeighborP9PhyloNodeb
0000000000000000 W _ZN9PhyloTree34computeLikelihoodBranchGenericSIMDI5Vec2dLb1ELb0ELb1EEEdP13PhyloNeighborP9PhyloNodeb
0000000000000000 W _ZN9PhyloTree34computeLikelihoodBufferGenericSIMDI5Vec2dLb1ELb0ELb0EEEvP13PhyloNeighborP9PhyloNodemmi
0000000000000000 W _ZN9PhyloTree34computeLikelihoodBufferGenericSIMDI5Vec2dLb1ELb0ELb1EEEvP13PhyloNeighborP9PhyloNodemmi
0000000000000000 W _ZN9PhyloTree34computeNonrevPartialLikelihoodSIMDI5Vec2dLb0ELi4ELb0EEEvR13TraversalInfommi
0000000000000000 W _ZN9PhyloTree34computeNonrevPartialLikelihoodSIMDI5Vec2dLb1ELi4ELb0EEEvR13TraversalInfommi
0000000000000000 W _ZN9PhyloTree34computePartialParsimonySankoffSIMDI6Vec4uiEEvP13PhyloNeighborP9PhyloNode
0000000000000000 W _ZN9PhyloTree35computePartialLikelihoodGenericSIMDI5Vec2dLb1ELb0ELb0EEEvR13TraversalInfommi
0000000000000000 W _ZN9PhyloTree35computePartialLikelihoodGenericSIMDI5Vec2dLb1ELb0ELb1EEEvR13TraversalInfommi
0000000000000000 W _ZN9PhyloTree38computeLikelihoodDervMixlenGenericSIMDI5Vec2dLb1ELb0ELb0EEEvP13PhyloNeighborP9PhyloNodeRdS6_
0000000000000000 W _ZN9PhyloTree38computeLikelihoodFromBufferGenericSIMDI5Vec2dLb0ELb0EEEdv
0000000000000000 W _ZN9PhyloTree38computeLikelihoodFromBufferGenericSIMDI5Vec2dLb0ELb1EEEdv
0000000000000000 W _ZN9PhyloTree38computeNonrevLikelihoodDervGenericSIMDI5Vec2dLb0ELb0EEEvP13PhyloNeighborP9PhyloNodePdS6_
0000000000000000 W _ZN9PhyloTree38computeNonrevLikelihoodDervGenericSIMDI5Vec2dLb1ELb0EEEvP13PhyloNeighborP9PhyloNodePdS6_
0000000000000000 W _ZN9PhyloTree40computeNonrevLikelihoodBranchGenericSIMDI5Vec2dLb0ELb0EEEdP13PhyloNeighborP9PhyloNodeb
0000000000000000 W _ZN9PhyloTree40computeNonrevLikelihoodBranchGenericSIMDI5Vec2dLb1ELb0EEEdP13PhyloNeighborP9PhyloNodeb
0000000000000000 W _ZN9PhyloTree41computeNonrevPartialLikelihoodGenericSIMDI5Vec2dLb0ELb0EEEvR13TraversalInfommi
0000000000000000 W _ZN9PhyloTree41computeNonrevPartialLikelihoodGenericSIMDI5Vec2dLb1ELb0EEEvR13TraversalInfommi
0000000000000000 W _ZN9PhyloTree8getModelEv
0000000000000000 W _ZN9PhyloTree8isMixlenEv
0000000000000000 W _ZN9PhyloTree9getMixlenEv
0000000000000000 W _ZNK10ModelSubst14getEigenvaluesEv
0000000000000000 W _ZNK10ModelSubst15getEigenvectorsEv
0000000000000000 W _ZNK10ModelSubst22getInverseEigenvectorsEv
                 U _ZNKSt5ctypeIcE13_M_widen_initEv
0000000000000000 W _ZNKSt5ctypeIcE8do_widenEc
                 U _ZNKSt7__cxx1112basic_stringIcSt11char_traitsIcESaIcEE7compareEPKc
                 U _ZNSo3putEc
                 U _ZNSo5flushEv
                 U _ZNSo9_M_insertIlEERSoT_
                 U _ZNSo9_M_insertImEERSoT_
                 U _ZNSolsEi
0000000000000000 W _ZNSt6vectorIiSaIiEE17_M_default_appendEm
0000000000000000 W _ZNSt6vectorImSaImEE17_M_realloc_insertIJRKmEEEvN9__gnu_cxx17__normal_iteratorIPmS1_EEDpOT_
                 U _ZNSt7__cxx1112basic_stringIcSt11char_traitsIcESaIcEE10_M_replaceEmmPKcm
                 U _ZNSt7__cxx1112basic_stringIcSt11char_traitsIcESaIcEE7reserveEm
                 U _ZNSt7__cxx1112basic_stringIcSt11char_traitsIcESaIcEE9_M_appendEPKcm
                 U _ZNSt8ios_base4InitC1Ev
                 U _ZNSt8ios_base4InitD1Ev
                 U _ZSt16__ostream_insertIcSt11char_traitsIcEERSt13basic_ostreamIT_T0_ES6_PKS3_l
                 U _ZSt16__throw_bad_castv
                 U _ZSt20__throw_length_errorPKc
                 U _ZSt24__throw_out_of_range_fmtPKcz
                 U _ZSt4cerr
                 U _ZSt4cout
                 U _ZStlsISt11char_traitsIcEERSt13basic_ostreamIcT_ES5_PKc
0000000000000000 W _ZStplIcSt11char_traitsIcESaIcEENSt7__cxx1112basic_stringIT_T0_T1_EEPKS5_RKS8_
0000000000000000 u _ZZN5Vec4f6cutoffEiE4mask
                 U _ZdlPv
                 U _Znwm
                 U __assert_fail
                 U __cxa_atexit
                 U __dso_handle
                 U __gxx_personality_v0
                 U abort
                 U exp
                 U free
                 U ldexp
                 U log
                 U memcpy
                 U memmove
                 U memset
                 U omp_get_num_threads
                 U omp_get_thread_num
                 U posix_memalign
                 U strlen
                 U strrchr
                 U verbose_mode

lbfgsb_new.cpp.o:
                 U _GLOBAL_OFFSET_TABLE_
0000000000000000 T _Z3bmviPdS_PiS_S_S0_
0000000000000000 T _Z4ddotPiPdS_S0_S_
0000000000000000 T _Z5daxpyPiPdS0_S_S0_S_
0000000000000000 T _Z5dcopyPiPdS_S0_S_
0000000000000000 T _Z5dpofaPdPiS0_S0_
0000000000000000 T _Z5dscalPiPdS0_S_
0000000000000000 T _Z5dtrslPdPiS0_S_S0_S0_
0000000000000000 T _Z5formkiPiS_S_S_S_S_S_PdS0_iS0_S0_S0_S0_S_S_S_
0000000000000000 T _Z5formtiPdS_S_PiS_S0_
0000000000000000 T _Z5freeviPiS_S_S_S_S_S_S_S_iS_
0000000000000000 T _Z5subsmiiPiS_PdS0_S_S0_S0_S0_S0_S0_S_S_S_S0_S0_iS_
0000000000000000 T _Z5timerPd
0000000000000000 T _Z6activeiPdS_PiS_S0_iS0_S0_S0_
0000000000000000 T _Z6cauchyiPdS_S_PiS_S0_S0_S_S_S_iS_S_S_S_S_S0_S0_S_S_S_S_S0_iS_S0_S_
0000000000000000 T _Z6cmprlbiiPdS_S_S_S_S_S_S_S_PiS_S0_S0_S0_S0_S0_
0000000000000000 T _Z6dcsrchPdS_S_dddddPcPiS_
0000000000000000 T _Z6dcstepPdS_S_S_S_S_S_S_S_PiS_S_
0000000000000000 T _Z6errclbiidPdS_PiPcS0_S0_
0000000000000000 T _Z6hpsolbiPdPii
0000000000000000 T _Z6lbfgsbiiPdS_S_PiS_PFdiS_PvEPFviS_S_S1_ES0_S1_ddS0_S0_iPcii
0000000000000000 T _Z6lnsrlbiPdS_PiS_S_S_S_S_S_S_S_S_S_S_S_S_S_S_S0_S0_S0_S0_S0_PcS0_S0_S1_S0_S_
0000000000000000 T _Z6mainlbiiPdS_S_PiS_S_dS_S_S_S_S_S_S_S_S_S_S_S_S_S0_S0_S0_PciS1_S0_S0_S_
0000000000000000 T _Z6matupdiiPdS_S_S_S_S_PiS0_S0_S0_S_S_S_S_S_
0000000000000000 T _Z6prn1lbiiPdS_S_id
0000000000000000 T _Z6prn2lbiPdS_S_iiiidiPciidd
0000000000000000 T _Z6prn3lbiPdS_PciiiiiiidiS0_iddi
0000000000000000 T _Z6projgriPdS_PiS_S_S_
0000000000000000 T _Z6setulbiiPdS_S_PiS_S_dS_S_S0_PciS0_S0_S_
0000000000000000 T _Z7pvectorPcPdi
                 U _ZNKSt5ctypeIcE13_M_widen_initEv
0000000000000000 W _ZNKSt5ctypeIcE8do_widenEc
                 U _ZNSo3putEc
                 U _ZNSo5flushEv
                 U _ZNSo9_M_insertIdEERSoT_
                 U _ZNSolsEi
                 U _ZNSt8ios_base4InitC1Ev
                 U _ZNSt8ios_base4InitD1Ev
                 U _ZNSt9basic_iosIcSt11char_traitsIcEE5clearESt12_Ios_Iostate
                 U _ZSt16__ostream_insertIcSt11char_traitsIcEERSt13basic_ostreamIT_T0_ES6_PKS3_l
                 U _ZSt16__throw_bad_castv
                 U _ZSt4cerr
                 U _ZSt4cout
                 U _ZStlsISt11char_traitsIcEERSt13basic_ostreamIcT_ES5_PKc
                 U __cxa_atexit
                 U __dso_handle
                 U exit
                 U free
                 U malloc
                 U memset
                 U sqrt
                 U strcpy
                 U strlen
                 U strncmp

confidence_interval.cpp.o:
0000000000000000 V DW.ref.__gxx_personality_v0
                 U _GLOBAL_OFFSET_TABLE_
                 U _Unwind_Resume
                 U _Z11nexusICDateB5cxx11iP2PrPP4NodePdS4_S4_S4_
                 U _Z12collapseTreeP2PrPP4NodeS3_RPidRb
                 U _Z13imposeMinBlenRSoP2PrPP4Nodedb
                 U _Z13readInputDatePN3lsd17InputOutputStreamEP2PrRPP4NodeRb
                 U _Z14initConstraintP2PrPP4Node
                 U _Z15computeVarianceP2PrPP4Node
                 U _Z15realToYearMonthB5cxx11d
                 U _Z15rooted2unrootedRP2PrPP4Node
                 U _Z15unrooted2rootedRP2PrPP4Node
                 U _Z16extrait_outgroupPN3lsd17InputOutputStreamEP2Prb
                 U _Z17calculateOutliersRP2PrRPP4NodeRdb
                 U _Z17initialize_statusRP2PrRPP4Node
                 U _Z17reroot_rootedtreeRdiP2PrPP4Node
                 U _Z18computeNewVarianceP2PrPP4Node
                 U _Z18realToYearMonthDayB5cxx11d
                 U _Z19collapseTreeReOrderP2PrPP4NodeS0_S3_RPi
                 U _Z19computeSuc_polytomyP2PrPP4Node
0000000000000000 T _Z20computeIC_bootstrapsPN3lsd17InputOutputStreamEP2PrPP4NodeRPdS8_S8_S8_S8_S8_RdS9_S8_S8_ib
                 U _Z20remove_outlier_nodesRP2PrRPP4Node
                 U _Z21assignRateGroupToTreeP2PrPP4Node
                 U _Z21calculate_tree_heightP2PrRPP4Node
                 U _Z21median_branch_lengthsP2PrPP4Node
                 U _Z21splitExternalBranchesP2PrPP4Node
                 U _Z26preorder_polytomy_withTipsP2PrPP4Node
                 U _Z26with_constraint_multiratesP2PrPP4Nodeb
                 U _Z29collapseUnInformativeBranchesRP2PrRPP4Nodeb
                 U _Z29without_constraint_multiratesP2PrPP4Nodeb
                 U _Z30computeNewVarianceEstimateRootP2PrPP4Node
                 U _Z36estimate_root_with_constraint_rootedRP2PrRPP4Node
                 U _Z39estimate_root_without_constraint_rootedRP2PrRPP4Node
                 U _Z3rttP2PrPP4Node
                 U _Z41estimate_root_with_constraint_fast_rootedRP2PrRPP4Node
                 U _Z42estimate_root_with_constraint_local_rootedRP2PrRPP4Node
                 U _Z44with_constraint_active_set_lambda_multiratesbdRP2PrRPP4Nodeb
                 U _Z45estimate_root_without_constraint_local_rootedRP2PrRPP4Node
                 U _Z47without_constraint_active_set_lambda_multiratesbdRP2PrRPP4Nodeb
                 U _Z4sortRPdi
                 U _Z6newickB5cxx11iiP2PrPP4NodeRi
0000000000000000 T _Z6outputdiPN3lsd17InputOutputStreamEP2PrPP4NodeRSoS7_S7_ib
0000000000000000 T _Z9computeICdP2PrPP4NodeRPdS5_S5_S5_S5_S5_RdS6_S5_S5_
                 U _Z9nexusDateB5cxx11iP2PrPP4Node
                 U _Z9tree2dataRSiP2PrRi
0000000000000000 W _ZN2Pr4copyEPS_
0000000000000000 W _ZN2PrD1Ev
0000000000000000 W _ZN2PrD2Ev
                 U _ZNKSt5ctypeIcE13_M_widen_initEv
0000000000000000 W _ZNKSt5ctypeIcE8do_widenEc
                 U _ZNKSt7__cxx1112basic_stringIcSt11char_traitsIcESaIcEE7compareEPKc
                 U _ZNSi5seekgESt4fposI11__mbstate_tE
                 U _ZNSi5tellgEv
                 U _ZNSo3putEc
                 U _ZNSo5flushEv
                 U _ZNSo9_M_insertIdEERSoT_
                 U _ZNSolsEi
0000000000000000 W _ZNSt12_Destroy_auxILb0EE9__destroyIPNSt7__cxx1112basic_stringIcSt11char_traitsIcESaIcEEEEEvT_S9_
0000000000000000 W _ZNSt19normal_distributionIdEclISt26linear_congruential_engineImLm16807ELm0ELm2147483647EEEEdRT_RKNS0_10param_typeE
0000000000000000 W _ZNSt20poisson_distributionIiE10param_type13_M_initializeEv
0000000000000000 W _ZNSt20poisson_distributionIiEclISt26linear_congruential_engineImLm16807ELm0ELm2147483647EEEEiRT_RKNS0_10param_typeE
                 U _ZNSt6localeC1Ev
                 U _ZNSt6localeD1Ev
0000000000000000 W _ZNSt6vectorINSt7__cxx1112basic_stringIcSt11char_traitsIcESaIcEEESaIS5_EE12emplace_backIJS5_EEEvDpOT_
0000000000000000 W _ZNSt6vectorINSt7__cxx1112basic_stringIcSt11char_traitsIcESaIcEEESaIS5_EE17_M_realloc_insertIJS5_EEEvN9__gnu_cxx17__normal_iteratorIPS5_S7_EEDpOT_
0000000000000000 W _ZNSt6vectorIdSaIdEE17_M_realloc_insertIJRKdEEEvN9__gnu_cxx17__normal_iteratorIPdS1_EEDpOT_
0000000000000000 W _ZNSt6vectorIdSaIdEE17_M_realloc_insertIJdEEEvN9__gnu_cxx17__normal_iteratorIPdS1_EEDpOT_
                 U _ZNSt7__cxx1112basic_stringIcSt11char_traitsIcESaIcEE10_M_replaceEmmPKcm
                 U _ZNSt7__cxx1112basic_stringIcSt11char_traitsIcESaIcEE9_M_assignERKS4_
                 U _ZNSt7__cxx1112basic_stringIcSt11char_traitsIcESaIcEE9_M_createERmm
0000000000000000 W _ZNSt7__cxx1115basic_stringbufIcSt11char_traitsIcESaIcEED0Ev
0000000000000000 W _ZNSt7__cxx1115basic_stringbufIcSt11char_traitsIcESaIcEED1Ev
0000000000000000 W _ZNSt7__cxx1115basic_stringbufIcSt11char_traitsIcESaIcEED2Ev
                 U _ZNSt7__cxx1119basic_ostringstreamIcSt11char_traitsIcESaIcEED1Ev
                 U _ZNSt8ios_base4InitC1Ev
                 U _ZNSt8ios_base4InitD1Ev
                 U _ZNSt8ios_baseC2Ev
                 U _ZNSt8ios_baseD2Ev
                 U _ZNSt9basic_iosIcSt11char_traitsIcEE4initEPSt15basic_streambufIcS1_E
                 U _ZNSt9basic_iosIcSt11char_traitsIcEE5clearESt12_Ios_Iostate
                 U _ZSt16__ostream_insertIcSt11char_traitsIcEERSt13basic_ostreamIT_T0_ES6_PKS3_l
                 U _ZSt16__throw_bad_castv
                 U _ZSt20__throw_length_errorPKc
                 U _ZSt28__throw_bad_array_new_lengthv
                 U _ZSt4cout
                 U _ZTTNSt7__cxx1119basic_ostringstreamIcSt11char_traitsIcESaIcEEE
                 U _ZTVNSt7__cxx1115basic_stringbufIcSt11char_traitsIcESaIcEEE
                 U _ZTVNSt7__cxx1119basic_ostringstreamIcSt11char_traitsIcESaIcEEE
                 U _ZTVSt15basic_streambufIcSt11char_traitsIcEE
                 U _ZTVSt9basic_iosIcSt11char_traitsIcEE
                 U _ZdaPv
                 U _ZdlPv
                 U _Znam
                 U _Znwm
                 U __cxa_atexit
                 U __cxa_begin_catch
                 U __cxa_end_catch
                 U __cxa_rethrow
                 U __cxa_throw_bad_array_new_length
                 U __dso_handle
                 U __gxx_personality_v0
                 U exp
                 U lgamma
                 U log
                 U memcpy
                 U memmove
                 U round
                 U sqrt
                 U strlen

dating.cpp.o:
0000000000000000 V DW.ref.__gxx_personality_v0
                 U _GLOBAL_OFFSET_TABLE_
                 U _Unwind_Resume
0000000000000000 T _Z10conditionsRNSt7__cxx114listIdSaIdEEEP2PrPP4Node
                 U _Z11activeLowerP4Node
                 U _Z11activeUpperP4Node
                 U _Z11desactiveTCP4Node
0000000000000000 T _Z12conditionsQPRNSt7__cxx114listIdSaIdEEEP2PrPP4Node
0000000000000000 T _Z13computeLambdaNSt7__cxx114listIiSaIiEEEP2PrPP4Node
                 U _Z14activeMarkLeafP4Node
                 U _Z14desactiveLimitP4Node
0000000000000000 T _Z15with_constraintP2PrRPP4NodeNSt7__cxx114listIiSaIiEEERNS6_IdSaIdEEE
                 U _Z16computeObjectiveP2PrPP4Node
0000000000000000 T _Z16remove_ne_lambdaRNSt7__cxx114listIdSaIdEEERNS0_IiSaIiEEERi
0000000000000000 T _Z16starting_pointQPP2PrPP4NodeRNSt7__cxx114listIiSaIiEEEi
                 U _Z17desactiveMarkLeafP4Node
                 U _Z17initialize_statusRP2PrRPP4Node
                 U _Z17preorder_polytomyP2PrPP4Node
                 U _Z18postorder_polytomyB5cxx11P2PrPP4Node
0000000000000000 T _Z18without_constraintP2PrPP4Node
0000000000000000 T _Z19calculateMultiplierP2PrPP4Node
                 U _Z19reduceTree_polytomyP2PrPP4NodeRPiRPNSt7__cxx114listIiSaIiEEERPdSB_
                 U _Z19starting_pointLowerP2PrPP4NodeRNSt7__cxx114listIiSaIiEEE
                 U _Z19starting_pointUpperP2PrPP4NodeRNSt7__cxx114listIiSaIiEEE
                 U _Z21assignRateGroupToTreeP2PrPP4Node
                 U _Z24computeFeuilles_polytomyNSt7__cxx114listIiSaIiEEEP2PrPP4Node
0000000000000000 T _Z26with_constraint_active_setP2PrRPP4Nodei
0000000000000000 T _Z26with_constraint_active_setbP2PrPP4Node
0000000000000000 T _Z26with_constraint_multiratesP2PrPP4Nodeb
0000000000000000 T _Z29without_constraint_active_setP2PrPP4Nodei
0000000000000000 T _Z29without_constraint_active_setbP2PrPP4Node
0000000000000000 T _Z29without_constraint_multiratesP2PrPP4Nodeb
                 U _Z2tcP4Node
                 U _Z4leafP4Node
                 U _Z5limitP4Node
                 U _Z5lowerP4Node
                 U _Z5upperP4Node
                 U _Z8activeTCP4Node
                 U _Z8markLeafP4Node
                 U _Z9desactiveP4Node
                 U _ZNKSt5ctypeIcE13_M_widen_initEv
0000000000000000 W _ZNKSt5ctypeIcE8do_widenEc
                 U _ZNSo3putEc
                 U _ZNSo5flushEv
                 U _ZNSo9_M_insertIdEERSoT_
0000000000000000 W _ZNSt7__cxx1110_List_baseIdSaIdEE8_M_clearEv
0000000000000000 W _ZNSt7__cxx1110_List_baseIiSaIiEE8_M_clearEv
0000000000000000 W _ZNSt7__cxx114listIiSaIiEE6removeERKi
                 U _ZNSt8__detail15_List_node_base11_M_transferEPS0_S1_
                 U _ZNSt8__detail15_List_node_base7_M_hookEPS0_
                 U _ZNSt8ios_base4InitC1Ev
                 U _ZNSt8ios_base4InitD1Ev
                 U _ZSt16__ostream_insertIcSt11char_traitsIcEERSt13basic_ostreamIT_T0_ES6_PKS3_l
                 U _ZSt16__throw_bad_castv
                 U _ZSt4cout
                 U _ZdaPv
                 U _ZdlPv
                 U _Znam
                 U _Znwm
                 U __cxa_atexit
                 U __cxa_throw_bad_array_new_length
                 U __dso_handle
                 U __gxx_personality_v0
                 U memcpy
                 U memset
                 U printf

estimate_root.cpp.o:
0000000000000000 V DW.ref.__gxx_personality_v0
                 U _GLOBAL_OFFSET_TABLE_
                 U _Unwind_Resume
                 U _Z10computeSucRPiS0_S0_ii
                 U _Z10conditionsRNSt7__cxx114listIdSaIdEEEP2PrPP4Node
                 U _Z11activeLowerP4Node
                 U _Z11activeUpperP4Node
                 U _Z11cloneLeavesP2PrPP4Nodei
                 U _Z11desactiveTCP4Node
                 U _Z12conditionsQPRNSt7__cxx114listIdSaIdEEEP2PrPP4Node
                 U _Z13computeLambdaNSt7__cxx114listIiSaIiEEEP2PrPP4Node
0000000000000000 T _Z13imposeMinBlenRSoP2PrPP4Nodedb
                 U _Z14activeMarkLeafP4Node
                 U _Z14desactiveLimitP4Node
                 U _Z15with_constraintP2PrRPP4NodeNSt7__cxx114listIiSaIiEEERNS6_IdSaIdEEE
                 U _Z16remove_ne_lambdaRNSt7__cxx114listIdSaIdEEERNS0_IiSaIiEEERi
                 U _Z16starting_pointQPP2PrPP4NodeRNSt7__cxx114listIiSaIiEEEi
                 U _Z17desactiveMarkLeafP4Node
                 U _Z17initialize_statusRP2PrRPP4Node
                 U _Z17preorder_polytomyP2PrPP4Node
                 U _Z17reroot_rootedtreeRdiiiP2PrPP4NodeRS4_
                 U _Z17reroot_rootedtreeRdiiiP2PrPP4NodeRS4_RPiS7_
                 U _Z18postorder_polytomyB5cxx11P2PrPP4Node
                 U _Z18without_constraintP2PrPP4Node
                 U _Z19reduceTree_polytomyP2PrPP4NodeRPiRPNSt7__cxx114listIiSaIiEEERPdSB_
                 U _Z19starting_pointLowerP2PrPP4NodeRNSt7__cxx114listIiSaIiEEE
                 U _Z19starting_pointUpperP2PrPP4NodeRNSt7__cxx114listIiSaIiEEE
                 U _Z21assignRateGroupToTreeP2PrPP4Node
0000000000000000 T _Z22with_constraint_lambdadRP2PrRPP4NodeNSt7__cxx114listIiSaIiEEERNS7_IdSaIdEEE
                 U _Z24computeFeuilles_polytomyNSt7__cxx114listIiSaIiEEEP2PrPP4Node
0000000000000000 T _Z25without_constraint_lambdadRP2PrRPP4NodeNSt7__cxx114listIiSaIiEEERNS7_IdSaIdEEE
0000000000000000 T _Z26calculateMultiplier_lambdaiidRP2PrRPP4NodePb
                 U _Z28computeObjectiveEstimateRootiidP2PrPP4Node
                 U _Z29without_constraint_multiratesP2PrPP4Nodeb
                 U _Z2tcP4Node
0000000000000000 T _Z33with_constraint_active_set_lambdabdRP2PrRPP4Node
0000000000000000 T _Z33with_constraint_active_set_lambdadRP2PrRPP4Nodei
0000000000000000 T _Z36estimate_root_with_constraint_rootedRP2PrRPP4Node
0000000000000000 T _Z36without_constraint_active_set_lambdabdRP2PrRPP4Node
0000000000000000 T _Z36without_constraint_active_set_lambdadRP2PrRPP4Nodei
0000000000000000 T _Z39estimate_root_without_constraint_rootedRP2PrRPP4Node
0000000000000000 T _Z41estimate_root_with_constraint_fast_rootedRP2PrRPP4Node
0000000000000000 T _Z42estimate_root_with_constraint_local_rootedRP2PrRPP4Node
0000000000000000 T _Z44with_constraint_active_set_lambda_multiratesbdRP2PrRPP4Nodeb
0000000000000000 T _Z45estimate_root_without_constraint_local_rootedRP2PrRPP4Node
0000000000000000 T _Z47without_constraint_active_set_lambda_multiratesbdRP2PrRPP4Nodeb
                 U _Z4leafP4Node
                 U _Z5limitP4Node
                 U _Z5lowerP4Node
                 U _Z5upperP4Node
                 U _Z6myExitNSt7__cxx1112basic_stringIcSt11char_traitsIcESaIcEEEz
                 U _Z8activeTCP4Node
                 U _Z8markLeafP4Node
                 U _Z8varianceP2Prd
                 U _Z9desactiveP4Node
                 U _ZNKSt5ctypeIcE13_M_widen_initEv
0000000000000000 W _ZNKSt5ctypeIcE8do_widenEc
                 U _ZNKSt7__cxx1112basic_stringIcSt11char_traitsIcESaIcEE7compareEPKc
                 U _ZNSo3putEc
                 U _ZNSo5flushEv
                 U _ZNSo9_M_insertIdEERSoT_
                 U _ZNSolsEi
                 U _ZNSt6localeC1Ev
                 U _ZNSt6localeD1Ev
0000000000000000 W _ZNSt6vectorINSt7__cxx1112basic_stringIcSt11char_traitsIcESaIcEEESaIS5_EE17_M_realloc_insertIJS5_EEEvN9__gnu_cxx17__normal_iteratorIPS5_S7_EEDpOT_
0000000000000000 W _ZNSt6vectorIdSaIdEE17_M_realloc_insertIJRKdEEEvN9__gnu_cxx17__normal_iteratorIPdS1_EEDpOT_
0000000000000000 W _ZNSt7__cxx1110_List_baseIdSaIdEE8_M_clearEv
0000000000000000 W _ZNSt7__cxx1110_List_baseIiSaIiEE8_M_clearEv
                 U _ZNSt7__cxx1112basic_stringIcSt11char_traitsIcESaIcEE10_M_replaceEmmPKcm
                 U _ZNSt7__cxx1112basic_stringIcSt11char_traitsIcESaIcEE9_M_assignERKS4_
                 U _ZNSt7__cxx1112basic_stringIcSt11char_traitsIcESaIcEE9_M_createERmm
                 U _ZNSt7__cxx1119basic_ostringstreamIcSt11char_traitsIcESaIcEED1Ev
0000000000000000 W _ZNSt7__cxx114listIiSaIiEE6removeERKi
                 U _ZNSt8__detail15_List_node_base11_M_transferEPS0_S1_
                 U _ZNSt8__detail15_List_node_base7_M_hookEPS0_
                 U _ZNSt8ios_base4InitC1Ev
                 U _ZNSt8ios_base4InitD1Ev
                 U _ZNSt8ios_baseC2Ev
                 U _ZNSt8ios_baseD2Ev
                 U _ZNSt9basic_iosIcSt11char_traitsIcEE4initEPSt15basic_streambufIcS1_E
                 U _ZSt16__ostream_insertIcSt11char_traitsIcEERSt13basic_ostreamIT_T0_ES6_PKS3_l
                 U _ZSt16__throw_bad_castv
                 U _ZSt20__throw_length_errorPKc
                 U _ZSt4cout
                 U _ZTTNSt7__cxx1119basic_ostringstreamIcSt11char_traitsIcESaIcEEE
                 U _ZTVNSt7__cxx1115basic_stringbufIcSt11char_traitsIcESaIcEEE
                 U _ZTVNSt7__cxx1119basic_ostringstreamIcSt11char_traitsIcESaIcEEE
                 U _ZTVSt15basic_streambufIcSt11char_traitsIcEE
                 U _ZTVSt9basic_iosIcSt11char_traitsIcEE
                 U _ZdaPv
                 U _ZdlPv
                 U _Znam
                 U _Znwm
                 U __cxa_atexit
                 U __cxa_throw_bad_array_new_length
                 U __dso_handle
                 U __gxx_personality_v0
                 U memcpy
                 U memmove
                 U memset
                 U round
                 U sqrt

lsd.cpp.o:
0000000000000000 V DW.ref.__gxx_personality_v0
                 U _GLOBAL_OFFSET_TABLE_
                 U _Unwind_Resume
                 U _Z10getOptionsiPPc
                 U _Z11cloneLeavesP2PrPP4Nodei
                 U _Z13checkTopologyP2PrPP4NodeS3_
                 U _Z13getLineNumberRSi
                 U _Z13imposeMinBlenRSoP2PrPP4Nodedb
                 U _Z13readInputDatePN3lsd17InputOutputStreamEP2PrRPP4NodeRb
                 U _Z14initConstraintP2PrPP4Node
                 U _Z14printInterfaceRSoP2Pr
                 U _Z15computeVarianceP2PrPP4Node
                 U _Z15rooted2unrootedRP2PrPP4Node
                 U _Z15unrooted2rootedRP2PrPP4Node
                 U _Z16extrait_outgroupPN3lsd17InputOutputStreamEP2Prb
                 U _Z17calculateOutliersRP2PrRPP4NodeRdb
                 U _Z17readPartitionFileRSiP2Pr
                 U _Z17reroot_rootedtreeRdiiiP2PrPP4NodeRS4_
                 U _Z19computeSuc_polytomyP2PrPP4Node
                 U _Z21median_branch_lengthsP2PrPP4Node
                 U _Z21read_double_from_lineNSt7__cxx1112basic_stringIcSt11char_traitsIcESaIcEEE
                 U _Z21splitExternalBranchesP2PrPP4Node
                 U _Z26with_constraint_multiratesP2PrPP4Nodeb
                 U _Z29collapseUnInformativeBranchesRP2PrRPP4Nodeb
                 U _Z29without_constraint_multiratesP2PrPP4Nodeb
                 U _Z36estimate_root_with_constraint_rootedRP2PrRPP4Node
                 U _Z39estimate_root_without_constraint_rootedRP2PrRPP4Node
                 U _Z41estimate_root_with_constraint_fast_rootedRP2PrRPP4Node
                 U _Z42estimate_root_with_constraint_local_rootedRP2PrRPP4Node
                 U _Z44with_constraint_active_set_lambda_multiratesbdRP2PrRPP4Nodeb
                 U _Z45estimate_root_without_constraint_local_rootedRP2PrRPP4Node
                 U _Z47without_constraint_active_set_lambda_multiratesbdRP2PrRPP4Nodeb
                 U _Z6myExitNSt7__cxx1112basic_stringIcSt11char_traitsIcESaIcEEEz
                 U _Z6outputdiPN3lsd17InputOutputStreamEP2PrPP4NodeRSoS7_S7_ib
                 U _Z8varianceP2Prd
                 U _Z9tree2dataRSiP2PrRi
                 U _ZN15InputOutputFileC1EP2Pr
0000000000000000 W _ZN2Pr4copyEPS_
0000000000000000 W _ZN2PrD1Ev
0000000000000000 W _ZN2PrD2Ev
0000000000000000 T _ZN3lsd13buildTimeTreeEiPPcPNS_17InputOutputStreamE
                 U _ZNKSt5ctypeIcE13_M_widen_initEv
0000000000000000 W _ZNKSt5ctypeIcE8do_widenEc
                 U _ZNKSt7__cxx1112basic_stringIcSt11char_traitsIcESaIcEE7compareEPKc
                 U _ZNSi5seekgESt4fposI11__mbstate_tE
                 U _ZNSi5tellgEv
                 U _ZNSo3putEc
                 U _ZNSo5flushEv
                 U _ZNSo9_M_insertIdEERSoT_
                 U _ZNSolsEi
0000000000000000 W _ZNSt12_Destroy_auxILb0EE9__destroyIPNSt7__cxx1112basic_stringIcSt11char_traitsIcESaIcEEEEEvT_S9_
                 U _ZNSt6localeC1Ev
                 U _ZNSt6localeD1Ev
0000000000000000 W _ZNSt6vectorINSt7__cxx1112basic_stringIcSt11char_traitsIcESaIcEEESaIS5_EE12emplace_backIJS5_EEEvDpOT_
0000000000000000 W _ZNSt6vectorINSt7__cxx1112basic_stringIcSt11char_traitsIcESaIcEEESaIS5_EE17_M_realloc_insertIJS5_EEEvN9__gnu_cxx17__normal_iteratorIPS5_S7_EEDpOT_
0000000000000000 W _ZNSt6vectorIdSaIdEE17_M_realloc_insertIJRKdEEEvN9__gnu_cxx17__normal_iteratorIPdS1_EEDpOT_
0000000000000000 W _ZNSt6vectorIdSaIdEE17_M_realloc_insertIJdEEEvN9__gnu_cxx17__normal_iteratorIPdS1_EEDpOT_
                 U _ZNSt7__cxx1112basic_stringIcSt11char_traitsIcESaIcEE10_M_replaceEmmPKcm
                 U _ZNSt7__cxx1112basic_stringIcSt11char_traitsIcESaIcEE9_M_assignERKS4_
                 U _ZNSt7__cxx1112basic_stringIcSt11char_traitsIcESaIcEE9_M_createERmm
0000000000000000 W _ZNSt7__cxx1115basic_stringbufIcSt11char_traitsIcESaIcEED0Ev
0000000000000000 W _ZNSt7__cxx1115basic_stringbufIcSt11char_traitsIcESaIcEED1Ev
0000000000000000 W _ZNSt7__cxx1115basic_stringbufIcSt11char_traitsIcESaIcEED2Ev
                 U _ZNSt7__cxx1119basic_ostringstreamIcSt11char_traitsIcESaIcEED1Ev
                 U _ZNSt8ios_base4InitC1Ev
                 U _ZNSt8ios_base4InitD1Ev
                 U _ZNSt8ios_baseC2Ev
                 U _ZNSt8ios_baseD2Ev
                 U _ZNSt9basic_iosIcSt11char_traitsIcEE4initEPSt15basic_streambufIcS1_E
                 U _ZNSt9basic_iosIcSt11char_traitsIcEE5clearESt12_Ios_Iostate
                 U _ZSt16__ostream_insertIcSt11char_traitsIcEERSt13basic_ostreamIT_T0_ES6_PKS3_l
                 U _ZSt16__throw_bad_castv
                 U _ZSt20__throw_length_errorPKc
                 U _ZSt28__throw_bad_array_new_lengthv
                 U _ZSt4cerr
                 U _ZSt4cout
                 U _ZSt7getlineIcSt11char_traitsIcESaIcEERSt13basic_istreamIT_T0_ES7_RNSt7__cxx1112basic_stringIS4_S5_T1_EES4_
                 U _ZTTNSt7__cxx1119basic_ostringstreamIcSt11char_traitsIcESaIcEEE
                 U _ZTVNSt7__cxx1115basic_stringbufIcSt11char_traitsIcESaIcEEE
                 U _ZTVNSt7__cxx1119basic_ostringstreamIcSt11char_traitsIcESaIcEEE
                 U _ZTVSt15basic_streambufIcSt11char_traitsIcEE
                 U _ZTVSt9basic_iosIcSt11char_traitsIcEE
                 U _ZdaPv
                 U _ZdlPv
                 U _Znwm
                 U __cxa_atexit
                 U __cxa_begin_catch
                 U __cxa_end_catch
                 U __cxa_rethrow
                 U __dso_handle
                 U __gxx_personality_v0
                 U clock
                 U exit
                 U memcpy
                 U memmove

options.cpp.o:
0000000000000000 V DW.ref.__gxx_personality_v0
                 U _GLOBAL_OFFSET_TABLE_
                 U _Unwind_Resume
0000000000000000 T _Z10getOptionsiPPc
                 U _Z10myErrorMsgNSt7__cxx1112basic_stringIcSt11char_traitsIcESaIcEEEz
                 U _Z11checkRootedRP2Pr
0000000000000000 T _Z12getInputDateNSt7__cxx1112basic_stringIcSt11char_traitsIcESaIcEEERi
0000000000000000 T _Z12getInputRealNSt7__cxx1112basic_stringIcSt11char_traitsIcESaIcEEE
0000000000000000 T _Z12getInterfacev
0000000000000000 T _Z14getCommandLineiPPc
0000000000000000 T _Z14getInputStringNSt7__cxx1112basic_stringIcSt11char_traitsIcESaIcEEE
0000000000000000 T _Z14printInterfaceRSoP2Pr
0000000000000000 T _Z15getInputIntegerNSt7__cxx1112basic_stringIcSt11char_traitsIcESaIcEEE
0000000000000000 T _Z16getInputFileNameNSt7__cxx1112basic_stringIcSt11char_traitsIcESaIcEEE
0000000000000000 T _Z16isOptionActivateP2Prc
                 U _Z18readDateFromStringPKcRd
0000000000000000 T _Z19getOutgroupFileNameNSt7__cxx1112basic_stringIcSt11char_traitsIcESaIcEEE
0000000000000000 T _Z20getInputPositiveRealNSt7__cxx1112basic_stringIcSt11char_traitsIcESaIcEEE
0000000000000000 T _Z20setOptionsWithLetterP2Prc
0000000000000000 T _Z23getInputNonNegativeRealNSt7__cxx1112basic_stringIcSt11char_traitsIcESaIcEEE
0000000000000000 T _Z23getPositiveInputIntegerNSt7__cxx1112basic_stringIcSt11char_traitsIcESaIcEEE
0000000000000000 T _Z26getInputNonNegativeRealOrENSt7__cxx1112basic_stringIcSt11char_traitsIcESaIcEEE
                 U _Z6isRealPKc
                 U _Z6myExitNSt7__cxx1112basic_stringIcSt11char_traitsIcESaIcEEEz
                 U _Z9isIntegerPKc
0000000000000000 T _Z9printHelpv
0000000000000000 W _ZN2PrC1Ev
0000000000000000 W _ZN2PrC2Ev
                 U _ZNKSt5ctypeIcE13_M_widen_initEv
0000000000000000 W _ZNKSt5ctypeIcE8do_widenEc
                 U _ZNKSt7__cxx1112basic_stringIcSt11char_traitsIcESaIcEE7compareEPKc
                 U _ZNSo3putEc
                 U _ZNSo5flushEv
                 U _ZNSo9_M_insertIdEERSoT_
                 U _ZNSolsEi
                 U _ZNSt6localeC1Ev
                 U _ZNSt6localeD1Ev
0000000000000000 W _ZNSt6vectorINSt7__cxx1112basic_stringIcSt11char_traitsIcESaIcEEESaIS5_EE17_M_realloc_insertIJS5_EEEvN9__gnu_cxx17__normal_iteratorIPS5_S7_EEDpOT_
0000000000000000 W _ZNSt6vectorINSt7__cxx1112basic_stringIcSt11char_traitsIcESaIcEEESaIS5_EED1Ev
0000000000000000 W _ZNSt6vectorINSt7__cxx1112basic_stringIcSt11char_traitsIcESaIcEEESaIS5_EED2Ev
                 U _ZNSt7__cxx1112basic_stringIcSt11char_traitsIcESaIcEE10_M_replaceEmmPKcm
                 U _ZNSt7__cxx1112basic_stringIcSt11char_traitsIcESaIcEE9_M_appendEPKcm
                 U _ZNSt7__cxx1112basic_stringIcSt11char_traitsIcESaIcEE9_M_assignERKS4_
                 U _ZNSt7__cxx1112basic_stringIcSt11char_traitsIcESaIcEE9_M_createERmm
                 U _ZNSt7__cxx1119basic_ostringstreamIcSt11char_traitsIcESaIcEED1Ev
                 U _ZNSt8ios_base4InitC1Ev
                 U _ZNSt8ios_base4InitD1Ev
                 U _ZNSt8ios_baseC2Ev
                 U _ZNSt8ios_baseD2Ev
                 U _ZNSt9basic_iosIcSt11char_traitsIcEE4initEPSt15basic_streambufIcS1_E
                 U _ZNSt9basic_iosIcSt11char_traitsIcEE5clearESt12_Ios_Iostate
                 U _ZSt16__ostream_insertIcSt11char_traitsIcEERSt13basic_ostreamIT_T0_ES6_PKS3_l
                 U _ZSt16__throw_bad_castv
                 U _ZSt20__throw_length_errorPKc
                 U _ZSt3cin
                 U _ZSt4cout
                 U _ZStlsISt11char_traitsIcEERSt13basic_ostreamIcT_ES5_PKc
                 U _ZStrsIcSt11char_traitsIcESaIcEERSt13basic_istreamIT_T0_ES7_RNSt7__cxx1112basic_stringIS4_S5_T1_EE
                 U _ZTTNSt7__cxx1119basic_ostringstreamIcSt11char_traitsIcESaIcEEE
                 U _ZTVNSt7__cxx1115basic_stringbufIcSt11char_traitsIcESaIcEEE
                 U _ZTVNSt7__cxx1119basic_ostringstreamIcSt11char_traitsIcESaIcEEE
                 U _ZTVSt15basic_streambufIcSt11char_traitsIcEE
                 U _ZTVSt9basic_iosIcSt11char_traitsIcEE
                 U _ZdlPv
                 U _Znwm
                 U __cxa_atexit
                 U __dso_handle
                 U __gxx_personality_v0
                 U access
                 U exit
                 U fgets
                 U getopt
                 U memcpy
                 U memmove
                 U optarg
                 U optopt
                 U stdin
                 U strlen
                 U strtod
                 U strtol

outliers.cpp.o:
0000000000000000 V DW.ref.__gxx_personality_v0
                 U _GLOBAL_OFFSET_TABLE_
                 U _Unwind_Resume
                 U _Z11cloneLeavesP2PrPP4Nodei
0000000000000000 T _Z11median_rateP2PrPP4NodeSt6vectorIdSaIdEEPS4_IiSaIiEEbRd
0000000000000000 T _Z11median_rateP2PrPP4NodeSt6vectorIdSaIdEES6_PS4_IiSaIiEEbRdSA_
0000000000000000 T _Z11residus_lsdP2PrPP4NodeRdS4_
0000000000000000 T _Z13shift_node_idRP2PrRPP4NodeRPi
                 U _Z14initConstraintP2PrPP4Node
0000000000000000 T _Z14remove_one_tipP2PrPP4NodeiRPi
0000000000000000 T _Z14sampleNoRepeatSt6vectorIiSaIiEEii
                 U _Z15computeVarianceP2PrPP4Node
0000000000000000 T _Z15outliers_rootedP2PrPP4NodePSt6vectorIiSaIiEES4_IdSaIdEES9_bbRdRb
0000000000000000 T _Z15residus_lsd_rttP2PrPP4NodeRdS4_
0000000000000000 T _Z17calculateOutliersRP2PrRPP4NodeRdb
0000000000000000 T _Z17outliers_unrootedRP2PrRPP4NodeRd
                 U _Z17reroot_rootedtreeRdiiiP2PrPP4NodeRS4_
                 U _Z19computeSuc_polytomyP2PrPP4Node
0000000000000000 T _Z20remove_outlier_nodesRP2PrRPP4Node
0000000000000000 T _Z23calculateRoot2DatedNodeP2PrPP4NodeRSt6vectorIdSaIdEE
0000000000000000 T _Z23calculateRoot2DatedNodeP2PrPP4NodeRSt6vectorIdSaIdEES7_
0000000000000000 T _Z23calculateRoot2DatedNodeP2PrPP4NodeRSt6vectorIdSaIdEES7_S7_
                 U _Z29without_constraint_multiratesP2PrPP4Nodeb
                 U _Z4isIniSt6vectorIiSaIiEE
                 U _Z6medianSt6vectorIdSaIdEE
                 U _Z9intersectSt6vectorIiSaIiEES1_
0000000000000000 W _ZN2Pr4copyEPS_
                 U _ZNKSt5ctypeIcE13_M_widen_initEv
0000000000000000 W _ZNKSt5ctypeIcE8do_widenEc
                 U _ZNKSt7__cxx1112basic_stringIcSt11char_traitsIcESaIcEE7compareEPKc
                 U _ZNKSt7__cxx1115basic_stringbufIcSt11char_traitsIcESaIcEE3strEv
                 U _ZNSo3putEc
                 U _ZNSo5flushEv
                 U _ZNSo9_M_insertIdEERSoT_
                 U _ZNSo9_M_insertImEERSoT_
0000000000000000 W _ZNSt12_Destroy_auxILb0EE9__destroyIPNSt7__cxx1112basic_stringIcSt11char_traitsIcESaIcEEEEEvT_S9_
                 U _ZNSt6localeC1Ev
                 U _ZNSt6localeD1Ev
0000000000000000 W _ZNSt6vectorINSt7__cxx1112basic_stringIcSt11char_traitsIcESaIcEEESaIS5_EE12emplace_backIJS5_EEEvDpOT_
0000000000000000 W _ZNSt6vectorINSt7__cxx1112basic_stringIcSt11char_traitsIcESaIcEEESaIS5_EE17_M_realloc_insertIJS5_EEEvN9__gnu_cxx17__normal_iteratorIPS5_S7_EEDpOT_
0000000000000000 W _ZNSt6vectorIP4DateSaIS1_EE17_M_realloc_insertIJRKS1_EEEvN9__gnu_cxx17__normal_iteratorIPS1_S3_EEDpOT_
0000000000000000 W _ZNSt6vectorIdSaIdEE17_M_realloc_insertIJRKdEEEvN9__gnu_cxx17__normal_iteratorIPdS1_EEDpOT_
0000000000000000 W _ZNSt6vectorIdSaIdEE17_M_realloc_insertIJdEEEvN9__gnu_cxx17__normal_iteratorIPdS1_EEDpOT_
0000000000000000 W _ZNSt6vectorIiSaIiEE17_M_realloc_insertIJRKiEEEvN9__gnu_cxx17__normal_iteratorIPiS1_EEDpOT_
0000000000000000 W _ZNSt6vectorIiSaIiEE17_M_realloc_insertIJiEEEvN9__gnu_cxx17__normal_iteratorIPiS1_EEDpOT_
0000000000000000 W _ZNSt6vectorIiSaIiEE8_M_eraseEN9__gnu_cxx17__normal_iteratorIPiS1_EE
                 U _ZNSt7__cxx1112basic_stringIcSt11char_traitsIcESaIcEE10_M_replaceEmmPKcm
                 U _ZNSt7__cxx1112basic_stringIcSt11char_traitsIcESaIcEE9_M_assignERKS4_
                 U _ZNSt7__cxx1112basic_stringIcSt11char_traitsIcESaIcEE9_M_createERmm
0000000000000000 W _ZNSt7__cxx1115basic_stringbufIcSt11char_traitsIcESaIcEED0Ev
0000000000000000 W _ZNSt7__cxx1115basic_stringbufIcSt11char_traitsIcESaIcEED1Ev
0000000000000000 W _ZNSt7__cxx1115basic_stringbufIcSt11char_traitsIcESaIcEED2Ev
                 U _ZNSt7__cxx1119basic_ostringstreamIcSt11char_traitsIcESaIcEEC1Ev
                 U _ZNSt7__cxx1119basic_ostringstreamIcSt11char_traitsIcESaIcEED1Ev
                 U _ZNSt8ios_base4InitC1Ev
                 U _ZNSt8ios_base4InitD1Ev
                 U _ZNSt8ios_baseC2Ev
                 U _ZNSt8ios_baseD2Ev
                 U _ZNSt9basic_iosIcSt11char_traitsIcEE4initEPSt15basic_streambufIcS1_E
                 U _ZNSt9basic_iosIcSt11char_traitsIcEE5clearESt12_Ios_Iostate
                 U _ZSt16__ostream_insertIcSt11char_traitsIcEERSt13basic_ostreamIT_T0_ES6_PKS3_l
                 U _ZSt16__throw_bad_castv
                 U _ZSt17__throw_bad_allocv
                 U _ZSt20__throw_length_errorPKc
                 U _ZSt28__throw_bad_array_new_lengthv
                 U _ZSt4cout
                 U _ZTTNSt7__cxx1119basic_ostringstreamIcSt11char_traitsIcESaIcEEE
                 U _ZTVNSt7__cxx1115basic_stringbufIcSt11char_traitsIcESaIcEEE
                 U _ZTVNSt7__cxx1119basic_ostringstreamIcSt11char_traitsIcESaIcEEE
                 U _ZTVSt15basic_streambufIcSt11char_traitsIcEE
                 U _ZTVSt9basic_iosIcSt11char_traitsIcEE
                 U _ZdaPv
                 U _ZdlPv
                 U _Znam
                 U _Znwm
                 U __cxa_atexit
                 U __cxa_begin_catch
                 U __cxa_end_catch
                 U __cxa_rethrow
                 U __cxa_throw_bad_array_new_length
                 U __dso_handle
                 U __gxx_personality_v0
                 U memcpy
                 U memmove
                 U rand
                 U sqrt
                 U strlen

readData.cpp.o:
0000000000000000 V DW.ref.__gxx_personality_v0
                 U _GLOBAL_OFFSET_TABLE_
                 U _Unwind_Resume
                 U _Z10isAncestorPP4Nodeii
                 U _Z10readDoubleNSt7__cxx1112basic_stringIcSt11char_traitsIcESaIcEEERi
                 U _Z10readdoubleRSiNSt7__cxx1112basic_stringIcSt11char_traitsIcESaIcEEE
                 U _Z11cloneLeavesP2PrPP4Nodei
                 U _Z11getOutgroupRSiNSt7__cxx1112basic_stringIcSt11char_traitsIcESaIcEEE
                 U _Z11getPositionPP4NodeNSt7__cxx1112basic_stringIcSt11char_traitsIcESaIcEEEii
                 U _Z11readBracketRSiNSt7__cxx1112basic_stringIcSt11char_traitsIcESaIcEEE
                 U _Z11readSupportRSiNSt7__cxx1112basic_stringIcSt11char_traitsIcESaIcEEE
0000000000000000 T _Z12getBranchOutP2PrPP4NodeRNSt7__cxx114listINS4_12basic_stringIcSt11char_traitsIcESaIcEEESaISA_EEERb
                 U _Z13getLineNumberRSi
                 U _Z13lastCharacterNSt7__cxx1112basic_stringIcSt11char_traitsIcESaIcEEEi
0000000000000000 T _Z13readInputDatePN3lsd17InputOutputStreamEP2PrRPP4NodeRb
                 U _Z13readWholeDateRSiP2PrRiRdS3_S3_S3_S3_S3_S2_
                 U _Z14adjustDateToYMRP4Dateiiii
                 U _Z14firstCharacterNSt7__cxx1112basic_stringIcSt11char_traitsIcESaIcEEEi
                 U _Z15adjustDateToYMDRP4Dateiiii
0000000000000000 T _Z16extrait_outgroupPN3lsd17InputOutputStreamEP2Prb
                 U _Z16readCommaBracketRSiNSt7__cxx1112basic_stringIcSt11char_traitsIcESaIcEEERS5_
                 U _Z16unrooted2rootedSRP2PrPP4Nodei
0000000000000000 T _Z17readPartitionFileRSiP2Pr
                 U _Z17reroot_rootedtreeiP2PrPP4NodeRS3_
                 U _Z18adjustNodeDateToYMRP4Nodeiiii
                 U _Z19adjustNodeDateToYMDRP4Nodeiiii
                 U _Z19computeSuc_polytomyP2PrPP4Node
                 U _Z4mrcaPP4NodeSt6vectorIiSaIiEE
0000000000000000 T _Z4pathB5cxx11P2PrPP4Nodeii
                 U _Z6concatRNSt7__cxx114listIiSaIiEEESt5stackIiSt5dequeIiS1_EE
                 U _Z6myExitNSt7__cxx1112basic_stringIcSt11char_traitsIcESaIcEEEz
                 U _Z6newickB5cxx11iiP2PrPP4NodeRi
                 U _Z7containiSt6vectorIiSaIiEE
                 U _Z7readIntRSiNSt7__cxx1112basic_stringIcSt11char_traitsIcESaIcEEE
                 U _Z8readCharRSiNSt7__cxx1112basic_stringIcSt11char_traitsIcESaIcEEE
                 U _Z8readWordNSt7__cxx1112basic_stringIcSt11char_traitsIcESaIcEEERi
                 U _Z8readWordRSiNSt7__cxx1112basic_stringIcSt11char_traitsIcESaIcEEE
                 U _Z9intersectNSt7__cxx114listIiSaIiEEES2_
                 U _Z9readLabelB5cxx11cRSiRi
0000000000000000 T _Z9tree2dataRSiP2PrRi
0000000000000000 W _ZN4Node13addConstraintEP4Date
                 U _ZNKSt5ctypeIcE13_M_widen_initEv
0000000000000000 W _ZNKSt5ctypeIcE8do_widenEc
                 U _ZNKSt7__cxx1112basic_stringIcSt11char_traitsIcESaIcEE13find_first_ofEPKcmm
                 U _ZNKSt7__cxx1112basic_stringIcSt11char_traitsIcESaIcEE7compareEPKc
                 U _ZNSi5seekgESt4fposI11__mbstate_tE
                 U _ZNSo3putEc
                 U _ZNSo5flushEv
                 U _ZNSolsEi
0000000000000000 W _ZNSt11_Deque_baseIiSaIiEE17_M_initialize_mapEm
0000000000000000 W _ZNSt11_Deque_baseIiSaIiEED1Ev
0000000000000000 W _ZNSt11_Deque_baseIiSaIiEED2Ev
0000000000000000 W _ZNSt5dequeIiSaIiEE12emplace_backIJiEEEvDpOT_
0000000000000000 W _ZNSt5dequeIiSaIiEE16_M_push_back_auxIJRKiEEEvDpOT_
0000000000000000 W _ZNSt5dequeIiSaIiEE17_M_reallocate_mapEmb
                 U _ZNSt6localeC1Ev
                 U _ZNSt6localeD1Ev
0000000000000000 W _ZNSt6vectorINSt7__cxx1112basic_stringIcSt11char_traitsIcESaIcEEESaIS5_EE12emplace_backIJS5_EEEvDpOT_
0000000000000000 W _ZNSt6vectorINSt7__cxx1112basic_stringIcSt11char_traitsIcESaIcEEESaIS5_EE17_M_realloc_insertIJS5_EEEvN9__gnu_cxx17__normal_iteratorIPS5_S7_EEDpOT_
0000000000000000 W _ZNSt6vectorIP4DateSaIS1_EE17_M_realloc_insertIJRKS1_EEEvN9__gnu_cxx17__normal_iteratorIPS1_S3_EEDpOT_
0000000000000000 W _ZNSt6vectorIP4NodeSaIS1_EE17_M_realloc_insertIJRKS1_EEEvN9__gnu_cxx17__normal_iteratorIPS1_S3_EEDpOT_
0000000000000000 W _ZNSt6vectorIP4NodeSaIS1_EE17_M_realloc_insertIJS1_EEEvN9__gnu_cxx17__normal_iteratorIPS1_S3_EEDpOT_
0000000000000000 W _ZNSt6vectorIP4PairSaIS1_EE17_M_realloc_insertIJRKS1_EEEvN9__gnu_cxx17__normal_iteratorIPS1_S3_EEDpOT_
0000000000000000 W _ZNSt6vectorIP4PartSaIS1_EE17_M_realloc_insertIJRKS1_EEEvN9__gnu_cxx17__normal_iteratorIPS1_S3_EEDpOT_
0000000000000000 W _ZNSt6vectorIP7SubtreeSaIS1_EE17_M_realloc_insertIJRKS1_EEEvN9__gnu_cxx17__normal_iteratorIPS1_S3_EEDpOT_
0000000000000000 W _ZNSt6vectorIdSaIdEE17_M_realloc_insertIJRKdEEEvN9__gnu_cxx17__normal_iteratorIPdS1_EEDpOT_
0000000000000000 W _ZNSt6vectorIdSaIdEE17_M_realloc_insertIJdEEEvN9__gnu_cxx17__normal_iteratorIPdS1_EEDpOT_
0000000000000000 W _ZNSt6vectorIiSaIiEE17_M_realloc_insertIJRKiEEEvN9__gnu_cxx17__normal_iteratorIPiS1_EEDpOT_
0000000000000000 W _ZNSt7__cxx1110_List_baseIiSaIiEE8_M_clearEv
                 U _ZNSt7__cxx1112basic_stringIcSt11char_traitsIcESaIcEE10_M_replaceEmmPKcm
                 U _ZNSt7__cxx1112basic_stringIcSt11char_traitsIcESaIcEE7reserveEm
                 U _ZNSt7__cxx1112basic_stringIcSt11char_traitsIcESaIcEE9_M_appendEPKcm
                 U _ZNSt7__cxx1112basic_stringIcSt11char_traitsIcESaIcEE9_M_assignERKS4_
                 U _ZNSt7__cxx1112basic_stringIcSt11char_traitsIcESaIcEE9_M_createERmm
                 U _ZNSt7__cxx1115basic_stringbufIcSt11char_traitsIcESaIcEE7_M_syncEPcmm
0000000000000000 W _ZNSt7__cxx1115basic_stringbufIcSt11char_traitsIcESaIcEED0Ev
0000000000000000 W _ZNSt7__cxx1115basic_stringbufIcSt11char_traitsIcESaIcEED1Ev
0000000000000000 W _ZNSt7__cxx1115basic_stringbufIcSt11char_traitsIcESaIcEED2Ev
                 U _ZNSt7__cxx1119basic_ostringstreamIcSt11char_traitsIcESaIcEED1Ev
                 U _ZNSt8__detail15_List_node_base7_M_hookEPS0_
                 U _ZNSt8ios_base4InitC1Ev
                 U _ZNSt8ios_base4InitD1Ev
                 U _ZNSt8ios_baseC2Ev
                 U _ZNSt8ios_baseD2Ev
                 U _ZNSt9basic_iosIcSt11char_traitsIcEE4initEPSt15basic_streambufIcS1_E
                 U _ZNSt9basic_iosIcSt11char_traitsIcEE5clearESt12_Ios_Iostate
0000000000000000 W _ZSt14__copy_move_a1ILb0EPiiEN9__gnu_cxx11__enable_ifIXsrSt23__is_random_access_iterIT0_NSt15iterator_traitsIS4_E17iterator_categoryEE7__valueESt15_Deque_iteratorIT1_RSA_PSA_EE6__typeES4_S4_SD_
                 U _ZSt16__ostream_insertIcSt11char_traitsIcEERSt13basic_ostreamIT_T0_ES6_PKS3_l
                 U _ZSt16__throw_bad_castv
                 U _ZSt17__throw_bad_allocv
0000000000000000 W _ZSt18uninitialized_copyISt15_Deque_iteratorIiRKiPS1_ES0_IiRiPiEET0_T_S9_S8_
                 U _ZSt19__throw_logic_errorPKc
                 U _ZSt20__throw_length_errorPKc
                 U _ZSt24__throw_out_of_range_fmtPKcz
                 U _ZSt28__throw_bad_array_new_lengthv
                 U _ZSt4cerr
                 U _ZSt4cout
                 U _ZSt7getlineIcSt11char_traitsIcESaIcEERSt13basic_istreamIT_T0_ES7_RNSt7__cxx1112basic_stringIS4_S5_T1_EES4_
                 U _ZStlsISt11char_traitsIcEERSt13basic_ostreamIcT_ES5_PKc
0000000000000000 W _ZStplIcSt11char_traitsIcESaIcEENSt7__cxx1112basic_stringIT_T0_T1_EEPKS5_RKS8_
                 U _ZTTNSt7__cxx1119basic_istringstreamIcSt11char_traitsIcESaIcEEE
                 U _ZTTNSt7__cxx1119basic_ostringstreamIcSt11char_traitsIcESaIcEEE
                 U _ZTVNSt7__cxx1115basic_stringbufIcSt11char_traitsIcESaIcEEE
                 U _ZTVNSt7__cxx1119basic_istringstreamIcSt11char_traitsIcESaIcEEE
                 U _ZTVNSt7__cxx1119basic_ostringstreamIcSt11char_traitsIcESaIcEEE
                 U _ZTVSt15basic_streambufIcSt11char_traitsIcEE
                 U _ZTVSt9basic_iosIcSt11char_traitsIcEE
                 U _ZdaPv
                 U _ZdlPv
                 U _Znam
                 U _Znwm
                 U __cxa_atexit
                 U __cxa_begin_catch
                 U __cxa_end_catch
                 U __cxa_rethrow
                 U __cxa_throw_bad_array_new_length
                 U __dso_handle
                 U __gxx_personality_v0
                 U exit
                 U memcpy
                 U memmove
                 U memset
                 U strlen

utils.cpp.o:
0000000000000000 V DW.ref._ZTISt16invalid_argument
0000000000000000 V DW.ref.__gxx_personality_v0
                 U _GLOBAL_OFFSET_TABLE_
                 U _Unwind_Resume
0000000000000000 T _Z10computeSucRPiS0_S0_ii
0000000000000000 T _Z10isAncestorPP4Nodeii
0000000000000000 T _Z10myErrorMsgNSt7__cxx1112basic_stringIcSt11char_traitsIcESaIcEEEz
0000000000000000 T _Z10readDoubleNSt7__cxx1112basic_stringIcSt11char_traitsIcESaIcEEERi
0000000000000000 T _Z10readdoubleRSiNSt7__cxx1112basic_stringIcSt11char_traitsIcESaIcEEE
0000000000000000 T _Z11activeLowerP4Node
0000000000000000 T _Z11activeUpperP4Node
0000000000000000 T _Z11checkRootedRP2Pr
0000000000000000 T _Z11cloneLeavesP2PrPP4Nodei
0000000000000000 T _Z11desactiveTCP4Node
0000000000000000 T _Z11getOutgroupRSiNSt7__cxx1112basic_stringIcSt11char_traitsIcESaIcEEE
0000000000000000 T _Z11getPositionPP4NodeNSt7__cxx1112basic_stringIcSt11char_traitsIcESaIcEEEii
0000000000000000 T _Z11monthToReali
0000000000000000 T _Z11newvarianceidPiPdii
0000000000000000 T _Z11nexusICDateB5cxx11iP2PrPP4NodePdS4_S4_S4_
0000000000000000 T _Z11readBracketRSiNSt7__cxx1112basic_stringIcSt11char_traitsIcESaIcEEE
0000000000000000 T _Z11readSupportRSiNSt7__cxx1112basic_stringIcSt11char_traitsIcESaIcEEE
0000000000000000 T _Z12collapseTreeP2PrPP4NodeS3_RPidRb
0000000000000000 T _Z12getActiveSetB5cxx11P2PrPP4Node
0000000000000000 T _Z12pos_polytomyB5cxx11iP2PrPP4Node
0000000000000000 T _Z12pre_polytomyiP2PrPP4Node
0000000000000000 T _Z12suc_polytomyiiP2PrPP4NodeRPiRPdRNSt7__cxx114listIiSaIiEEE
0000000000000000 T _Z13checkTopologyP2PrPP4NodeS3_
0000000000000000 T _Z13down_polytomyB5cxx11iP2PrPP4Node
0000000000000000 T _Z13getLineNumberRSi
0000000000000000 T _Z13lastCharacterNSt7__cxx1112basic_stringIcSt11char_traitsIcESaIcEEEi
0000000000000000 T _Z13readWholeDateRSiP2PrRiRdS3_S3_S3_S3_S3_S2_
0000000000000000 T _Z14activeMarkLeafP4Node
0000000000000000 T _Z14adjustDateToYMRP4Dateiiii
0000000000000000 T _Z14desactiveLimitP4Node
0000000000000000 T _Z14firstCharacterNSt7__cxx1112basic_stringIcSt11char_traitsIcESaIcEEEi
0000000000000000 T _Z14initConstraintP2PrPP4Node
0000000000000000 T _Z14monthDayToRealii
0000000000000000 T _Z15adjustDateToYMDRP4Dateiiii
0000000000000000 T _Z15assignRecursiveiPP4Nodei
0000000000000000 T _Z15computeVarianceP2PrPP4Node
0000000000000000 T _Z15realToYearMonthB5cxx11d
0000000000000000 T _Z15rooted2unrootedRP2PrPP4Node
0000000000000000 T _Z15unrooted2rootedRP2PrPP4Node
0000000000000000 T _Z16computeObjectiveP2PrPP4Node
0000000000000000 T _Z16readCommaBracketRSiNSt7__cxx1112basic_stringIcSt11char_traitsIcESaIcEEERS5_
0000000000000000 T _Z16unrooted2rootedSRP2PrPP4Nodei
0000000000000000 T _Z17desactiveMarkLeafP4Node
0000000000000000 T _Z17getInternalNodeIdP2PrPP4NodeNSt7__cxx1112basic_stringIcSt11char_traitsIcESaIcEEE
0000000000000000 T _Z17initialize_statusRP2PrRPP4Node
0000000000000000 T _Z17preorder_polytomyP2PrPP4Node
0000000000000000 T _Z17reroot_rootedtreeRdiP2PrPP4Node
0000000000000000 T _Z17reroot_rootedtreeRdiiiP2PrPP4NodeRS4_
0000000000000000 T _Z17reroot_rootedtreeRdiiiP2PrPP4NodeRS4_RPiS7_
0000000000000000 T _Z17reroot_rootedtreeiP2PrPP4NodeRS3_
0000000000000000 T _Z17splitLongBranchesP2PrPP4Noded
0000000000000000 T _Z18adjustNodeDateToYMRP4Nodeiiii
0000000000000000 T _Z18cloneInternalNodesP2PrPP4NodeRS3_i
0000000000000000 T _Z18computeNewVarianceP2PrPP4Node
0000000000000000 T _Z18postorder_polytomyB5cxx11P2PrPP4Node
0000000000000000 T _Z18readDateFromStringPKcRd
0000000000000000 T _Z18realToYearMonthDayB5cxx11d
0000000000000000 T _Z19adjustNodeDateToYMDRP4Nodeiiii
0000000000000000 T _Z19collapseTreeReOrderP2PrPP4NodeS0_S3_RPi
0000000000000000 T _Z19computeSuc_polytomyP2PrPP4Node
0000000000000000 T _Z19reduceTree_polytomyP2PrPP4NodeRPiRPNSt7__cxx114listIiSaIiEEERPdSB_
0000000000000000 T _Z19starting_pointLowerP2PrPP4NodeRNSt7__cxx114listIiSaIiEEE
0000000000000000 T _Z19starting_pointUpperP2PrPP4NodeRNSt7__cxx114listIiSaIiEEE
0000000000000000 T _Z21assignRateGroupToTreeP2PrPP4Node
0000000000000000 T _Z21calculate_tree_heightP2PrRPP4Node
0000000000000000 T _Z21median_branch_lengthsP2PrPP4Node
0000000000000000 T _Z21pre_polytomy_withTipsiP2PrPP4Node
0000000000000000 T _Z21read_double_from_lineNSt7__cxx1112basic_stringIcSt11char_traitsIcESaIcEEE
0000000000000000 T _Z21splitExternalBranchesP2PrPP4Node
0000000000000000 T _Z22initConstraintReRootedP2PrPP4Nodeii
0000000000000000 T _Z24assignRateGroupToSubTreeP7SubtreeP2PrPP4Nodei
0000000000000000 T _Z24computeFeuilles_polytomyNSt7__cxx114listIiSaIiEEEP2PrPP4Node
0000000000000000 T _Z26computeObjectiveMultiRatesP2PrPP4Node
0000000000000000 T _Z26computeObjectiveMultiRatesP2PrPP4NodePdS4_
0000000000000000 T _Z26preorder_polytomy_withTipsP2PrPP4Node
0000000000000000 T _Z27computeVarianceEstimateRootP2PrPP4Noded
0000000000000000 T _Z28checkAllConstraintConsistentP2PrPP4Node
0000000000000000 T _Z28computeObjectiveEstimateRootiidP2PrPP4Node
0000000000000000 T _Z29collapseUnInformativeBranchesRP2PrRPP4Nodeb
0000000000000000 T _Z2tcP4Node
0000000000000000 T _Z30computeNewVarianceEstimateRootP2PrPP4Node
0000000000000000 T _Z3rttP2PrPP4Node
0000000000000000 T _Z4isIniSt6vectorIiSaIiEE
0000000000000000 T _Z4leafP4Node
0000000000000000 T _Z4mrcaPP4NodeNSt7__cxx114listIiSaIiEEE
0000000000000000 T _Z4mrcaPP4NodeSt6vectorIiSaIiEE
0000000000000000 T _Z4mrcaPP4Nodeii
0000000000000000 T _Z4sortRPdi
0000000000000000 T _Z4sortRPii
0000000000000000 T _Z5indexNSt7__cxx1112basic_stringIcSt11char_traitsIcESaIcEEERPS4_i
0000000000000000 T _Z5indexRNSt7__cxx114listIiSaIiEEEi
0000000000000000 T _Z5indexRPiii
0000000000000000 T _Z5limitP4Node
0000000000000000 T _Z5lowerP4Node
0000000000000000 T _Z5nexusB5cxx11iP2PrPP4Node
0000000000000000 T _Z5upperP4Node
0000000000000000 T _Z6concatRNSt7__cxx114listIiSaIiEEES2_
0000000000000000 T _Z6concatRNSt7__cxx114listIiSaIiEEESt5stackIiSt5dequeIiS1_EE
0000000000000000 T _Z6concatRSt5stackIiSt5dequeIiSaIiEEENSt7__cxx114listIiS1_EE
0000000000000000 T _Z6isRealPKc
0000000000000000 T _Z6medianSt6vectorIdSaIdEE
0000000000000000 T _Z6myExitNSt7__cxx1112basic_stringIcSt11char_traitsIcESaIcEEEz
0000000000000000 T _Z6newickB5cxx11iiP2PrPP4NodeRi
0000000000000000 T _Z6read2PSiNSt7__cxx1112basic_stringIcSt11char_traitsIcESaIcEEE
0000000000000000 T _Z7containNSt7__cxx1112basic_stringIcSt11char_traitsIcESaIcEEENS_4listIS4_SaIS4_EEE
0000000000000000 T _Z7containiNSt7__cxx114listIiSaIiEEE
0000000000000000 T _Z7containiSt6vectorIiSaIiEE
0000000000000000 T _Z7maxDatei
0000000000000000 T _Z7nexusICB5cxx11iP2PrPP4NodePdS4_S4_S4_
0000000000000000 T _Z7readIntRSiNSt7__cxx1112basic_stringIcSt11char_traitsIcESaIcEEE
0000000000000000 T _Z7sortTabPdi
0000000000000000 T _Z8activeTCP4Node
0000000000000000 T _Z8collapseiiP2PrPP4NodeS3_RiRPidbPd
0000000000000000 T _Z8markLeafP4Node
0000000000000000 T _Z8readCharRSiNSt7__cxx1112basic_stringIcSt11char_traitsIcESaIcEEE
0000000000000000 T _Z8readDateRSiNSt7__cxx1112basic_stringIcSt11char_traitsIcESaIcEEEP2PrRdS8_
0000000000000000 T _Z8readWordNSt7__cxx1112basic_stringIcSt11char_traitsIcESaIcEEERi
0000000000000000 T _Z8readWordRSiNSt7__cxx1112basic_stringIcSt11char_traitsIcESaIcEEE
0000000000000000 T _Z8varianceP2Prd
0000000000000000 T _Z8varianceiiPdii
0000000000000000 T _Z9concatPosNSt7__cxx114listIiSaIiEEERS2_
0000000000000000 T _Z9desactiveP4Node
0000000000000000 T _Z9intersectNSt7__cxx114listIiSaIiEEES2_
0000000000000000 T _Z9intersectSt6vectorIiSaIiEES1_
0000000000000000 T _Z9isIntegerPKc
0000000000000000 T _Z9nexusDateB5cxx11iP2PrPP4Node
0000000000000000 T _Z9readDate1RSiNSt7__cxx1112basic_stringIcSt11char_traitsIcESaIcEEEcP2PrRdS8_
0000000000000000 T _Z9readLabelB5cxx11cRSiRi
0000000000000000 T _ZN15InputOutputFile16setBootstrapTreeENSt7__cxx1112basic_stringIcSt11char_traitsIcESaIcEEE
0000000000000000 T _ZN15InputOutputFile7setTreeENSt7__cxx1112basic_stringIcSt11char_traitsIcESaIcEEE
0000000000000000 T _ZN15InputOutputFileC1EP2Pr
0000000000000000 T _ZN15InputOutputFileC2EP2Pr
0000000000000000 T _ZN15InputOutputFileD0Ev
0000000000000000 T _ZN15InputOutputFileD1Ev
0000000000000000 T _ZN15InputOutputFileD2Ev
0000000000000000 W _ZN2Pr4copyEPS_
0000000000000000 T _ZN3lsd17InputOutputStream11setOutgroupENSt7__cxx1112basic_stringIcSt11char_traitsIcESaIcEEE
0000000000000000 T _ZN3lsd17InputOutputStream12setPartitionENSt7__cxx1112basic_stringIcSt11char_traitsIcESaIcEEE
0000000000000000 T _ZN3lsd17InputOutputStream16setBootstrapTreeENSt7__cxx1112basic_stringIcSt11char_traitsIcESaIcEEE
0000000000000000 T _ZN3lsd17InputOutputStream7setDateENSt7__cxx1112basic_stringIcSt11char_traitsIcESaIcEEE
0000000000000000 T _ZN3lsd17InputOutputStream7setRateENSt7__cxx1112basic_stringIcSt11char_traitsIcESaIcEEE
0000000000000000 T _ZN3lsd17InputOutputStream7setTreeENSt7__cxx1112basic_stringIcSt11char_traitsIcESaIcEEE
0000000000000000 T _ZN3lsd17InputOutputStreamC1ENSt7__cxx1112basic_stringIcSt11char_traitsIcESaIcEEES6_S6_S6_S6_S6_
0000000000000000 T _ZN3lsd17InputOutputStreamC1Ev
0000000000000000 T _ZN3lsd17InputOutputStreamC2ENSt7__cxx1112basic_stringIcSt11char_traitsIcESaIcEEES6_S6_S6_S6_S6_
0000000000000000 T _ZN3lsd17InputOutputStreamC2Ev
0000000000000000 T _ZN3lsd17InputOutputStreamD0Ev
0000000000000000 T _ZN3lsd17InputOutputStreamD1Ev
0000000000000000 T _ZN3lsd17InputOutputStreamD2Ev
0000000000000000 W _ZN4Node13addConstraintEP4Date
0000000000000000 W _ZN9__gnu_cxx6__stoaIddcJEEET0_PFT_PKT1_PPS3_DpT2_EPKcS5_PmS9_
                 U _ZNKSt12__basic_fileIcE7is_openEv
                 U _ZNKSt5ctypeIcE13_M_widen_initEv
0000000000000000 W _ZNKSt5ctypeIcE8do_widenEc
                 U _ZNKSt7__cxx1112basic_stringIcSt11char_traitsIcESaIcEE13find_first_ofEPKcmm
                 U _ZNKSt7__cxx1112basic_stringIcSt11char_traitsIcESaIcEE7compareEPKc
                 U _ZNKSt7__cxx1115basic_stringbufIcSt11char_traitsIcESaIcEE3strEv
                 U _ZNSdD2Ev
                 U _ZNSi10_M_extractIdEERSiRT_
                 U _ZNSi3getERc
                 U _ZNSi5seekgESt4fposI11__mbstate_tE
                 U _ZNSi5tellgEv
                 U _ZNSi5ungetEv
                 U _ZNSirsERi
                 U _ZNSo3putEc
                 U _ZNSo5flushEv
                 U _ZNSo9_M_insertIdEERSoT_
                 U _ZNSolsEi
0000000000000000 W _ZNSt11_Deque_baseIiSaIiEE17_M_initialize_mapEm
0000000000000000 W _ZNSt11_Deque_baseIiSaIiEED1Ev
0000000000000000 W _ZNSt11_Deque_baseIiSaIiEED2Ev
0000000000000000 W _ZNSt12_Destroy_auxILb0EE9__destroyIPNSt7__cxx1112basic_stringIcSt11char_traitsIcESaIcEEEEEvT_S9_
                 U _ZNSt12__basic_fileIcED1Ev
                 U _ZNSt13basic_filebufIcSt11char_traitsIcEE4openEPKcSt13_Ios_Openmode
                 U _ZNSt13basic_filebufIcSt11char_traitsIcEE5closeEv
                 U _ZNSt13basic_filebufIcSt11char_traitsIcEEC1Ev
                 U _ZNSt13basic_filebufIcSt11char_traitsIcEED1Ev
                 U _ZNSt14basic_ifstreamIcSt11char_traitsIcEED1Ev
0000000000000000 W _ZNSt5dequeIiSaIiEE12emplace_backIJiEEEvDpOT_
0000000000000000 W _ZNSt5dequeIiSaIiEE16_M_push_back_auxIJRKiEEEvDpOT_
0000000000000000 W _ZNSt5dequeIiSaIiEE17_M_reallocate_mapEmb
                 U _ZNSt6localeC1Ev
                 U _ZNSt6localeD1Ev
0000000000000000 W _ZNSt6vectorINSt7__cxx1112basic_stringIcSt11char_traitsIcESaIcEEESaIS5_EE17_M_realloc_insertIJS5_EEEvN9__gnu_cxx17__normal_iteratorIPS5_S7_EEDpOT_
0000000000000000 W _ZNSt6vectorIP4PairSaIS1_EE17_M_realloc_insertIJRKS1_EEEvN9__gnu_cxx17__normal_iteratorIPS1_S3_EEDpOT_
0000000000000000 W _ZNSt6vectorIP4PartSaIS1_EE17_M_realloc_insertIJRKS1_EEEvN9__gnu_cxx17__normal_iteratorIPS1_S3_EEDpOT_
0000000000000000 W _ZNSt6vectorIP7SubtreeSaIS1_EE17_M_realloc_insertIJRKS1_EEEvN9__gnu_cxx17__normal_iteratorIPS1_S3_EEDpOT_
0000000000000000 W _ZNSt6vectorIdSaIdEE17_M_realloc_insertIJRKdEEEvN9__gnu_cxx17__normal_iteratorIPdS1_EEDpOT_
0000000000000000 W _ZNSt6vectorIdSaIdEE17_M_realloc_insertIJdEEEvN9__gnu_cxx17__normal_iteratorIPdS1_EEDpOT_
0000000000000000 W _ZNSt6vectorIiSaIiEE17_M_realloc_insertIJRKiEEEvN9__gnu_cxx17__normal_iteratorIPiS1_EEDpOT_
0000000000000000 W _ZNSt6vectorIiSaIiEE17_M_realloc_insertIJiEEEvN9__gnu_cxx17__normal_iteratorIPiS1_EEDpOT_
0000000000000000 W _ZNSt7__cxx1110_List_baseIiSaIiEE8_M_clearEv
                 U _ZNSt7__cxx1112basic_stringIcSt11char_traitsIcESaIcEE10_M_replaceEmmPKcm
                 U _ZNSt7__cxx1112basic_stringIcSt11char_traitsIcESaIcEE14_M_replace_auxEmmmc
                 U _ZNSt7__cxx1112basic_stringIcSt11char_traitsIcESaIcEE6appendEPKc
                 U _ZNSt7__cxx1112basic_stringIcSt11char_traitsIcESaIcEE7reserveEm
                 U _ZNSt7__cxx1112basic_stringIcSt11char_traitsIcESaIcEE9_M_appendEPKcm
                 U _ZNSt7__cxx1112basic_stringIcSt11char_traitsIcESaIcEE9_M_assignERKS4_
                 U _ZNSt7__cxx1112basic_stringIcSt11char_traitsIcESaIcEE9_M_createERmm
                 U _ZNSt7__cxx1112basic_stringIcSt11char_traitsIcESaIcEE9_M_mutateEmmPKcm
                 U _ZNSt7__cxx1112basic_stringIcSt11char_traitsIcESaIcEEC1EOS4_
                 U _ZNSt7__cxx1115basic_stringbufIcSt11char_traitsIcESaIcEE7_M_syncEPcmm
0000000000000000 W _ZNSt7__cxx1115basic_stringbufIcSt11char_traitsIcESaIcEED0Ev
0000000000000000 W _ZNSt7__cxx1115basic_stringbufIcSt11char_traitsIcESaIcEED1Ev
0000000000000000 W _ZNSt7__cxx1115basic_stringbufIcSt11char_traitsIcESaIcEED2Ev
                 U _ZNSt7__cxx1118basic_stringstreamIcSt11char_traitsIcESaIcEED1Ev
                 U _ZNSt7__cxx1119basic_ostringstreamIcSt11char_traitsIcESaIcEEC1Ev
                 U _ZNSt7__cxx1119basic_ostringstreamIcSt11char_traitsIcESaIcEED1Ev
                 U _ZNSt8__detail15_List_node_base7_M_hookEPS0_
                 U _ZNSt8__detail15_List_node_base9_M_unhookEv
                 U _ZNSt8ios_base4InitC1Ev
                 U _ZNSt8ios_base4InitD1Ev
                 U _ZNSt8ios_baseC2Ev
                 U _ZNSt8ios_baseD2Ev
                 U _ZNSt9basic_iosIcSt11char_traitsIcEE4initEPSt15basic_streambufIcS1_E
                 U _ZNSt9basic_iosIcSt11char_traitsIcEE5clearESt12_Ios_Iostate
                 U _ZSt16__ostream_insertIcSt11char_traitsIcEERSt13basic_ostreamIT_T0_ES6_PKS3_l
                 U _ZSt16__throw_bad_castv
                 U _ZSt17__throw_bad_allocv
                 U _ZSt19__throw_logic_errorPKc
                 U _ZSt20__throw_length_errorPKc
                 U _ZSt20__throw_out_of_rangePKc
                 U _ZSt24__throw_invalid_argumentPKc
                 U _ZSt24__throw_out_of_range_fmtPKcz
                 U _ZSt28__throw_bad_array_new_lengthv
                 U _ZSt4cerr
                 U _ZSt4cout
                 U _ZSt7getlineIcSt11char_traitsIcESaIcEERSt13basic_istreamIT_T0_ES7_RNSt7__cxx1112basic_stringIS4_S5_T1_EES4_
                 U _ZStlsISt11char_traitsIcEERSt13basic_ostreamIcT_ES5_PKc
0000000000000000 W _ZStplIcSt11char_traitsIcESaIcEENSt7__cxx1112basic_stringIT_T0_T1_EEOS8_S9_
0000000000000000 W _ZStplIcSt11char_traitsIcESaIcEENSt7__cxx1112basic_stringIT_T0_T1_EEPKS5_RKS8_
0000000000000000 W _ZStplIcSt11char_traitsIcESaIcEENSt7__cxx1112basic_stringIT_T0_T1_EERKS8_PKS5_
0000000000000000 V _ZTI15InputOutputFile
0000000000000000 V _ZTIN3lsd17InputOutputStreamE
                 U _ZTISt16invalid_argument
0000000000000000 V _ZTS15InputOutputFile
0000000000000000 V _ZTSN3lsd17InputOutputStreamE
                 U _ZTTNSt7__cxx1118basic_stringstreamIcSt11char_traitsIcESaIcEEE
                 U _ZTTNSt7__cxx1119basic_istringstreamIcSt11char_traitsIcESaIcEEE
                 U _ZTTNSt7__cxx1119basic_ostringstreamIcSt11char_traitsIcESaIcEEE
                 U _ZTTSt14basic_ifstreamIcSt11char_traitsIcEE
                 U _ZTTSt14basic_ofstreamIcSt11char_traitsIcEE
0000000000000000 V _ZTV15InputOutputFile
                 U _ZTVN10__cxxabiv117__class_type_infoE
                 U _ZTVN10__cxxabiv120__si_class_type_infoE
0000000000000000 V _ZTVN3lsd17InputOutputStreamE
                 U _ZTVNSt7__cxx1115basic_stringbufIcSt11char_traitsIcESaIcEEE
                 U _ZTVNSt7__cxx1118basic_stringstreamIcSt11char_traitsIcESaIcEEE
                 U _ZTVNSt7__cxx1119basic_istringstreamIcSt11char_traitsIcESaIcEEE
                 U _ZTVNSt7__cxx1119basic_ostringstreamIcSt11char_traitsIcESaIcEEE
                 U _ZTVSt13basic_filebufIcSt11char_traitsIcEE
                 U _ZTVSt14basic_ifstreamIcSt11char_traitsIcEE
                 U _ZTVSt14basic_ofstreamIcSt11char_traitsIcEE
                 U _ZTVSt15basic_streambufIcSt11char_traitsIcEE
                 U _ZTVSt9basic_iosIcSt11char_traitsIcEE
                 U _ZdaPv
                 U _ZdlPv
                 U _Znam
                 U _Znwm
                 U __cxa_atexit
                 U __cxa_begin_catch
                 U __cxa_end_catch
                 U __cxa_rethrow
                 U __cxa_throw_bad_array_new_length
                 U __dso_handle
                 U __errno_location
                 U __gxx_personality_v0
                 U exit
                 U fwrite
                 U memcmp
                 U memcpy
                 U memmove
                 U memset
                 U round
                 U stderr
                 U strlen
                 U strtod
                 U strtol
                 U vfprintf

alisim.cpp.o:
0000000000000000 V DW.ref._ZTINSt8ios_base7failureB5cxx11E
0000000000000000 V DW.ref._ZTISt9bad_alloc
0000000000000000 V DW.ref._ZTISt9exception
0000000000000000 V DW.ref.__gxx_personality_v0
                 U GOMP_barrier
                 U GOMP_critical_end
                 U GOMP_critical_start
                 U GOMP_parallel
                 U GOMP_single_start
                 U GOMP_task
                 U _GLOBAL_OFFSET_TABLE_
                 U _Unwind_Resume
0000000000000000 W _Z10_my_assertPKcS0_S0_i
                 U _Z10fileExistsNSt7__cxx1112basic_stringIcSt11char_traitsIcESaIcEEE
                 U _Z10outWarningNSt7__cxx1112basic_stringIcSt11char_traitsIcESaIcEEE
                 U _Z10outWarningPKc
                 U _Z10random_intiPi
0000000000000000 T _Z10unrootTreeP12AliSimulator
                 U _Z11convert_intPKc
                 U _Z11isDirectoryPKc
                 U _Z11safeGetlineRSiRNSt7__cxx1112basic_stringIcSt11char_traitsIcESaIcEEE
0000000000000000 T _Z12loadInputMSAB5cxx11P12AliSimulator
                 U _Z13extractSiteIDP9AlignmentPKcRSt6vectorIiSaIiEEbib
0000000000000000 T _Z13readMutationsRKNSt7__cxx1112basic_stringIcSt11char_traitsIcESaIcEEE
0000000000000000 T _Z14getLockedSitesP4NodeS0_PSt6vectorIbSaIbEEP9Alignment
0000000000000000 T _Z14showParametersR6Paramsb
0000000000000000 T _Z16insertIndelSitesiiiP6IQTreeP4NodeS2_
                 U _Z16runPhyloAnalysisR6ParamsP10CheckpointRP6IQTreeRP9Alignment
0000000000000000 T _Z17addMutations2TreeRKSt6vectorISt4pairINSt7__cxx1112basic_stringIcSt11char_traitsIcESaIcEEES6_ESaIS7_EEP6IQTree
0000000000000000 T _Z17createNodeMappingRSt3mapINSt7__cxx1112basic_stringIcSt11char_traitsIcESaIcEEESt4pairIP4NodeS8_ESt4lessIS5_ESaIS6_IKS5_S9_EEES8_S8_
0000000000000000 T _Z17executeSimulationR6ParamsRP6IQTree
                 U _Z18convertIntToStringB5cxx11i
0000000000000000 T _Z18generateRandomTreeR6Params
                 U _Z20getOutputNameWithExtRK9InputTypeRKNSt7__cxx1112basic_stringIcSt11char_traitsIcESaIcEEE
0000000000000000 T _Z20inferInputParametersR6ParamsP10CheckpointRP6IQTreeRP9Alignment
0000000000000000 T _Z20writeASequenceToFileP9AlignmentiibmmRSoS1_bRSt6vectorINSt7__cxx1112basic_stringIcSt11char_traitsIcESaIcEEESaIS8_EE9InputTypeibP4NodeSE_
0000000000000000 T _Z20writeSequencesToFileNSt7__cxx1112basic_stringIcSt11char_traitsIcESaIcEEEP9AlignmentiiP12AliSimulatorSt13_Ios_Openmode
                 U _Z21countPhysicalCPUCoresv
0000000000000000 T _Z22updateInternalNodeNameP4NodeS0_
0000000000000000 T _Z23determineSequenceLengthP4NodeS0_RbRi
0000000000000000 T _Z24copySequencesToSuperTreeRSt6vectorIiSaIiEEiP6IQTreeiP4NodeS6_
                 U _Z25reportSubstitutionProcessRSoR6ParamsR6IQTree
0000000000000000 T _Z26clearoutSequencesSuperTreeP4NodeS0_
0000000000000000 T _Z27outputTreeWithInternalNamesP12AliSimulator
0000000000000000 T _Z29mergeAndWriteSequencesToFilesNSt7__cxx1112basic_stringIcSt11char_traitsIcESaIcEEEP12AliSimulatorRSt6vectorIN3PML7SeqTypeESaIS9_EERS7_IS4_SaIS4_EESt13_Ios_Openmode
0000000000000000 T _Z38retrieveAncestralSequenceFromInputFileP12AliSimulatorRSt6vectorIsSaIsEE
0000000000000000 T _Z39computeTotalSequenceLengthAllPartitionsP14PhyloSuperTree
0000000000000000 T _Z40generateMultipleAlignmentsFromSingleTreeP12AliSimulatorSt3mapINSt7__cxx1112basic_stringIcSt11char_traitsIcESaIcEEES7_St4lessIS7_ESaISt4pairIKS7_S7_EEE
0000000000000000 T _Z40writeSeqsFromTmpDataAndGenomeTreesIndelsP12AliSimulatoriRSoS1_bRSt6vectorINSt7__cxx1112basic_stringIcSt11char_traitsIcESaIcEEESaIS8_EE9InputTypei
0000000000000000 T _Z45generatePartitionAlignmentFromSingleSimulatorRP12AliSimulatorRSt6vectorIsSaIsEESt3mapINSt7__cxx1112basic_stringIcSt11char_traitsIcESaIcEEESC_St4lessISC_ESaISt4pairIKSC_SC_EEEPS2_IbSaIbEESC_St13_Ios_Openmode
                 U _Z8outErrorNSt7__cxx1112basic_stringIcSt11char_traitsIcESaIcEEEb
                 U _Z8outErrorPKcNSt7__cxx1112basic_stringIcSt11char_traitsIcESaIcEEEb
                 U _Z8outErrorPKcS0_b
                 U _Z8outErrorPKcb
0000000000000000 T _Z9runAliSimR6ParamsP10Checkpoint
0000000000000000 u _ZGVZNKSt8__detail11_AnyMatcherINSt7__cxx1112regex_traitsIcEELb0ELb0ELb0EEclEcE5__nul
0000000000000000 u _ZGVZNKSt8__detail11_AnyMatcherINSt7__cxx1112regex_traitsIcEELb0ELb0ELb1EEclEcE5__nul
0000000000000000 u _ZGVZNKSt8__detail11_AnyMatcherINSt7__cxx1112regex_traitsIcEELb0ELb1ELb0EEclEcE5__nul
0000000000000000 u _ZGVZNKSt8__detail11_AnyMatcherINSt7__cxx1112regex_traitsIcEELb0ELb1ELb1EEclEcE5__nul
                 U _ZN10GenomeTree15buildGenomeTreeEP9Insertionib
                 U _ZN10GenomeTree16updateGenomeTreeEP9InsertionS1_
                 U _ZN10GenomeTree24exportReadableCharactersERSt6vectorIsSaIsEEiRS0_INSt7__cxx1112basic_stringIcSt11char_traitsIcESaIcEEESaIS9_EERS9_
                 U _ZN10GenomeTreeC1Ei
                 U _ZN10GenomeTreeC1Ev
                 U _ZN10GenomeTreeD1Ev
0000000000000000 W _ZN10ModelSubst13getNameParamsB5cxx11Eb
0000000000000000 W _ZN10ModelSubst9isMixtureEv
0000000000000000 W _ZN10ModelSubst9writeInfoERSo
                 U _ZN10SplitGraph12calcDistanceEPc
                 U _ZN10SplitGraph15generateTaxaSetEPciii
                 U _ZN10SplitGraph16generateCircularER6Params
                 U _ZN10SplitGraph4initER6Params
                 U _ZN10SplitGraphC1Ev
                 U _ZN10SplitGraphD1Ev
                 U _ZN11gzstreambuf5closeEv
                 U _ZN12AliSimulator21exportPreOutputStringB5cxx11EP4Node9InputTypeib
                 U _ZN12AliSimulator21updateNewGenomeIndelsEi
                 U _ZN12AliSimulator22initializeStateMappingEiP9AlignmentRSt6vectorINSt7__cxx1112basic_stringIcSt11char_traitsIcESaIcEEESaIS8_EE
                 U _ZN12AliSimulator23refreshExpectedNumSitesEv
                 U _ZN12AliSimulator26generatePartitionAlignmentERSt6vectorIsSaIsEESt3mapINSt7__cxx1112basic_stringIcSt11char_traitsIcESaIcEEESA_St4lessISA_ESaISt4pairIKSA_SA_EEEPS0_IbSaIbEESA_St13_Ios_Openmode
                 U _ZN12AliSimulator44convertNumericalStatesIntoReadableCharactersERSt6vectorIsSaIsEERNSt7__cxx1112basic_stringIcSt11char_traitsIcESaIcEEEiiRS0_IS9_SaIS9_EEi
                 U _ZN12AliSimulatorC1EP6ParamsP6IQTreeid
                 U _ZN12AliSimulatorC1EP6Paramsid
                 U _ZN12gzstreambase4openEPKci
                 U _ZN12gzstreambase5closeEv
                 U _ZN12gzstreambaseC2EPKci
                 U _ZN12gzstreambaseD2Ev
                 U _ZN13SubstitutionsC1ERKNSt7__cxx1112basic_stringIcSt11char_traitsIcESaIcEEEP9AlignmentRKi
                 U _ZN14SuperAlignmentC1ER6Params
                 U _ZN16SequenceChunkStrD1Ev
                 U _ZN17AliSimulatorInvarC1EP12AliSimulatord
                 U _ZN22SuperAlignmentUnlinkedC1ER6Params
                 U _ZN25AliSimulatorHeterogeneityC1EP12AliSimulator
                 U _ZN30AliSimulatorHeterogeneityInvarC1EP12AliSimulatord
                 U _ZN4Node12findNeighborEPS_
                 U _ZN4Node6isLeafEv
                 U _ZN5MTree10removeTaxaERSt6vectorINSt7__cxx1112basic_stringIcSt11char_traitsIcESaIcEEESaIS6_EE
                 U _ZN5MTree10treeLengthEP4NodeS1_
0000000000000000 W _ZN5MTree11treeLengthsERSt6vectorIdSaIdEEP4NodeS5_
                 U _ZN5MTree12findLeafNameERNSt7__cxx1112basic_stringIcSt11char_traitsIcESaIcEEEP4NodeS8_
                 U _ZN5MTree13isBifurcatingEP4NodeS1_
                 U _ZN5MTree17parseBranchLengthERNSt7__cxx1112basic_stringIcSt11char_traitsIcESaIcEEERSt6vectorIdSaIdEE
                 U _ZN5MTree17printBranchLengthERSoibP8Neighbor
                 U _ZN5MTree18treeLengthInternalEdP4NodeS1_
                 U _ZN5MTree20collapseZeroBranchesEP4NodeS1_d
                 U _ZN5MTree24collapseInternalBranchesEP4NodeS1_d
                 U _ZN5MTree7newNodeEiPKc
                 U _ZN5MTree7newNodeEii
                 U _ZN5MTree8ANTT_MUTB5cxx11E
                 U _ZN5MTree8copyTreeEPS_
                 U _ZN5MTree8copyTreeEPS_RNSt7__cxx1112basic_stringIcSt11char_traitsIcESaIcEEE
                 U _ZN5MTree8drawTreeERSoid
                 U _ZN5MTree8readTreeEPKcRbi
                 U _ZN5MTree8readTreeERSiRb
                 U _ZN5MTree9printTreeERSoi
                 U _ZN5MTree9printTreeERSoiP4NodeS2_
0000000000000000 W _ZN5MTree9setParamsEP6Params
                 U _ZN5MTreeC1Ev
                 U _ZN5MTreeC2Ev
                 U _ZN5MTreeD1Ev
                 U _ZN5MTreeD2Ev
                 U _ZN6Params11getInstanceEv
                 U _ZN8MExtTree18generateRandomTreeE11TreeGenTypeR6Paramsb
                 U _ZN8MExtTree23setZeroInternalBranchesEi
                 U _ZN8MExtTree27generateRandomBranchLengthsER6ParamsP4NodeS3_
0000000000000000 W _ZN8MExtTreeD0Ev
0000000000000000 W _ZN8MExtTreeD1Ev
0000000000000000 W _ZN8MExtTreeD2Ev
0000000000000000 W _ZN8Neighbor7putAttrINSt7__cxx1112basic_stringIcSt11char_traitsIcESaIcEEEEEvS6_T_
                 U _ZN9Alignment11getSeqNamesB5cxx11Ev
                 U _ZN9Alignment12convertStateEc
                 U _ZN9Alignment16extractMapleFileERKNSt7__cxx1112basic_stringIcSt11char_traitsIcESaIcEEERK9InputType
                 U _ZN9Alignment16extractSequencesEPcS0_RSt6vectorINSt7__cxx1112basic_stringIcSt11char_traitsIcESaIcEEESaIS7_EERiSB_
                 U _ZN9Alignment19convertStateBackStrB5cxx11Ej
                 U _ZN9Alignment26getCodonStateTypeFromSitesEcccNSt7__cxx1112basic_stringIcSt11char_traitsIcESaIcEEEiRNS0_19basic_ostringstreamIcS3_S4_EERi
                 U _ZN9AlignmentC1Ev
                 U _ZN9AlignmentD1Ev
0000000000000000 W _ZN9InsertionD1Ev
0000000000000000 W _ZN9InsertionD2Ev
                 U _ZN9MPIHelper11getInstanceEv
                 U _ZN9PhyloTree11getRateNameB5cxx11Ev
0000000000000000 W _ZN9PhyloTree15getModelFactoryEv
                 U _ZN9PhyloTree25forceConvertingToUnrootedEv
0000000000000000 W _ZN9PhyloTree8getModelEv
0000000000000000 W _ZN9igzstreamD0Ev
0000000000000000 W _ZN9igzstreamD1Ev
0000000000000000 W _ZN9ogzstreamD0Ev
0000000000000000 W _ZN9ogzstreamD1Ev
                 U _ZNK12Substitution11getNewStateEv
                 U _ZNK12Substitution11getOldStateEv
                 U _ZNK12Substitution11getPositionEv
                 U _ZNKSt5ctypeIcE13_M_widen_initEv
0000000000000000 W _ZNKSt5ctypeIcE8do_widenEc
0000000000000000 W _ZNKSt5ctypeIcE9do_narrowEcc
                 U _ZNKSt6locale2id5_M_idEv
                 U _ZNKSt7__cxx1112basic_stringIcSt11char_traitsIcESaIcEE12find_last_ofEPKcmm
                 U _ZNKSt7__cxx1112basic_stringIcSt11char_traitsIcESaIcEE13find_first_ofEPKcmm
                 U _ZNKSt7__cxx1112basic_stringIcSt11char_traitsIcESaIcEE16find_last_not_ofEPKcmm
                 U _ZNKSt7__cxx1112basic_stringIcSt11char_traitsIcESaIcEE17find_first_not_ofEPKcmm
                 U _ZNKSt7__cxx1112basic_stringIcSt11char_traitsIcESaIcEE4findEPKcmm
                 U _ZNKSt7__cxx1112basic_stringIcSt11char_traitsIcESaIcEE7compareEPKc
0000000000000000 W _ZNKSt7__cxx1112regex_traitsIcE16lookup_classnameIPKcEENS1_10_RegexMaskET_S6_b
0000000000000000 W _ZNKSt7__cxx1112regex_traitsIcE16translate_nocaseEc
0000000000000000 W _ZNKSt7__cxx1112regex_traitsIcE17transform_primaryIPKcEENS_12basic_stringIcSt11char_traitsIcESaIcEEET_SA_
0000000000000000 W _ZNKSt7__cxx1112regex_traitsIcE18lookup_collatenameIPKcEENS_12basic_stringIcSt11char_traitsIcESaIcEEET_SA_
0000000000000000 W _ZNKSt7__cxx1113match_resultsIN9__gnu_cxx17__normal_iteratorIPKcNS_12basic_stringIcSt11char_traitsIcESaIcEEEEESaINS_9sub_matchISA_EEEE6formatISt20back_insert_iteratorIS9_EEET_SI_S4_S4_NSt15regex_constants15match_flag_typeE
0000000000000000 W _ZNKSt7__cxx1114regex_iteratorIN9__gnu_cxx17__normal_iteratorIPKcNS_12basic_stringIcSt11char_traitsIcESaIcEEEEEcNS_12regex_traitsIcEEEeqERKSD_
0000000000000000 W _ZNKSt8__detail20_RegexTranslatorBaseINSt7__cxx1112regex_traitsIcEELb0ELb1EE12_M_transformEc
0000000000000000 W _ZNKSt8__detail20_RegexTranslatorBaseINSt7__cxx1112regex_traitsIcEELb1ELb1EE12_M_transformEc
0000000000000000 W _ZNKSt8__detail9_ExecutorIN9__gnu_cxx17__normal_iteratorIPKcNSt7__cxx1112basic_stringIcSt11char_traitsIcESaIcEEEEESaINS5_9sub_matchISB_EEENS5_12regex_traitsIcEELb0EE16_M_word_boundaryEv
0000000000000000 W _ZNKSt8__detail9_ExecutorIN9__gnu_cxx17__normal_iteratorIPKcNSt7__cxx1112basic_stringIcSt11char_traitsIcESaIcEEEEESaINS5_9sub_matchISB_EEENS5_12regex_traitsIcEELb0EE21_M_is_line_terminatorEc
0000000000000000 W _ZNKSt8__detail9_ExecutorIN9__gnu_cxx17__normal_iteratorIPKcNSt7__cxx1112basic_stringIcSt11char_traitsIcESaIcEEEEESaINS5_9sub_matchISB_EEENS5_12regex_traitsIcEELb1EE16_M_word_boundaryEv
0000000000000000 W _ZNKSt8__detail9_ExecutorIN9__gnu_cxx17__normal_iteratorIPKcNSt7__cxx1112basic_stringIcSt11char_traitsIcESaIcEEEEESaINS5_9sub_matchISB_EEENS5_12regex_traitsIcEELb1EE21_M_is_line_terminatorEc
                 U _ZNSdD2Ev
                 U _ZNSi10_M_extractIlEERSiRT_
                 U _ZNSirsERs
                 U _ZNSo3putEc
                 U _ZNSo5flushEv
                 U _ZNSo5seekpESt4fposI11__mbstate_tE
                 U _ZNSo5tellpEv
                 U _ZNSo9_M_insertIdEERSoT_
                 U _ZNSolsEi
0000000000000000 W _ZNSt11_Deque_baseIlSaIlEE17_M_initialize_mapEm
0000000000000000 W _ZNSt11_Deque_baseIlSaIlEED1Ev
0000000000000000 W _ZNSt11_Deque_baseIlSaIlEED2Ev
                 U _ZNSt11regex_errorD1Ev
0000000000000000 W _ZNSt12_Destroy_auxILb0EE9__destroyIPNSt7__cxx1112basic_stringIcSt11char_traitsIcESaIcEEEEEvT_S9_
                 U _ZNSt12__basic_fileIcED1Ev
                 U _ZNSt13basic_filebufIcSt11char_traitsIcEE4openEPKcSt13_Ios_Openmode
                 U _ZNSt13basic_filebufIcSt11char_traitsIcEE5closeEv
                 U _ZNSt13basic_filebufIcSt11char_traitsIcEEC1Ev
                 U _ZNSt13basic_filebufIcSt11char_traitsIcEED1Ev
                 U _ZNSt13runtime_errorC2EPKc
                 U _ZNSt13runtime_errorC2ERKS_
0000000000000000 W _ZNSt14_Function_baseD1Ev
0000000000000000 W _ZNSt14_Function_baseD2Ev
                 U _ZNSt14basic_ifstreamIcSt11char_traitsIcEED1Ev
                 U _ZNSt14basic_ofstreamIcSt11char_traitsIcEEC1EPKcSt13_Ios_Openmode
                 U _ZNSt14basic_ofstreamIcSt11char_traitsIcEED1Ev
0000000000000000 W _ZNSt16_Sp_counted_baseILN9__gnu_cxx12_Lock_policyE2EE10_M_releaseEv
0000000000000000 W _ZNSt16_Sp_counted_baseILN9__gnu_cxx12_Lock_policyE2EE24_M_release_last_use_coldEv
0000000000000000 W _ZNSt17_Function_handlerIFbcENSt8__detail11_AnyMatcherINSt7__cxx1112regex_traitsIcEELb0ELb0ELb0EEEE10_M_managerERSt9_Any_dataRKS8_St18_Manager_operation
0000000000000000 W _ZNSt17_Function_handlerIFbcENSt8__detail11_AnyMatcherINSt7__cxx1112regex_traitsIcEELb0ELb0ELb0EEEE9_M_invokeERKSt9_Any_dataOc
0000000000000000 W _ZNSt17_Function_handlerIFbcENSt8__detail11_AnyMatcherINSt7__cxx1112regex_traitsIcEELb0ELb0ELb1EEEE10_M_managerERSt9_Any_dataRKS8_St18_Manager_operation
0000000000000000 W _ZNSt17_Function_handlerIFbcENSt8__detail11_AnyMatcherINSt7__cxx1112regex_traitsIcEELb0ELb0ELb1EEEE9_M_invokeERKSt9_Any_dataOc
0000000000000000 W _ZNSt17_Function_handlerIFbcENSt8__detail11_AnyMatcherINSt7__cxx1112regex_traitsIcEELb0ELb1ELb0EEEE10_M_managerERSt9_Any_dataRKS8_St18_Manager_operation
0000000000000000 W _ZNSt17_Function_handlerIFbcENSt8__detail11_AnyMatcherINSt7__cxx1112regex_traitsIcEELb0ELb1ELb0EEEE9_M_invokeERKSt9_Any_dataOc
0000000000000000 W _ZNSt17_Function_handlerIFbcENSt8__detail11_AnyMatcherINSt7__cxx1112regex_traitsIcEELb0ELb1ELb1EEEE10_M_managerERSt9_Any_dataRKS8_St18_Manager_operation
0000000000000000 W _ZNSt17_Function_handlerIFbcENSt8__detail11_AnyMatcherINSt7__cxx1112regex_traitsIcEELb0ELb1ELb1EEEE9_M_invokeERKSt9_Any_dataOc
0000000000000000 W _ZNSt17_Function_handlerIFbcENSt8__detail11_AnyMatcherINSt7__cxx1112regex_traitsIcEELb1ELb0ELb0EEEE10_M_managerERSt9_Any_dataRKS8_St18_Manager_operation
0000000000000000 W _ZNSt17_Function_handlerIFbcENSt8__detail11_AnyMatcherINSt7__cxx1112regex_traitsIcEELb1ELb0ELb0EEEE9_M_invokeERKSt9_Any_dataOc
0000000000000000 W _ZNSt17_Function_handlerIFbcENSt8__detail11_AnyMatcherINSt7__cxx1112regex_traitsIcEELb1ELb0ELb1EEEE10_M_managerERSt9_Any_dataRKS8_St18_Manager_operation
0000000000000000 W _ZNSt17_Function_handlerIFbcENSt8__detail11_AnyMatcherINSt7__cxx1112regex_traitsIcEELb1ELb0ELb1EEEE9_M_invokeERKSt9_Any_dataOc
0000000000000000 W _ZNSt17_Function_handlerIFbcENSt8__detail11_AnyMatcherINSt7__cxx1112regex_traitsIcEELb1ELb1ELb0EEEE10_M_managerERSt9_Any_dataRKS8_St18_Manager_operation
0000000000000000 W _ZNSt17_Function_handlerIFbcENSt8__detail11_AnyMatcherINSt7__cxx1112regex_traitsIcEELb1ELb1ELb0EEEE9_M_invokeERKSt9_Any_dataOc
0000000000000000 W _ZNSt17_Function_handlerIFbcENSt8__detail11_AnyMatcherINSt7__cxx1112regex_traitsIcEELb1ELb1ELb1EEEE10_M_managerERSt9_Any_dataRKS8_St18_Manager_operation
0000000000000000 W _ZNSt17_Function_handlerIFbcENSt8__detail11_AnyMatcherINSt7__cxx1112regex_traitsIcEELb1ELb1ELb1EEEE9_M_invokeERKSt9_Any_dataOc
0000000000000000 W _ZNSt17_Function_handlerIFbcENSt8__detail12_CharMatcherINSt7__cxx1112regex_traitsIcEELb0ELb0EEEE10_M_managerERSt9_Any_dataRKS8_St18_Manager_operation
0000000000000000 W _ZNSt17_Function_handlerIFbcENSt8__detail12_CharMatcherINSt7__cxx1112regex_traitsIcEELb0ELb0EEEE9_M_invokeERKSt9_Any_dataOc
0000000000000000 W _ZNSt17_Function_handlerIFbcENSt8__detail12_CharMatcherINSt7__cxx1112regex_traitsIcEELb0ELb1EEEE10_M_managerERSt9_Any_dataRKS8_St18_Manager_operation
0000000000000000 W _ZNSt17_Function_handlerIFbcENSt8__detail12_CharMatcherINSt7__cxx1112regex_traitsIcEELb0ELb1EEEE9_M_invokeERKSt9_Any_dataOc
0000000000000000 W _ZNSt17_Function_handlerIFbcENSt8__detail12_CharMatcherINSt7__cxx1112regex_traitsIcEELb1ELb0EEEE10_M_managerERSt9_Any_dataRKS8_St18_Manager_operation
0000000000000000 W _ZNSt17_Function_handlerIFbcENSt8__detail12_CharMatcherINSt7__cxx1112regex_traitsIcEELb1ELb0EEEE9_M_invokeERKSt9_Any_dataOc
0000000000000000 W _ZNSt17_Function_handlerIFbcENSt8__detail12_CharMatcherINSt7__cxx1112regex_traitsIcEELb1ELb1EEEE10_M_managerERSt9_Any_dataRKS8_St18_Manager_operation
0000000000000000 W _ZNSt17_Function_handlerIFbcENSt8__detail12_CharMatcherINSt7__cxx1112regex_traitsIcEELb1ELb1EEEE9_M_invokeERKSt9_Any_dataOc
0000000000000000 W _ZNSt17_Function_handlerIFbcENSt8__detail15_BracketMatcherINSt7__cxx1112regex_traitsIcEELb0ELb0EEEE10_M_managerERSt9_Any_dataRKS8_St18_Manager_operation
0000000000000000 W _ZNSt17_Function_handlerIFbcENSt8__detail15_BracketMatcherINSt7__cxx1112regex_traitsIcEELb0ELb0EEEE9_M_invokeERKSt9_Any_dataOc
0000000000000000 W _ZNSt17_Function_handlerIFbcENSt8__detail15_BracketMatcherINSt7__cxx1112regex_traitsIcEELb0ELb1EEEE10_M_managerERSt9_Any_dataRKS8_St18_Manager_operation
0000000000000000 W _ZNSt17_Function_handlerIFbcENSt8__detail15_BracketMatcherINSt7__cxx1112regex_traitsIcEELb0ELb1EEEE9_M_invokeERKSt9_Any_dataOc
0000000000000000 W _ZNSt17_Function_handlerIFbcENSt8__detail15_BracketMatcherINSt7__cxx1112regex_traitsIcEELb1ELb0EEEE10_M_managerERSt9_Any_dataRKS8_St18_Manager_operation
0000000000000000 W _ZNSt17_Function_handlerIFbcENSt8__detail15_BracketMatcherINSt7__cxx1112regex_traitsIcEELb1ELb0EEEE9_M_invokeERKSt9_Any_dataOc
0000000000000000 W _ZNSt17_Function_handlerIFbcENSt8__detail15_BracketMatcherINSt7__cxx1112regex_traitsIcEELb1ELb1EEEE10_M_managerERSt9_Any_dataRKS8_St18_Manager_operation
0000000000000000 W _ZNSt17_Function_handlerIFbcENSt8__detail15_BracketMatcherINSt7__cxx1112regex_traitsIcEELb1ELb1EEEE9_M_invokeERKSt9_Any_dataOc
0000000000000000 W _ZNSt23_Sp_counted_ptr_inplaceINSt8__detail4_NFAINSt7__cxx1112regex_traitsIcEEEESaIvELN9__gnu_cxx12_Lock_policyE2EE10_M_destroyEv
0000000000000000 W _ZNSt23_Sp_counted_ptr_inplaceINSt8__detail4_NFAINSt7__cxx1112regex_traitsIcEEEESaIvELN9__gnu_cxx12_Lock_policyE2EE10_M_disposeEv
0000000000000000 W _ZNSt23_Sp_counted_ptr_inplaceINSt8__detail4_NFAINSt7__cxx1112regex_traitsIcEEEESaIvELN9__gnu_cxx12_Lock_policyE2EE14_M_get_deleterERKSt9type_info
0000000000000000 W _ZNSt23_Sp_counted_ptr_inplaceINSt8__detail4_NFAINSt7__cxx1112regex_traitsIcEEEESaIvELN9__gnu_cxx12_Lock_policyE2EED0Ev
0000000000000000 W _ZNSt23_Sp_counted_ptr_inplaceINSt8__detail4_NFAINSt7__cxx1112regex_traitsIcEEEESaIvELN9__gnu_cxx12_Lock_policyE2EED1Ev
0000000000000000 W _ZNSt23_Sp_counted_ptr_inplaceINSt8__detail4_NFAINSt7__cxx1112regex_traitsIcEEEESaIvELN9__gnu_cxx12_Lock_policyE2EED2Ev
0000000000000000 W _ZNSt4pairINSt7__cxx1112basic_stringIcSt11char_traitsIcESaIcEEES5_ED1Ev
0000000000000000 W _ZNSt4pairINSt7__cxx1112basic_stringIcSt11char_traitsIcESaIcEEES5_ED2Ev
                 U _ZNSt5ctypeIcE2idE
0000000000000000 W _ZNSt5dequeINSt8__detail9_StateSeqINSt7__cxx1112regex_traitsIcEEEESaIS5_EE12emplace_backIJS5_EEEvDpOT_
0000000000000000 W _ZNSt5dequeINSt8__detail9_StateSeqINSt7__cxx1112regex_traitsIcEEEESaIS5_EE16_M_push_back_auxIJRKS5_EEEvDpOT_
0000000000000000 W _ZNSt5dequeINSt8__detail9_StateSeqINSt7__cxx1112regex_traitsIcEEEESaIS5_EE17_M_reallocate_mapEmb
0000000000000000 W _ZNSt5dequeINSt8__detail9_StateSeqINSt7__cxx1112regex_traitsIcEEEESaIS5_EE9push_backERKS5_
0000000000000000 W _ZNSt5dequeIlSaIlEE16_M_push_back_auxIJRKlEEEvDpOT_
                 U _ZNSt6localeC1ERKS_
                 U _ZNSt6localeC1Ev
                 U _ZNSt6localeD1Ev
                 U _ZNSt6localeaSERKS_
0000000000000000 W _ZNSt6vectorIN3PML7SeqTypeESaIS1_EE17_M_realloc_insertIJRKS1_EEEvN9__gnu_cxx17__normal_iteratorIPS1_S3_EEDpOT_
0000000000000000 W _ZNSt6vectorINSt7__cxx1112basic_stringIcSt11char_traitsIcESaIcEEESaIS5_EE17_M_realloc_insertIJRKS5_EEEvN9__gnu_cxx17__normal_iteratorIPS5_S7_EEDpOT_
0000000000000000 W _ZNSt6vectorINSt7__cxx1112basic_stringIcSt11char_traitsIcESaIcEEESaIS5_EE17_M_realloc_insertIJS5_EEEvN9__gnu_cxx17__normal_iteratorIPS5_S7_EEDpOT_
0000000000000000 W _ZNSt6vectorINSt7__cxx1112basic_stringIcSt11char_traitsIcESaIcEEESaIS5_EED1Ev
0000000000000000 W _ZNSt6vectorINSt7__cxx1112basic_stringIcSt11char_traitsIcESaIcEEESaIS5_EED2Ev
0000000000000000 W _ZNSt6vectorINSt7__cxx1112regex_traitsIcE10_RegexMaskESaIS3_EE17_M_realloc_insertIJRKS3_EEEvN9__gnu_cxx17__normal_iteratorIPS3_S5_EEDpOT_
0000000000000000 W _ZNSt6vectorINSt7__cxx119sub_matchIN9__gnu_cxx17__normal_iteratorIPKcNS0_12basic_stringIcSt11char_traitsIcESaIcEEEEEEESaISC_EE14_M_fill_assignEmRKSC_
0000000000000000 W _ZNSt6vectorINSt8__detail6_StateIcEESaIS2_EE17_M_realloc_insertIJS2_EEEvN9__gnu_cxx17__normal_iteratorIPS2_S4_EEDpOT_
0000000000000000 W _ZNSt6vectorISt4pairINSt7__cxx1112basic_stringIcSt11char_traitsIcESaIcEEES6_ESaIS7_EE17_M_realloc_insertIJS7_EEEvN9__gnu_cxx17__normal_iteratorIPS7_S9_EEDpOT_
0000000000000000 W _ZNSt6vectorISt4pairINSt7__cxx1112basic_stringIcSt11char_traitsIcESaIcEEES6_ESaIS7_EEC1ERKS9_
0000000000000000 W _ZNSt6vectorISt4pairINSt7__cxx1112basic_stringIcSt11char_traitsIcESaIcEEES6_ESaIS7_EEC2ERKS9_
0000000000000000 W _ZNSt6vectorISt4pairINSt7__cxx1112basic_stringIcSt11char_traitsIcESaIcEEES6_ESaIS7_EED1Ev
0000000000000000 W _ZNSt6vectorISt4pairINSt7__cxx1112basic_stringIcSt11char_traitsIcESaIcEEES6_ESaIS7_EED2Ev
0000000000000000 W _ZNSt6vectorISt4pairIccESaIS1_EE17_M_realloc_insertIJS1_EEEvN9__gnu_cxx17__normal_iteratorIPS1_S3_EEDpOT_
0000000000000000 W _ZNSt6vectorISt4pairIlS_INSt7__cxx119sub_matchIN9__gnu_cxx17__normal_iteratorIPKcNS1_12basic_stringIcSt11char_traitsIcESaIcEEEEEEESaISD_EEESaISG_EE12emplace_backIJRlRKSF_EEEvDpOT_
0000000000000000 W _ZNSt6vectorISt4pairIlS_INSt7__cxx119sub_matchIN9__gnu_cxx17__normal_iteratorIPKcNS1_12basic_stringIcSt11char_traitsIcESaIcEEEEEEESaISD_EEESaISG_EE17_M_realloc_insertIJRlRKSF_EEEvNS4_IPSG_SI_EEDpOT_
0000000000000000 W _ZNSt6vectorISt4pairIlS_INSt7__cxx119sub_matchIN9__gnu_cxx17__normal_iteratorIPKcNS1_12basic_stringIcSt11char_traitsIcESaIcEEEEEEESaISD_EEESaISG_EED1Ev
0000000000000000 W _ZNSt6vectorISt4pairIlS_INSt7__cxx119sub_matchIN9__gnu_cxx17__normal_iteratorIPKcNS1_12basic_stringIcSt11char_traitsIcESaIcEEEEEEESaISD_EEESaISG_EED2Ev
0000000000000000 W _ZNSt6vectorIcSaIcEE12emplace_backIJcEEEvDpOT_
0000000000000000 W _ZNSt6vectorIiSaIiEE17_M_default_appendEm
0000000000000000 W _ZNSt6vectorImSaImEE17_M_realloc_insertIJRKmEEEvN9__gnu_cxx17__normal_iteratorIPmS1_EEDpOT_
0000000000000000 W _ZNSt6vectorIsSaIsEE14_M_fill_insertEN9__gnu_cxx17__normal_iteratorIPsS1_EEmRKs
0000000000000000 W _ZNSt6vectorIsSaIsEE17_M_default_appendEm
0000000000000000 W _ZNSt7__cxx1111basic_regexIcNS_12regex_traitsIcEEED1Ev
0000000000000000 W _ZNSt7__cxx1111basic_regexIcNS_12regex_traitsIcEEED2Ev
                 U _ZNSt7__cxx1112basic_stringIcSt11char_traitsIcESaIcEE10_M_replaceEmmPKcm
                 U _ZNSt7__cxx1112basic_stringIcSt11char_traitsIcESaIcEE12_M_constructEmc
                 U _ZNSt7__cxx1112basic_stringIcSt11char_traitsIcESaIcEE14_M_replace_auxEmmmc
                 U _ZNSt7__cxx1112basic_stringIcSt11char_traitsIcESaIcEE6appendEPKc
                 U _ZNSt7__cxx1112basic_stringIcSt11char_traitsIcESaIcEE7reserveEm
                 U _ZNSt7__cxx1112basic_stringIcSt11char_traitsIcESaIcEE8_M_eraseEmm
                 U _ZNSt7__cxx1112basic_stringIcSt11char_traitsIcESaIcEE9_M_appendEPKcm
                 U _ZNSt7__cxx1112basic_stringIcSt11char_traitsIcESaIcEE9_M_assignERKS4_
                 U _ZNSt7__cxx1112basic_stringIcSt11char_traitsIcESaIcEE9_M_createERmm
                 U _ZNSt7__cxx1112basic_stringIcSt11char_traitsIcESaIcEE9_M_mutateEmmPKcm
                 U _ZNSt7__cxx1112basic_stringIcSt11char_traitsIcESaIcEE9push_backEc
                 U _ZNSt7__cxx1112basic_stringIcSt11char_traitsIcESaIcEEC1EOS4_
                 U _ZNSt7__cxx1112basic_stringIcSt11char_traitsIcESaIcEEC1ERKS4_
                 U _ZNSt7__cxx1115basic_stringbufIcSt11char_traitsIcESaIcEE7_M_syncEPcmm
0000000000000000 W _ZNSt7__cxx1115basic_stringbufIcSt11char_traitsIcESaIcEED0Ev
0000000000000000 W _ZNSt7__cxx1115basic_stringbufIcSt11char_traitsIcESaIcEED1Ev
0000000000000000 W _ZNSt7__cxx1115basic_stringbufIcSt11char_traitsIcESaIcEED2Ev
                 U _ZNSt7__cxx1118basic_stringstreamIcSt11char_traitsIcESaIcEED1Ev
                 U _ZNSt7__cxx1119basic_istringstreamIcSt11char_traitsIcESaIcEED1Ev
                 U _ZNSt7__cxx1119basic_ostringstreamIcSt11char_traitsIcESaIcEED1Ev
0000000000000000 W _ZNSt8_Rb_treeINSt7__cxx1112basic_stringIcSt11char_traitsIcESaIcEEESt4pairIKS5_P4NodeESt10_Select1stISA_ESt4lessIS5_ESaISA_EE24_M_get_insert_unique_posERS7_
0000000000000000 W _ZNSt8_Rb_treeINSt7__cxx1112basic_stringIcSt11char_traitsIcESaIcEEESt4pairIKS5_P4NodeESt10_Select1stISA_ESt4lessIS5_ESaISA_EE29_M_get_insert_hint_unique_posESt23_Rb_tree_const_iteratorISA_ERS7_
0000000000000000 W _ZNSt8_Rb_treeINSt7__cxx1112basic_stringIcSt11char_traitsIcESaIcEEESt4pairIKS5_S5_ESt10_Select1stIS8_ESt4lessIS5_ESaIS8_EE17_M_emplace_uniqueIJS6_IS5_S5_EEEES6_ISt17_Rb_tree_iteratorIS8_EbEDpOT_
0000000000000000 W _ZNSt8_Rb_treeINSt7__cxx1112basic_stringIcSt11char_traitsIcESaIcEEESt4pairIKS5_S5_ESt10_Select1stIS8_ESt4lessIS5_ESaIS8_EE24_M_get_insert_unique_posERS7_
0000000000000000 W _ZNSt8_Rb_treeINSt7__cxx1112basic_stringIcSt11char_traitsIcESaIcEEESt4pairIKS5_S5_ESt10_Select1stIS8_ESt4lessIS5_ESaIS8_EE29_M_get_insert_hint_unique_posESt23_Rb_tree_const_iteratorIS8_ERS7_
0000000000000000 W _ZNSt8_Rb_treeIlSt4pairIKllESt10_Select1stIS2_ESt4lessIlESaIS2_EE22_M_emplace_hint_uniqueIJRKSt21piecewise_construct_tSt5tupleIJRS1_EESD_IJEEEEESt17_Rb_tree_iteratorIS2_ESt23_Rb_tree_const_iteratorIS2_EDpOT_
0000000000000000 W _ZNSt8_Rb_treeIlSt4pairIKllESt10_Select1stIS2_ESt4lessIlESaIS2_EE24_M_get_insert_unique_posERS1_
0000000000000000 W _ZNSt8_Rb_treeIlSt4pairIKllESt10_Select1stIS2_ESt4lessIlESaIS2_EE29_M_get_insert_hint_unique_posESt23_Rb_tree_const_iteratorIS2_ERS1_
0000000000000000 W _ZNSt8__detail15_BracketMatcherINSt7__cxx1112regex_traitsIcEELb0ELb0EED1Ev
0000000000000000 W _ZNSt8__detail15_BracketMatcherINSt7__cxx1112regex_traitsIcEELb0ELb0EED2Ev
0000000000000000 W _ZNSt8__detail15_BracketMatcherINSt7__cxx1112regex_traitsIcEELb0ELb1EE13_M_make_rangeEcc
0000000000000000 W _ZNSt8__detail15_BracketMatcherINSt7__cxx1112regex_traitsIcEELb0ELb1EED1Ev
0000000000000000 W _ZNSt8__detail15_BracketMatcherINSt7__cxx1112regex_traitsIcEELb0ELb1EED2Ev
0000000000000000 W _ZNSt8__detail15_BracketMatcherINSt7__cxx1112regex_traitsIcEELb1ELb0EED1Ev
0000000000000000 W _ZNSt8__detail15_BracketMatcherINSt7__cxx1112regex_traitsIcEELb1ELb0EED2Ev
0000000000000000 W _ZNSt8__detail15_BracketMatcherINSt7__cxx1112regex_traitsIcEELb1ELb1EE13_M_make_rangeEcc
0000000000000000 W _ZNSt8__detail15_BracketMatcherINSt7__cxx1112regex_traitsIcEELb1ELb1EED1Ev
0000000000000000 W _ZNSt8__detail15_BracketMatcherINSt7__cxx1112regex_traitsIcEELb1ELb1EED2Ev
0000000000000000 W _ZNSt8__detail17__regex_algo_implIN9__gnu_cxx17__normal_iteratorIPKcNSt7__cxx1112basic_stringIcSt11char_traitsIcESaIcEEEEESaINS5_9sub_matchISB_EEEcNS5_12regex_traitsIcEEEEbT_SH_RNS5_13match_resultsISH_T0_EERKNS5_11basic_regexIT1_T2_EENSt15regex_constants15match_flag_typeENS_20_RegexExecutorPolicyEb
0000000000000000 W _ZNSt8__detail4_NFAINSt7__cxx1112regex_traitsIcEEE15_M_insert_dummyEv
0000000000000000 W _ZNSt8__detail4_NFAINSt7__cxx1112regex_traitsIcEEE15_M_insert_stateENS_6_StateIcEE
0000000000000000 W _ZNSt8__detail4_NFAINSt7__cxx1112regex_traitsIcEEE16_M_insert_repeatEllb
0000000000000000 W _ZNSt8__detail4_NFAINSt7__cxx1112regex_traitsIcEEE17_M_insert_backrefEm
0000000000000000 W _ZNSt8__detail4_NFAINSt7__cxx1112regex_traitsIcEEE17_M_insert_matcherESt8functionIFbcEE
0000000000000000 W _ZNSt8__detail4_NFAINSt7__cxx1112regex_traitsIcEEE21_M_insert_subexpr_endEv
0000000000000000 W _ZNSt8__detail4_NFAINSt7__cxx1112regex_traitsIcEEE23_M_insert_subexpr_beginEv
0000000000000000 W _ZNSt8__detail8_ScannerIcE12_M_eat_classEc
0000000000000000 W _ZNSt8__detail8_ScannerIcE14_M_scan_normalEv
0000000000000000 W _ZNSt8__detail8_ScannerIcE16_M_scan_in_braceEv
0000000000000000 W _ZNSt8__detail8_ScannerIcE17_M_eat_escape_awkEv
0000000000000000 W _ZNSt8__detail8_ScannerIcE18_M_eat_escape_ecmaEv
0000000000000000 W _ZNSt8__detail8_ScannerIcE18_M_scan_in_bracketEv
0000000000000000 W _ZNSt8__detail8_ScannerIcE19_M_eat_escape_posixEv
0000000000000000 W _ZNSt8__detail8_ScannerIcEC1EPKcS3_NSt15regex_constants18syntax_option_typeESt6locale
0000000000000000 W _ZNSt8__detail8_ScannerIcEC2EPKcS3_NSt15regex_constants18syntax_option_typeESt6locale
0000000000000000 W _ZNSt8__detail9_CompilerINSt7__cxx1112regex_traitsIcEEE11_M_try_charEv
0000000000000000 W _ZNSt8__detail9_CompilerINSt7__cxx1112regex_traitsIcEEE12_M_assertionEv
0000000000000000 W _ZNSt8__detail9_CompilerINSt7__cxx1112regex_traitsIcEEE13_M_quantifierEv
0000000000000000 W _ZNSt8__detail9_CompilerINSt7__cxx1112regex_traitsIcEEE14_M_alternativeEv
0000000000000000 W _ZNSt8__detail9_CompilerINSt7__cxx1112regex_traitsIcEEE14_M_disjunctionEv
0000000000000000 W _ZNSt8__detail9_CompilerINSt7__cxx1112regex_traitsIcEEE16_M_cur_int_valueEi
0000000000000000 W _ZNSt8__detail9_CompilerINSt7__cxx1112regex_traitsIcEEE18_M_expression_termILb0ELb0EEEbRNS4_13_BracketStateERNS_15_BracketMatcherIS3_XT_EXT0_EEE
0000000000000000 W _ZNSt8__detail9_CompilerINSt7__cxx1112regex_traitsIcEEE18_M_expression_termILb0ELb1EEEbRNS4_13_BracketStateERNS_15_BracketMatcherIS3_XT_EXT0_EEE
0000000000000000 W _ZNSt8__detail9_CompilerINSt7__cxx1112regex_traitsIcEEE18_M_expression_termILb1ELb0EEEbRNS4_13_BracketStateERNS_15_BracketMatcherIS3_XT_EXT0_EEE
0000000000000000 W _ZNSt8__detail9_CompilerINSt7__cxx1112regex_traitsIcEEE18_M_expression_termILb1ELb1EEEbRNS4_13_BracketStateERNS_15_BracketMatcherIS3_XT_EXT0_EEE
0000000000000000 W _ZNSt8__detail9_CompilerINSt7__cxx1112regex_traitsIcEEE21_M_bracket_expressionEv
0000000000000000 W _ZNSt8__detail9_CompilerINSt7__cxx1112regex_traitsIcEEE25_M_insert_bracket_matcherILb0ELb0EEEvb
0000000000000000 W _ZNSt8__detail9_CompilerINSt7__cxx1112regex_traitsIcEEE25_M_insert_bracket_matcherILb0ELb1EEEvb
0000000000000000 W _ZNSt8__detail9_CompilerINSt7__cxx1112regex_traitsIcEEE25_M_insert_bracket_matcherILb1ELb0EEEvb
0000000000000000 W _ZNSt8__detail9_CompilerINSt7__cxx1112regex_traitsIcEEE25_M_insert_bracket_matcherILb1ELb1EEEvb
0000000000000000 W _ZNSt8__detail9_CompilerINSt7__cxx1112regex_traitsIcEEE33_M_insert_character_class_matcherILb0ELb0EEEvv
0000000000000000 W _ZNSt8__detail9_CompilerINSt7__cxx1112regex_traitsIcEEE33_M_insert_character_class_matcherILb0ELb1EEEvv
0000000000000000 W _ZNSt8__detail9_CompilerINSt7__cxx1112regex_traitsIcEEE33_M_insert_character_class_matcherILb1ELb0EEEvv
0000000000000000 W _ZNSt8__detail9_CompilerINSt7__cxx1112regex_traitsIcEEE33_M_insert_character_class_matcherILb1ELb1EEEvv
0000000000000000 W _ZNSt8__detail9_CompilerINSt7__cxx1112regex_traitsIcEEE6_M_popEv
0000000000000000 W _ZNSt8__detail9_CompilerINSt7__cxx1112regex_traitsIcEEE7_M_atomEv
0000000000000000 W _ZNSt8__detail9_CompilerINSt7__cxx1112regex_traitsIcEEEC1EPKcS6_RKSt6localeNSt15regex_constants18syntax_option_typeE
0000000000000000 W _ZNSt8__detail9_CompilerINSt7__cxx1112regex_traitsIcEEEC2EPKcS6_RKSt6localeNSt15regex_constants18syntax_option_typeE
0000000000000000 W _ZNSt8__detail9_ExecutorIN9__gnu_cxx17__normal_iteratorIPKcNSt7__cxx1112basic_stringIcSt11char_traitsIcESaIcEEEEESaINS5_9sub_matchISB_EEENS5_12regex_traitsIcEELb0EE12_M_lookaheadEl
0000000000000000 W _ZNSt8__detail9_ExecutorIN9__gnu_cxx17__normal_iteratorIPKcNSt7__cxx1112basic_stringIcSt11char_traitsIcESaIcEEEEESaINS5_9sub_matchISB_EEENS5_12regex_traitsIcEELb0EE16_M_rep_once_moreENSH_11_Match_modeEl
0000000000000000 W _ZNSt8__detail9_ExecutorIN9__gnu_cxx17__normal_iteratorIPKcNSt7__cxx1112basic_stringIcSt11char_traitsIcESaIcEEEEESaINS5_9sub_matchISB_EEENS5_12regex_traitsIcEELb0EE17_M_handle_backrefENSH_11_Match_modeEl
0000000000000000 W _ZNSt8__detail9_ExecutorIN9__gnu_cxx17__normal_iteratorIPKcNSt7__cxx1112basic_stringIcSt11char_traitsIcESaIcEEEEESaINS5_9sub_matchISB_EEENS5_12regex_traitsIcEELb0EE6_M_dfsENSH_11_Match_modeEl
0000000000000000 W _ZNSt8__detail9_ExecutorIN9__gnu_cxx17__normal_iteratorIPKcNSt7__cxx1112basic_stringIcSt11char_traitsIcESaIcEEEEESaINS5_9sub_matchISB_EEENS5_12regex_traitsIcEELb0EEC1ESB_SB_RSt6vectorISD_SE_ERKNS5_11basic_regexIcSG_EENSt15regex_constants15match_flag_typeE
0000000000000000 W _ZNSt8__detail9_ExecutorIN9__gnu_cxx17__normal_iteratorIPKcNSt7__cxx1112basic_stringIcSt11char_traitsIcESaIcEEEEESaINS5_9sub_matchISB_EEENS5_12regex_traitsIcEELb0EEC2ESB_SB_RSt6vectorISD_SE_ERKNS5_11basic_regexIcSG_EENSt15regex_constants15match_flag_typeE
0000000000000000 W _ZNSt8__detail9_ExecutorIN9__gnu_cxx17__normal_iteratorIPKcNSt7__cxx1112basic_stringIcSt11char_traitsIcESaIcEEEEESaINS5_9sub_matchISB_EEENS5_12regex_traitsIcEELb0EED1Ev
0000000000000000 W _ZNSt8__detail9_ExecutorIN9__gnu_cxx17__normal_iteratorIPKcNSt7__cxx1112basic_stringIcSt11char_traitsIcESaIcEEEEESaINS5_9sub_matchISB_EEENS5_12regex_traitsIcEELb0EED2Ev
0000000000000000 W _ZNSt8__detail9_ExecutorIN9__gnu_cxx17__normal_iteratorIPKcNSt7__cxx1112basic_stringIcSt11char_traitsIcESaIcEEEEESaINS5_9sub_matchISB_EEENS5_12regex_traitsIcEELb1EE12_M_lookaheadEl
0000000000000000 W _ZNSt8__detail9_ExecutorIN9__gnu_cxx17__normal_iteratorIPKcNSt7__cxx1112basic_stringIcSt11char_traitsIcESaIcEEEEESaINS5_9sub_matchISB_EEENS5_12regex_traitsIcEELb1EE16_M_rep_once_moreENSH_11_Match_modeEl
0000000000000000 W _ZNSt8__detail9_ExecutorIN9__gnu_cxx17__normal_iteratorIPKcNSt7__cxx1112basic_stringIcSt11char_traitsIcESaIcEEEEESaINS5_9sub_matchISB_EEENS5_12regex_traitsIcEELb1EE6_M_dfsENSH_11_Match_modeEl
0000000000000000 W _ZNSt8__detail9_ExecutorIN9__gnu_cxx17__normal_iteratorIPKcNSt7__cxx1112basic_stringIcSt11char_traitsIcESaIcEEEEESaINS5_9sub_matchISB_EEENS5_12regex_traitsIcEELb1EED1Ev
0000000000000000 W _ZNSt8__detail9_ExecutorIN9__gnu_cxx17__normal_iteratorIPKcNSt7__cxx1112basic_stringIcSt11char_traitsIcESaIcEEEEESaINS5_9sub_matchISB_EEENS5_12regex_traitsIcEELb1EED2Ev
0000000000000000 W _ZNSt8__detail9_StateSeqINSt7__cxx1112regex_traitsIcEEE8_M_cloneEv
                 U _ZNSt8ios_base4InitC1Ev
                 U _ZNSt8ios_base4InitD1Ev
                 U _ZNSt8ios_base7failureB5cxx11D1Ev
                 U _ZNSt8ios_baseC2Ev
                 U _ZNSt8ios_baseD2Ev
                 U _ZNSt9bad_allocD1Ev
                 U _ZNSt9basic_iosIcSt11char_traitsIcEE4initEPSt15basic_streambufIcS1_E
                 U _ZNSt9basic_iosIcSt11char_traitsIcEE5clearESt12_Ios_Iostate
                 U _ZNSt9exceptionD1Ev
0000000000000000 W _ZSt11__remove_ifIN9__gnu_cxx17__normal_iteratorIPcNSt7__cxx1112basic_stringIcSt11char_traitsIcESaIcEEEEENS0_5__ops16_Iter_equals_valIKcEEET_SE_SE_T0_
0000000000000000 W _ZSt13binary_searchIN9__gnu_cxx17__normal_iteratorIPKcSt6vectorIcSaIcEEEEcEbT_S8_RKT0_
0000000000000000 W _ZSt15__regex_replaceISt20back_insert_iteratorINSt7__cxx1112basic_stringIcSt11char_traitsIcESaIcEEEEN9__gnu_cxx17__normal_iteratorIPKcS6_EENS1_12regex_traitsIcEEcET_SF_T0_SG_RKNS1_11basic_regexIT2_T1_EEPKSI_mNSt15regex_constants15match_flag_typeE
0000000000000000 W _ZSt16__do_uninit_copyIN9__gnu_cxx17__normal_iteratorIPKNSt7__cxx1112basic_stringIcSt11char_traitsIcESaIcEEESt6vectorIS7_SaIS7_EEEEPS7_ET0_T_SG_SF_
                 U _ZSt16__ostream_insertIcSt11char_traitsIcEERSt13basic_ostreamIT_T0_ES6_PKS3_l
                 U _ZSt16__throw_bad_castv
                 U _ZSt17__throw_bad_allocv
                 U _ZSt18_Rb_tree_decrementPSt18_Rb_tree_node_base
                 U _ZSt18_Rb_tree_incrementPSt18_Rb_tree_node_base
                 U _ZSt19__throw_logic_errorPKc
                 U _ZSt19__throw_regex_errorNSt15regex_constants10error_typeE
0000000000000000 W _ZSt19__throw_regex_errorNSt15regex_constants10error_typeEPKc
                 U _ZSt20__throw_length_errorPKc
                 U _ZSt24__throw_out_of_range_fmtPKcz
                 U _ZSt25__throw_bad_function_callv
                 U _ZSt28__throw_bad_array_new_lengthv
                 U _ZSt29_Rb_tree_insert_and_rebalancebPSt18_Rb_tree_node_baseS0_RS_
                 U _ZSt4cerr
                 U _ZSt4cout
                 U _ZSt4endlIcSt11char_traitsIcEERSt13basic_ostreamIT_T0_ES6_
0000000000000000 W _ZSt4findIN9__gnu_cxx17__normal_iteratorIPKNSt7__cxx1112basic_stringIcSt11char_traitsIcESaIcEEESt6vectorIS7_SaIS7_EEEES7_ET_SE_SE_RKT0_
                 U _ZSt7getlineIcSt11char_traitsIcESaIcEERSt13basic_istreamIT_T0_ES7_RNSt7__cxx1112basic_stringIS4_S5_T1_EES4_
                 U _ZSt9use_facetINSt7__cxx117collateIcEEERKT_RKSt6locale
                 U _ZSt9use_facetISt5ctypeIcEERKT_RKSt6locale
                 U _ZStlsISt11char_traitsIcEERSt13basic_ostreamIcT_ES5_PKc
0000000000000000 W _ZStplIcSt11char_traitsIcESaIcEENSt7__cxx1112basic_stringIT_T0_T1_EEOS8_S9_
0000000000000000 W _ZStplIcSt11char_traitsIcESaIcEENSt7__cxx1112basic_stringIT_T0_T1_EEPKS5_RKS8_
0000000000000000 W _ZStplIcSt11char_traitsIcESaIcEENSt7__cxx1112basic_stringIT_T0_T1_EERKS8_PKS5_
0000000000000000 W _ZStplIcSt11char_traitsIcESaIcEENSt7__cxx1112basic_stringIT_T0_T1_EERKS8_SA_
0000000000000000 V _ZTC9igzstream0_12gzstreambase
0000000000000000 V _ZTC9igzstream408_Si
0000000000000000 V _ZTC9ogzstream0_12gzstreambase
0000000000000000 V _ZTC9ogzstream408_So
                 U _ZTI12gzstreambase
                 U _ZTI5MTree
0000000000000000 V _ZTI8MExtTree
0000000000000000 V _ZTI9igzstream
0000000000000000 V _ZTI9ogzstream
                 U _ZTINSt6locale5facetE
0000000000000000 V _ZTINSt8__detail11_AnyMatcherINSt7__cxx1112regex_traitsIcEELb0ELb0ELb0EEE
0000000000000000 V _ZTINSt8__detail11_AnyMatcherINSt7__cxx1112regex_traitsIcEELb0ELb0ELb1EEE
0000000000000000 V _ZTINSt8__detail11_AnyMatcherINSt7__cxx1112regex_traitsIcEELb0ELb1ELb0EEE
0000000000000000 V _ZTINSt8__detail11_AnyMatcherINSt7__cxx1112regex_traitsIcEELb0ELb1ELb1EEE
0000000000000000 V _ZTINSt8__detail11_AnyMatcherINSt7__cxx1112regex_traitsIcEELb1ELb0ELb0EEE
0000000000000000 V _ZTINSt8__detail11_AnyMatcherINSt7__cxx1112regex_traitsIcEELb1ELb0ELb1EEE
0000000000000000 V _ZTINSt8__detail11_AnyMatcherINSt7__cxx1112regex_traitsIcEELb1ELb1ELb0EEE
0000000000000000 V _ZTINSt8__detail11_AnyMatcherINSt7__cxx1112regex_traitsIcEELb1ELb1ELb1EEE
0000000000000000 V _ZTINSt8__detail12_CharMatcherINSt7__cxx1112regex_traitsIcEELb0ELb0EEE
0000000000000000 V _ZTINSt8__detail12_CharMatcherINSt7__cxx1112regex_traitsIcEELb0ELb1EEE
0000000000000000 V _ZTINSt8__detail12_CharMatcherINSt7__cxx1112regex_traitsIcEELb1ELb0EEE
0000000000000000 V _ZTINSt8__detail12_CharMatcherINSt7__cxx1112regex_traitsIcEELb1ELb1EEE
0000000000000000 V _ZTINSt8__detail15_BracketMatcherINSt7__cxx1112regex_traitsIcEELb0ELb0EEE
0000000000000000 V _ZTINSt8__detail15_BracketMatcherINSt7__cxx1112regex_traitsIcEELb0ELb1EEE
0000000000000000 V _ZTINSt8__detail15_BracketMatcherINSt7__cxx1112regex_traitsIcEELb1ELb0EEE
0000000000000000 V _ZTINSt8__detail15_BracketMatcherINSt7__cxx1112regex_traitsIcEELb1ELb1EEE
                 U _ZTINSt8ios_base7failureB5cxx11E
                 U _ZTISi
                 U _ZTISo
0000000000000000 V _ZTISt11_Mutex_baseILN9__gnu_cxx12_Lock_policyE2EE
                 U _ZTISt11regex_error
0000000000000000 V _ZTISt16_Sp_counted_baseILN9__gnu_cxx12_Lock_policyE2EE
0000000000000000 V _ZTISt23_Sp_counted_ptr_inplaceINSt8__detail4_NFAINSt7__cxx1112regex_traitsIcEEEESaIvELN9__gnu_cxx12_Lock_policyE2EE
                 U _ZTISt5ctypeIcE
                 U _ZTISt9bad_alloc
                 U _ZTISt9exception
0000000000000000 V _ZTS8MExtTree
0000000000000000 V _ZTS9igzstream
0000000000000000 V _ZTS9ogzstream
0000000000000000 V _ZTSNSt8__detail11_AnyMatcherINSt7__cxx1112regex_traitsIcEELb0ELb0ELb0EEE
0000000000000000 V _ZTSNSt8__detail11_AnyMatcherINSt7__cxx1112regex_traitsIcEELb0ELb0ELb1EEE
0000000000000000 V _ZTSNSt8__detail11_AnyMatcherINSt7__cxx1112regex_traitsIcEELb0ELb1ELb0EEE
0000000000000000 V _ZTSNSt8__detail11_AnyMatcherINSt7__cxx1112regex_traitsIcEELb0ELb1ELb1EEE
0000000000000000 V _ZTSNSt8__detail11_AnyMatcherINSt7__cxx1112regex_traitsIcEELb1ELb0ELb0EEE
0000000000000000 V _ZTSNSt8__detail11_AnyMatcherINSt7__cxx1112regex_traitsIcEELb1ELb0ELb1EEE
0000000000000000 V _ZTSNSt8__detail11_AnyMatcherINSt7__cxx1112regex_traitsIcEELb1ELb1ELb0EEE
0000000000000000 V _ZTSNSt8__detail11_AnyMatcherINSt7__cxx1112regex_traitsIcEELb1ELb1ELb1EEE
0000000000000000 V _ZTSNSt8__detail12_CharMatcherINSt7__cxx1112regex_traitsIcEELb0ELb0EEE
0000000000000000 V _ZTSNSt8__detail12_CharMatcherINSt7__cxx1112regex_traitsIcEELb0ELb1EEE
0000000000000000 V _ZTSNSt8__detail12_CharMatcherINSt7__cxx1112regex_traitsIcEELb1ELb0EEE
0000000000000000 V _ZTSNSt8__detail12_CharMatcherINSt7__cxx1112regex_traitsIcEELb1ELb1EEE
0000000000000000 V _ZTSNSt8__detail15_BracketMatcherINSt7__cxx1112regex_traitsIcEELb0ELb0EEE
0000000000000000 V _ZTSNSt8__detail15_BracketMatcherINSt7__cxx1112regex_traitsIcEELb0ELb1EEE
0000000000000000 V _ZTSNSt8__detail15_BracketMatcherINSt7__cxx1112regex_traitsIcEELb1ELb0EEE
0000000000000000 V _ZTSNSt8__detail15_BracketMatcherINSt7__cxx1112regex_traitsIcEELb1ELb1EEE
0000000000000000 V _ZTSSt11_Mutex_baseILN9__gnu_cxx12_Lock_policyE2EE
0000000000000000 V _ZTSSt16_Sp_counted_baseILN9__gnu_cxx12_Lock_policyE2EE
0000000000000000 V _ZTSSt19_Sp_make_shared_tag
0000000000000000 V _ZTSSt23_Sp_counted_ptr_inplaceINSt8__detail4_NFAINSt7__cxx1112regex_traitsIcEEEESaIvELN9__gnu_cxx12_Lock_policyE2EE
0000000000000000 V _ZTT9igzstream
0000000000000000 V _ZTT9ogzstream
                 U _ZTTNSt7__cxx1118basic_stringstreamIcSt11char_traitsIcESaIcEEE
                 U _ZTTNSt7__cxx1119basic_istringstreamIcSt11char_traitsIcESaIcEEE
                 U _ZTTNSt7__cxx1119basic_ostringstreamIcSt11char_traitsIcESaIcEEE
                 U _ZTTSt14basic_ifstreamIcSt11char_traitsIcEE
                 U _ZTTSt14basic_ofstreamIcSt11char_traitsIcEE
                 U _ZTV11gzstreambuf
                 U _ZTV12AliSimulator
0000000000000000 V _ZTV8MExtTree
0000000000000000 V _ZTV9igzstream
0000000000000000 V _ZTV9ogzstream
                 U _ZTVN10__cxxabiv117__class_type_infoE
                 U _ZTVN10__cxxabiv120__si_class_type_infoE
                 U _ZTVN10__cxxabiv121__vmi_class_type_infoE
                 U _ZTVNSt7__cxx1115basic_stringbufIcSt11char_traitsIcESaIcEEE
                 U _ZTVNSt7__cxx1118basic_stringstreamIcSt11char_traitsIcESaIcEEE
                 U _ZTVNSt7__cxx1119basic_istringstreamIcSt11char_traitsIcESaIcEEE
                 U _ZTVNSt7__cxx1119basic_ostringstreamIcSt11char_traitsIcESaIcEEE
                 U _ZTVNSt8ios_base7failureB5cxx11E
                 U _ZTVSt11regex_error
                 U _ZTVSt13basic_filebufIcSt11char_traitsIcEE
                 U _ZTVSt14basic_ifstreamIcSt11char_traitsIcEE
                 U _ZTVSt14basic_ofstreamIcSt11char_traitsIcEE
                 U _ZTVSt15basic_streambufIcSt11char_traitsIcEE
0000000000000000 V _ZTVSt23_Sp_counted_ptr_inplaceINSt8__detail4_NFAINSt7__cxx1112regex_traitsIcEEEESaIvELN9__gnu_cxx12_Lock_policyE2EE
                 U _ZTVSt9bad_alloc
                 U _ZTVSt9basic_iosIcSt11char_traitsIcEE
                 U _ZTVSt9exception
0000000000000070 W _ZThn408_N9igzstreamD0Ev
00000000000000e0 W _ZThn408_N9igzstreamD1Ev
0000000000000070 W _ZThn408_N9ogzstreamD0Ev
0000000000000070 W _ZThn408_N9ogzstreamD1Ev
00000000000000f0 W _ZTv0_n24_N9igzstreamD0Ev
0000000000000070 W _ZTv0_n24_N9igzstreamD1Ev
00000000000000f0 W _ZTv0_n24_N9ogzstreamD0Ev
00000000000000e0 W _ZTv0_n24_N9ogzstreamD1Ev
0000000000000000 u _ZZNKSt7__cxx1112regex_traitsIcE16lookup_classnameIPKcEENS1_10_RegexMaskET_S6_bE12__classnames
0000000000000000 u _ZZNKSt7__cxx1112regex_traitsIcE18lookup_collatenameIPKcEENS_12basic_stringIcSt11char_traitsIcESaIcEEET_SA_E14__collatenames
0000000000000000 W _ZZNKSt7__cxx1113match_resultsIN9__gnu_cxx17__normal_iteratorIPKcNS_12basic_stringIcSt11char_traitsIcESaIcEEEEESaINS_9sub_matchISA_EEEE6formatISt20back_insert_iteratorIS9_EEET_SI_S4_S4_NSt15regex_constants15match_flag_typeEENKUlmE_clEm
0000000000000000 u _ZZNKSt8__detail11_AnyMatcherINSt7__cxx1112regex_traitsIcEELb0ELb0ELb0EEclEcE5__nul
0000000000000000 u _ZZNKSt8__detail11_AnyMatcherINSt7__cxx1112regex_traitsIcEELb0ELb0ELb1EEclEcE5__nul
0000000000000000 u _ZZNKSt8__detail11_AnyMatcherINSt7__cxx1112regex_traitsIcEELb0ELb1ELb0EEclEcE5__nul
0000000000000000 u _ZZNKSt8__detail11_AnyMatcherINSt7__cxx1112regex_traitsIcEELb0ELb1ELb1EEclEcE5__nul
0000000000000000 W _ZZNKSt8__detail15_BracketMatcherINSt7__cxx1112regex_traitsIcEELb0ELb0EE8_M_applyEcSt17integral_constantIbLb0EEENKUlvE_clEv
0000000000000000 W _ZZNKSt8__detail15_BracketMatcherINSt7__cxx1112regex_traitsIcEELb0ELb1EE8_M_applyEcSt17integral_constantIbLb0EEENKUlvE_clEv
0000000000000000 W _ZZNKSt8__detail15_BracketMatcherINSt7__cxx1112regex_traitsIcEELb1ELb0EE8_M_applyEcSt17integral_constantIbLb0EEENKUlvE_clEv
0000000000000000 W _ZZNKSt8__detail15_BracketMatcherINSt7__cxx1112regex_traitsIcEELb1ELb1EE8_M_applyEcSt17integral_constantIbLb0EEENKUlvE_clEv
0000000000000000 u _ZZNKSt8__detail9_ExecutorIN9__gnu_cxx17__normal_iteratorIPKcNSt7__cxx1112basic_stringIcSt11char_traitsIcESaIcEEEEESaINS5_9sub_matchISB_EEENS5_12regex_traitsIcEELb0EE10_M_is_wordEcE3__s
0000000000000000 u _ZZNKSt8__detail9_ExecutorIN9__gnu_cxx17__normal_iteratorIPKcNSt7__cxx1112basic_stringIcSt11char_traitsIcESaIcEEEEESaINS5_9sub_matchISB_EEENS5_12regex_traitsIcEELb1EE10_M_is_wordEcE3__s
0000000000000000 u _ZZNSt19_Sp_make_shared_tag5_S_tiEvE5__tag
                 U _ZdaPv
                 U _ZdlPv
                 U _Znam
                 U _Znwm
                 U __cxa_allocate_exception
                 U __cxa_atexit
                 U __cxa_bad_cast
                 U __cxa_begin_catch
                 U __cxa_end_catch
                 U __cxa_free_exception
                 U __cxa_get_exception_ptr
                 U __cxa_guard_abort
                 U __cxa_guard_acquire
                 U __cxa_guard_release
                 U __cxa_rethrow
                 U __cxa_throw
                 U __dso_handle
                 U __dynamic_cast
                 U __gxx_personality_v0
                 U __libc_single_threaded
                 U abort
                 U memcmp
                 U memcpy
                 U memmove
                 U memset
                 U omp_get_num_threads
                 U omp_get_thread_num
                 U omp_get_wtime
                 U remove
                 U round
                 U strchr
                 U strcmp
                 U strcpy
                 U strlen
                 U strrchr
                 U toupper

libiqtree2_fun.cpp.o:
0000000000000000 V DW.ref.__gxx_personality_v0
                 U _GLOBAL_OFFSET_TABLE_
                 U _Unwind_Resume
                 U _Z10fileExistsNSt7__cxx1112basic_stringIcSt11char_traitsIcESaIcEEE
                 U _Z10outWarningNSt7__cxx1112basic_stringIcSt11char_traitsIcESaIcEEE
                 U _Z11init_randomibPPi
                 U _Z13finish_randomPi
                 U _Z14printCopyrightRSo
                 U _Z15instrset_detectv
                 U _Z16runPhyloAnalysisR6ParamsP10Checkpoint
                 U _Z18generateRandomTreeR6Params
0000000000000000 T _Z21calculate_RF_distanceRKNSt7__cxx1112basic_stringIcSt11char_traitsIcESaIcEEES6_
                 U _Z21countPhysicalCPUCoresv
0000000000000000 T _Z21phylogenetic_analysisRNSt7__cxx1112basic_stringIcSt11char_traitsIcESaIcEEEi
0000000000000000 T _Z25generate_random_tree_fileiiNSt7__cxx1112basic_stringIcSt11char_traitsIcESaIcEEES4_
                 U _Z7hasFMA3v
                 U _Z8outErrorNSt7__cxx1112basic_stringIcSt11char_traitsIcESaIcEEEb
                 U _Z8outErrorPKcb
0000000000000000 u _Z9_log_fileB5cxx11
0000000000000000 u _ZGV5cmust
0000000000000000 u _ZGV8_err_buf
0000000000000000 u _ZGV8_out_buf
0000000000000000 u _ZGV9_log_fileB5cxx11
0000000000000000 u _ZGV9_must_buf
                 U _ZN10Checkpoint11setFileNameENSt7__cxx1112basic_stringIcSt11char_traitsIcESaIcEEE
                 U _ZN10Checkpoint11startStructENSt7__cxx1112basic_stringIcSt11char_traitsIcESaIcEEE
0000000000000000 W _ZN10Checkpoint3putINSt7__cxx1112basic_stringIcSt11char_traitsIcESaIcEEEEEvS6_T_
0000000000000000 W _ZN10Checkpoint3putIiEEvNSt7__cxx1112basic_stringIcSt11char_traitsIcESaIcEEET_
0000000000000000 W _ZN10Checkpoint3putIlEEvNSt7__cxx1112basic_stringIcSt11char_traitsIcESaIcEEET_
                 U _ZN10Checkpoint4loadEv
                 U _ZN10Checkpoint6hasKeyENSt7__cxx1112basic_stringIcSt11char_traitsIcESaIcEEE
                 U _ZN10Checkpoint7getBoolENSt7__cxx1112basic_stringIcSt11char_traitsIcESaIcEEE
                 U _ZN10Checkpoint9endStructEv
                 U _ZN10CheckpointC1Ev
0000000000000000 W _ZN12errstreambuf4syncEv
0000000000000000 W _ZN12errstreambuf8overflowEi
0000000000000000 W _ZN12errstreambufD0Ev
0000000000000000 W _ZN12errstreambufD1Ev
0000000000000000 W _ZN12errstreambufD2Ev
                 U _ZN12outstreambuf5closeEv
0000000000000000 W _ZN12outstreambufD0Ev
0000000000000000 W _ZN12outstreambufD1Ev
0000000000000000 W _ZN12outstreambufD2Ev
0000000000000000 W _ZN13muststreambuf4syncEv
0000000000000000 W _ZN13muststreambuf8overflowEi
0000000000000000 W _ZN13muststreambufD0Ev
0000000000000000 W _ZN13muststreambufD1Ev
0000000000000000 W _ZN13muststreambufD2Ev
                 U _ZN16progress_display18setProgressDisplayEb
                 U _ZN5MTree13computeRFDistERSiRSt6vectorIdSaIdEEib
                 U _ZN5MTree15read_TreeStringENSt7__cxx1112basic_stringIcSt11char_traitsIcESaIcEEEb
                 U _ZN5MTreeC1Ev
                 U _ZN5MTreeD1Ev
                 U _ZN6Params10setDefaultEv
                 U _ZN6Params11getInstanceEv
0000000000000000 W _ZN6ParamsD1Ev
0000000000000000 W _ZN6ParamsD2Ev
0000000000000000 W _ZN9CkpStreamD0Ev
0000000000000000 W _ZN9CkpStreamD1Ev
                 U _ZN9MPIHelper11getInstanceEv
                 U _ZN9MPIHelper14syncRandomSeedEv
                 U _ZN9PhyloTreeC1Ev
                 U _ZN9PhyloTreeD1Ev
                 U _ZNKSt5ctypeIcE13_M_widen_initEv
0000000000000000 W _ZNKSt5ctypeIcE8do_widenEc
                 U _ZNKSt7__cxx1112basic_stringIcSt11char_traitsIcESaIcEE7compareEPKc
                 U _ZNSdD2Ev
                 U _ZNSi5seekgElSt12_Ios_Seekdir
                 U _ZNSirsERi
                 U _ZNSo3putEc
                 U _ZNSo5flushEv
                 U _ZNSo9_M_insertIlEERSoT_
                 U _ZNSoC1EPSt15basic_streambufIcSt11char_traitsIcEE
                 U _ZNSoD1Ev
                 U _ZNSolsEi
                 U _ZNSt12__basic_fileIcED1Ev
                 U _ZNSt13basic_filebufIcSt11char_traitsIcEE5closeEv
                 U _ZNSt13basic_filebufIcSt11char_traitsIcEEC1Ev
                 U _ZNSt13basic_filebufIcSt11char_traitsIcEED1Ev
                 U _ZNSt15basic_streambufIcSt11char_traitsIcEE5imbueERKSt6locale
                 U _ZNSt15basic_streambufIcSt11char_traitsIcEE5uflowEv
                 U _ZNSt15basic_streambufIcSt11char_traitsIcEE6setbufEPcl
                 U _ZNSt15basic_streambufIcSt11char_traitsIcEE6xsgetnEPcl
                 U _ZNSt15basic_streambufIcSt11char_traitsIcEE6xsputnEPKcl
                 U _ZNSt15basic_streambufIcSt11char_traitsIcEE7seekoffElSt12_Ios_SeekdirSt13_Ios_Openmode
                 U _ZNSt15basic_streambufIcSt11char_traitsIcEE7seekposESt4fposI11__mbstate_tESt13_Ios_Openmode
                 U _ZNSt15basic_streambufIcSt11char_traitsIcEE9pbackfailEi
                 U _ZNSt15basic_streambufIcSt11char_traitsIcEE9showmanycEv
                 U _ZNSt15basic_streambufIcSt11char_traitsIcEE9underflowEv
                 U _ZNSt15basic_streambufIcSt11char_traitsIcEEC2Ev
                 U _ZNSt6localeC1Ev
                 U _ZNSt6localeD1Ev
                 U _ZNSt7__cxx1112basic_stringIcSt11char_traitsIcESaIcEE10_M_replaceEmmPKcm
                 U _ZNSt7__cxx1112basic_stringIcSt11char_traitsIcESaIcEE6appendEPKc
                 U _ZNSt7__cxx1112basic_stringIcSt11char_traitsIcESaIcEE7reserveEm
                 U _ZNSt7__cxx1112basic_stringIcSt11char_traitsIcESaIcEE9_M_appendEPKcm
                 U _ZNSt7__cxx1112basic_stringIcSt11char_traitsIcESaIcEE9_M_assignERKS4_
                 U _ZNSt7__cxx1112basic_stringIcSt11char_traitsIcESaIcEE9_M_createERmm
                 U _ZNSt7__cxx1112basic_stringIcSt11char_traitsIcESaIcEEC1EOS4_
                 U _ZNSt7__cxx1112basic_stringIcSt11char_traitsIcESaIcEED1Ev
                 U _ZNSt7__cxx1115basic_stringbufIcSt11char_traitsIcESaIcEE7_M_syncEPcmm
0000000000000000 W _ZNSt7__cxx1115basic_stringbufIcSt11char_traitsIcESaIcEED0Ev
0000000000000000 W _ZNSt7__cxx1115basic_stringbufIcSt11char_traitsIcESaIcEED1Ev
0000000000000000 W _ZNSt7__cxx1115basic_stringbufIcSt11char_traitsIcESaIcEED2Ev
                 U _ZNSt7__cxx1118basic_stringstreamIcSt11char_traitsIcESaIcEED1Ev
0000000000000000 W _ZNSt8_Rb_treeINSt7__cxx1112basic_stringIcSt11char_traitsIcESaIcEEESt4pairIKS5_S5_ESt10_Select1stIS8_ESt4lessIS5_ESaIS8_EE24_M_get_insert_unique_posERS7_
0000000000000000 W _ZNSt8_Rb_treeINSt7__cxx1112basic_stringIcSt11char_traitsIcESaIcEEESt4pairIKS5_S5_ESt10_Select1stIS8_ESt4lessIS5_ESaIS8_EE29_M_get_insert_hint_unique_posESt23_Rb_tree_const_iteratorIS8_ERS7_
                 U _ZNSt8ios_base4InitC1Ev
                 U _ZNSt8ios_base4InitD1Ev
                 U _ZNSt8ios_baseC2Ev
                 U _ZNSt8ios_baseD2Ev
                 U _ZNSt9basic_iosIcSt11char_traitsIcEE4initEPSt15basic_streambufIcS1_E
                 U _ZNSt9basic_iosIcSt11char_traitsIcEE5clearESt12_Ios_Iostate
                 U _ZNSt9basic_iosIcSt11char_traitsIcEE5rdbufEPSt15basic_streambufIcS1_E
                 U _ZSt16__ostream_insertIcSt11char_traitsIcEERSt13basic_ostreamIT_T0_ES6_PKS3_l
                 U _ZSt16__throw_bad_castv
                 U _ZSt18_Rb_tree_decrementPSt18_Rb_tree_node_base
                 U _ZSt18_Rb_tree_incrementPSt18_Rb_tree_node_base
                 U _ZSt19__throw_logic_errorPKc
                 U _ZSt20__throw_length_errorPKc
                 U _ZSt28__throw_bad_array_new_lengthv
                 U _ZSt29_Rb_tree_insert_and_rebalancebPSt18_Rb_tree_node_baseS0_RS_
                 U _ZSt4cerr
                 U _ZSt4cout
                 U _ZSt4endlIcSt11char_traitsIcEERSt13basic_ostreamIT_T0_ES6_
                 U _ZStlsISt11char_traitsIcEERSt13basic_ostreamIcT_ES5_PKc
0000000000000000 W _ZStplIcSt11char_traitsIcESaIcEENSt7__cxx1112basic_stringIT_T0_T1_EEPKS5_RKS8_
0000000000000000 W _ZStplIcSt11char_traitsIcESaIcEENSt7__cxx1112basic_stringIT_T0_T1_EERKS8_SA_
0000000000000000 V _ZTC9CkpStream0_NSt7__cxx1118basic_stringstreamIcSt11char_traitsIcESaIcEEE
0000000000000000 V _ZTC9CkpStream0_Sd
0000000000000000 V _ZTC9CkpStream0_Si
0000000000000000 V _ZTC9CkpStream16_So
0000000000000000 V _ZTI12errstreambuf
0000000000000000 V _ZTI13muststreambuf
0000000000000000 V _ZTI9CkpStream
                 U _ZTINSt7__cxx1118basic_stringstreamIcSt11char_traitsIcESaIcEEE
                 U _ZTISd
                 U _ZTISi
                 U _ZTISo
                 U _ZTISt15basic_streambufIcSt11char_traitsIcEE
0000000000000000 V _ZTS12errstreambuf
0000000000000000 V _ZTS13muststreambuf
0000000000000000 V _ZTS9CkpStream
0000000000000000 V _ZTT9CkpStream
                 U _ZTTNSt7__cxx1118basic_stringstreamIcSt11char_traitsIcESaIcEEE
                 U _ZTTSt14basic_ofstreamIcSt11char_traitsIcEE
0000000000000000 V _ZTV12errstreambuf
                 U _ZTV12outstreambuf
0000000000000000 V _ZTV13muststreambuf
0000000000000000 V _ZTV9CkpStream
                 U _ZTVN10__cxxabiv120__si_class_type_infoE
                 U _ZTVNSt7__cxx1115basic_stringbufIcSt11char_traitsIcESaIcEEE
                 U _ZTVNSt7__cxx1118basic_stringstreamIcSt11char_traitsIcESaIcEEE
                 U _ZTVSt13basic_filebufIcSt11char_traitsIcEE
                 U _ZTVSt14basic_ofstreamIcSt11char_traitsIcEE
                 U _ZTVSt15basic_streambufIcSt11char_traitsIcEE
                 U _ZTVSt9basic_iosIcSt11char_traitsIcEE
00000000000000b0 W _ZThn16_N9CkpStreamD0Ev
00000000000000b0 W _ZThn16_N9CkpStreamD1Ev
0000000000000160 W _ZTv0_n24_N9CkpStreamD0Ev
0000000000000150 W _ZTv0_n24_N9CkpStreamD1Ev
                 U _ZdlPv
                 U _Znwm
                 U __cxa_atexit
                 U __cxa_begin_catch
                 U __cxa_end_catch
                 U __cxa_rethrow
                 U __dso_handle
                 U __gxx_personality_v0
0000000000000000 u _err_buf
0000000000000000 u _must_buf
0000000000000000 u _out_buf
0000000000000000 u cmust
                 U ctime
                 U exit
                 U funcAbort
                 U gethostname
                 U memcmp
                 U memcpy
                 U memmove
                 U omp_get_max_threads
                 U omp_set_nested
                 U omp_set_num_threads
                 U signal
                 U startLogFile
                 U strlen
                 U sysconf
                 U time
                 U verbose_mode

phyloanalysis.cpp.o:
0000000000000008 C .gomp_critical_user_io
0000000000000000 V DW.ref._ZTINSt8ios_base7failureB5cxx11E
0000000000000000 V DW.ref._ZTISt9exception
0000000000000000 V DW.ref.__gxx_personality_v0
                 U GOMP_critical_name_end
                 U GOMP_critical_name_start
                 U NNI_MAX_NR_STEP
                 U _GLOBAL_OFFSET_TABLE_
                 U _Unwind_Resume
0000000000000000 W _Z10_my_assertPKcS0_S0_i
                 U _Z10doTimeTreeP9PhyloTree
                 U _Z10outWarningNSt7__cxx1112basic_stringIcSt11char_traitsIcESaIcEEE
                 U _Z10outWarningPKc
0000000000000000 T _Z10printTreesSt6vectorINSt7__cxx1112basic_stringIcSt11char_traitsIcESaIcEEESaIS5_EER6ParamsS5_
0000000000000000 T _Z10reportRateRSoR9PhyloTree
0000000000000000 T _Z10reportTreeRSt14basic_ofstreamIcSt11char_traitsIcEER6ParamsR9PhyloTreeddd
                 U _Z11init_randomibPPi
0000000000000000 W _Z11nodenamecmpPK4NodeS1_
                 U _Z11printSiteLhPKcP9PhyloTreePdbS0_
0000000000000000 T _Z11reportModelRSoP9AlignmentP10ModelSubst
0000000000000000 T _Z11reportModelRSoR9PhyloTree
0000000000000000 T _Z11restoreTaxaR6IQTreePdRSt6vectorIP4NodeSaIS4_EERS2_INSt7__cxx1112basic_stringIcSt11char_traitsIcESaIcEEESaISD_EE
                 U _Z12convert_timeB5cxx11d
0000000000000000 T _Z12getSymTestIDRSt6vectorI13SymTestResultSaIS0_EERSt3setIiSt4lessIiESaIiEEb
0000000000000000 T _Z12newIQTreeMixR6ParamsP9Alignmenti
0000000000000000 T _Z12runRootstrapR6Params
0000000000000000 T _Z13checkZeroDistP9AlignmentPd
0000000000000000 T _Z13computeMLDistR6ParamsR6IQTreedd
                 U _Z13criterionNameB5cxx1118ModelTestCriterion
                 U _Z13evaluateTreesNSt7__cxx1112basic_stringIcSt11char_traitsIcESaIcEEER6ParamsP6IQTreeRSt6vectorI8TreeInfoSaISA_EERS9_IiSaIiEE
                 U _Z13finish_randomPi
0000000000000000 T _Z13getTreeMixNumR6Params
0000000000000000 T _Z13isTreeMixtureR6Params
0000000000000000 T _Z13printMiscInfoR6ParamsR6IQTreePd
                 U _Z13random_doublePi
0000000000000000 T _Z13reportCreditsRSt14basic_ofstreamIcSt11char_traitsIcEE
                 U _Z14pllTreeCounterB5cxx11
                 U _Z14printHMMResultPKcP9PhyloTreei
0000000000000000 T _Z14printSiteRatesR6IQTreePKcb
                 U _Z14runModelFinderR6ParamsR6IQTreeR15ModelCheckpointRNSt7__cxx1112basic_stringIcSt11char_traitsIcESaIcEEESB_
0000000000000000 T _Z15checkCharInFilePcc
                 U _Z15createAlignmentNSt7__cxx1112basic_stringIcSt11char_traitsIcESaIcEEEPKc9InputTypeS4_
                 U _Z15detectInputFilePKc
0000000000000000 T _Z15exportAliSimCMDR6ParamsR6IQTreeRSo
0000000000000000 T _Z15optimizeConTreeR6ParamsP6IQTree
0000000000000000 T _Z15reportAlignmentRSt14basic_ofstreamIcSt11char_traitsIcEER9Alignmenti
0000000000000000 T _Z15reportNexusFileRSoP10ModelSubst
0000000000000000 T _Z16convertAlignmentR6ParamsP6IQTree
0000000000000000 T _Z16initializeParamsR6ParamsR6IQTree
                 U _Z16printPartitionLhPKcP9PhyloTreePdbS0_
0000000000000000 T _Z16reportReferencesR6ParamsRSt14basic_ofstreamIcSt11char_traitsIcEE
0000000000000000 T _Z16runPhyloAnalysisR6ParamsP10Checkpoint
0000000000000000 T _Z16runPhyloAnalysisR6ParamsP10CheckpointRP6IQTreeRP9Alignment
0000000000000000 T _Z17computePValueSMaxRSt6vectorI13SymTestResultSaIS0_EEii
                 U _Z17optimiseQMixModelR6ParamsRP6IQTreeR15ModelCheckpoint
0000000000000000 T _Z17printAnalysisInfoiR6IQTreeR6Params
                 U _Z17printMarginalProbPKcP9PhyloTree
0000000000000000 T _Z17printOutfilesInfoR6ParamsR6IQTree
0000000000000000 T _Z18computeInitialDistR6ParamsR6IQTree
                 U _Z18convertIntToStringB5cxx11i
                 U _Z18convert_string_vecPKcRSt6vectorINSt7__cxx1112basic_stringIcSt11char_traitsIcESaIcEEESaIS7_EEc
                 U _Z18posRateHeterotachyNSt7__cxx1112basic_stringIcSt11char_traitsIcESaIcEEE
                 U _Z18printSiteStateFreqPKcP9Alignment
                 U _Z18printSiteStateFreqPKcP9PhyloTreePd
0000000000000000 T _Z18reportRate_TreeMixRSoR9PhyloTree
                 U _Z19printSiteLhCategoryPKcP9PhyloTree12SiteLoglType
0000000000000000 T _Z19reportPhyloAnalysisR6ParamsR6IQTreeR15ModelCheckpoint
0000000000000000 T _Z20computeConsensusTreePKciiddS0_S0_S0_P6Params
0000000000000000 T _Z20printFinalSearchInfoR6ParamsR6IQTreedd
                 U _Z20printTreeTestResultsRSt6vectorI8TreeInfoSaIS0_EERS_IiSaIiEES6_NSt7__cxx1112basic_stringIcSt11char_traitsIcESaIcEEE
                 U _Z20readModelsDefinitionR6Params
0000000000000000 T _Z20reportModelSelectionRSt14basic_ofstreamIcSt11char_traitsIcEER6ParamsP15ModelCheckpointP9PhyloTree
0000000000000000 T _Z20runStandardBootstrapR6ParamsP9AlignmentP6IQTree
                 U _Z21convertDoubleToStringB5cxx11d
                 U _Z21countPhysicalCPUCoresv
                 U _Z21printSiteProbCategoryPKcP9PhyloTree12SiteLoglType
0000000000000000 T _Z21reportLinkSubstMatrixRSoP9AlignmentP10ModelSubst
0000000000000000 T _Z21runTreeReconstructionR6ParamsRP6IQTree
0000000000000000 T _Z22assignBootstrapSupportPKciiS0_bS0_S0_R8MExtTreeS0_P6Params
0000000000000000 T _Z22assignBranchSupportNewR6Params
0000000000000000 T _Z23computeConsensusNetworkPKciididS0_S0_S0_
                 U _Z23printAncestralSequencesPKcP9PhyloTree16AncestralSeqType
0000000000000000 T _Z23startTreeReconstructionR6ParamsRP6IQTreeR15ModelCheckpoint
                 U _Z24computeInformationScoresdiiRdS_S_
0000000000000000 T _Z24runUnlinkedPhyloAnalysisR6ParamsP10Checkpoint
0000000000000000 T _Z25computeSiteFrequencyModelR6ParamsP9Alignment
0000000000000000 T _Z25reportSubstitutionProcessRSoR6ParamsR6IQTree
0000000000000000 T _Z26exhaustiveSearchGAMMAInvarR6ParamsR6IQTree
0000000000000000 T _Z27runApproximateBranchLengthsR6ParamsR6IQTree
0000000000000000 T _Z28searchGAMMAInvarByRestartingR6IQTree
0000000000000000 T _Z29runMultipleTreeReconstructionR6ParamsP9AlignmentP6IQTree
0000000000000000 T _Z34computeLoglFromUserInputGAMMAInvarR6ParamsR6IQTree
                 U _Z6WHTestR6ParamsR6IQTree
                 U _Z7posPOMORNSt7__cxx1112basic_stringIcSt11char_traitsIcESaIcEEE
                 U _Z8outErrorNSt7__cxx1112basic_stringIcSt11char_traitsIcESaIcEEEb
                 U _Z8outErrorPKcNSt7__cxx1112basic_stringIcSt11char_traitsIcESaIcEEEb
                 U _Z8outErrorPKcS0_b
                 U _Z8outErrorPKcb
0000000000000000 T _Z9doSymTestP9AlignmentR6Params
0000000000000000 T _Z9newIQTreeR6ParamsP9Alignment
0000000000000000 T _Z9pruneTaxaR6ParamsR6IQTreePdRSt6vectorIP4NodeSaIS6_EERS4_INSt7__cxx1112basic_stringIcSt11char_traitsIcESaIcEEESaISF_EE
0000000000000000 T _Z9runCMapleR6Params
                 U _ZN10Checkpoint11startStructENSt7__cxx1112basic_stringIcSt11char_traitsIcESaIcEEE
                 U _ZN10Checkpoint13keepKeyPrefixENSt7__cxx1112basic_stringIcSt11char_traitsIcESaIcEEE
                 U _ZN10Checkpoint15setDumpIntervalEd
0000000000000000 W _ZN10Checkpoint3putINSt7__cxx1112basic_stringIcSt11char_traitsIcESaIcEEEEEvS6_T_
0000000000000000 W _ZN10Checkpoint3putIiEEvNSt7__cxx1112basic_stringIcSt11char_traitsIcESaIcEEET_
                 U _ZN10Checkpoint4dumpEb
                 U _ZN10Checkpoint7getBoolENSt7__cxx1112basic_stringIcSt11char_traitsIcESaIcEEE
                 U _ZN10Checkpoint7putBoolENSt7__cxx1112basic_stringIcSt11char_traitsIcESaIcEEEb
                 U _ZN10Checkpoint9endStructEv
0000000000000000 W _ZN10Checkpoint9getVectorIdEEbNSt7__cxx1112basic_stringIcSt11char_traitsIcESaIcEEERSt6vectorIT_SaIS8_EE
0000000000000000 W _ZN10Checkpoint9putVectorIdEEvNSt7__cxx1112basic_stringIcSt11char_traitsIcESaIcEEERSt6vectorIT_SaIS8_EE
                 U _ZN10CheckpointC2Ev
                 U _ZN10CheckpointD2Ev
0000000000000000 W _ZN10ModelSubst11isLieMarkovEv
0000000000000000 W _ZN10ModelSubst13fixParametersEb
                 U _ZN10SplitGraph11getTaxaNameERSt6vectorINSt7__cxx1112basic_stringIcSt11char_traitsIcESaIcEEESaIS6_EE
                 U _ZN10SplitGraph11scaleWeightEdbi
                 U _ZN10SplitGraph15saveFileStarDotERSob
                 U _ZN10SplitGraph23findMaxCompatibleSplitsERS_
                 U _ZN10SplitGraph4initER6Params
                 U _ZN10SplitGraph8saveFileEPKc9InputTypeb
                 U _ZN10SplitGraph9maxWeightEv
                 U _ZN10SplitGraphC1Ev
                 U _ZN10SplitGraphD1Ev
0000000000000000 W _ZN11ModelMarkov11getFreqTypeEv
                 U _ZN11SplitIntMap11insertSplitEP5Spliti
                 U _ZN12CandidateSet10printTreesENSt7__cxx1112basic_stringIcSt11char_traitsIcESaIcEEE
                 U _ZN12CandidateSet14saveCheckpointEv
                 U _ZN12CandidateSet23recomputeLoglOfAllTreesER6IQTree
                 U _ZN12CandidateSet6updateENSt7__cxx1112basic_stringIcSt11char_traitsIcESaIcEEEd
                 U _ZN12IQTreeMixHmmC1ER6ParamsP9AlignmentRSt6vectorIP6IQTreeSaIS6_EE
                 U _ZN12ModelFactoryC1ER6ParamsRNSt7__cxx1112basic_stringIcSt11char_traitsIcESaIcEEEP9PhyloTreeP11ModelsBlock
                 U _ZN12NxsTaxaBlock13GetTaxonLabelEj
0000000000000000 W _ZN13PartitionInfoC1ERKS_
0000000000000000 W _ZN13PartitionInfoC2ERKS_
0000000000000000 W _ZN13PartitionInfoD1Ev
0000000000000000 W _ZN13PartitionInfoD2Ev
                 U _ZN14ConstraintTree14readConstraintEPKcRSt6vectorINSt7__cxx1112basic_stringIcSt11char_traitsIcESaIcEEESaIS8_EE
                 U _ZN14ConstraintTree14readConstraintER5MTree
                 U _ZN14PhyloSuperTree20getMaxPartNameLengthEv
                 U _ZN14PhyloSuperTree24printBestPartitionParamsEPKc
                 U _ZN14PhyloSuperTreeC1EP14SuperAlignmentPS_
                 U _ZN14PhyloSuperTreeC1EP14SuperAlignmentb
                 U _ZN14SuperAlignment14printPartitionEPKcS1_
                 U _ZN14SuperAlignment16removePartitionsERSt3setIiSt4lessIiESaIiEE
                 U _ZN14SuperAlignment18computeMissingDataEv
                 U _ZN14SuperAlignment18printSubAlignmentsER6Params
                 U _ZN14SuperAlignment19printPartitionRaxmlEPKc
                 U _ZN14SuperAlignmentC1ER6Params
                 U _ZN14SuperAlignmentC1Ev
                 U _ZN15ModelCheckpoint12getBestModelERNSt7__cxx1112basic_stringIcSt11char_traitsIcESaIcEEE
                 U _ZN15ModelCheckpoint16getOrderedModelsEP9PhyloTreeR17CandidateModelSet
0000000000000000 W _ZN15ModelCheckpointD0Ev
0000000000000000 W _ZN15ModelCheckpointD1Ev
0000000000000000 W _ZN15ModelCheckpointD2Ev
                 U _ZN15PhyloTreeMixlenC1EP9Alignmenti
                 U _ZN17CheckpointFactory13getCheckpointEv
0000000000000000 W _ZN17RateHeterogeneity13isHeterotachyEv
0000000000000000 W _ZN17RateHeterogeneity9getPtnCatEi
                 U _ZN17RateMeyerHaeseler16runIterativeProcER6ParamsR6IQTree
                 U _ZN17RateMeyerHaeselerC1EPcP9PhyloTreeb
                 U _ZN18PhyloSuperTreePlen16printNNIcasesNUMEv
                 U _ZN18PhyloSuperTreePlenC1EP14SuperAlignmentP14PhyloSuperTree
                 U _ZN18PhyloSuperTreePlenC1EP14SuperAlignmenti
                 U _ZN22PhyloSuperTreeUnlinkedC1EP14SuperAlignment
                 U _ZN22SuperAlignmentUnlinkedC1ER6Params
                 U _ZN3PML10StateSpaceD2Ev
                 U _ZN4Node12findNeighborEPS_
                 U _ZN5MTree10insertTaxaERSt6vectorINSt7__cxx1112basic_stringIcSt11char_traitsIcESaIcEEESaIS6_EES9_
                 U _ZN5MTree10printNexusENSt7__cxx1112basic_stringIcSt11char_traitsIcESaIcEEEiS5_
                 U _ZN5MTree10removeTaxaERSt6vectorINSt7__cxx1112basic_stringIcSt11char_traitsIcESaIcEEESaIS6_EE
                 U _ZN5MTree10treeLengthEP4NodeS1_
                 U _ZN5MTree11getTaxaNameERSt6vectorINSt7__cxx1112basic_stringIcSt11char_traitsIcESaIcEEESaIS6_EEP4NodeSB_
0000000000000000 W _ZN5MTree11treeLengthsERSt6vectorIdSaIdEEP4NodeS5_
                 U _ZN5MTree12findLeafNameERNSt7__cxx1112basic_stringIcSt11char_traitsIcESaIcEEEP4NodeS8_
                 U _ZN5MTree13computeRFDistEPKcRSt6vectorIdSaIdEEi
                 U _ZN5MTree13convertToTreeER10SplitGraph
                 U _ZN5MTree13isBifurcatingEP4NodeS1_
                 U _ZN5MTree16getInnerBranchesERSt6vectorISt4pairIP4NodeS3_ESaIS4_EES3_S3_b
                 U _ZN5MTree17countLongBranchesEP4NodeS1_d
                 U _ZN5MTree17parseBranchLengthERNSt7__cxx1112basic_stringIcSt11char_traitsIcESaIcEEERSt6vectorIdSaIdEE
                 U _ZN5MTree17printBranchLengthERSoibP8Neighbor
                 U _ZN5MTree18printBranchLengthsERSoP4NodeS2_
                 U _ZN5MTree18treeLengthInternalEdP4NodeS1_
                 U _ZN5MTree22createBootstrapSupportERSt6vectorINSt7__cxx1112basic_stringIcSt11char_traitsIcESaIcEEESaIS6_EER8MTreeSetR11SplitIntMapPcP4NodeSG_
                 U _ZN5MTree24collapseInternalBranchesEP4NodeS1_d
                 U _ZN5MTree25countZeroInternalBranchesEP4NodeS1_d
                 U _ZN5MTree4initEPKcRb
                 U _ZN5MTree7getTaxaERSt6vectorIP4NodeSaIS2_EES2_S2_
                 U _ZN5MTree7newNodeEiPKc
                 U _ZN5MTree7newNodeEii
                 U _ZN5MTree8copyTreeEPS_
                 U _ZN5MTree8copyTreeEPS_RNSt7__cxx1112basic_stringIcSt11char_traitsIcESaIcEEE
                 U _ZN5MTree8drawTreeERSoid
                 U _ZN5MTree8readTreeEPKcRbi
                 U _ZN5MTree8readTreeERSiRb
                 U _ZN5MTree8sortTaxaEP4NodeS1_
                 U _ZN5MTree9printTreeEPKci
                 U _ZN5MTree9printTreeERSoi
                 U _ZN5MTree9printTreeERSoiP4NodeS2_
0000000000000000 W _ZN5MTree9setParamsEP6Params
                 U _ZN5MTreeC1Ev
                 U _ZN5MTreeC2Ev
                 U _ZN5MTreeD1Ev
                 U _ZN5MTreeD2Ev
                 U _ZN5SplitD1Ev
                 U _ZN5SplitaSERKS_
                 U _ZN6IQTree12getBestScoreEv
                 U _ZN6IQTree13getProbDeleteEv
                 U _ZN6IQTree13initializePLLER6Params
                 U _ZN6IQTree13setCheckpointEP10Checkpoint
                 U _ZN6IQTree15printBestScoresEv
                 U _ZN6IQTree16computeRootstrapER8MTreeSetb
                 U _ZN6IQTree16isInitializedPLLEv
                 U _ZN6IQTree16optimizeBranchesB5cxx11Ei
                 U _ZN6IQTree18computeInitialTreeE16LikelihoodKernelPSi
                 U _ZN6IQTree20inputModelPLL2IQTreeEv
                 U _ZN6IQTree21addTreeToCandidateSetENSt7__cxx1112basic_stringIcSt11char_traitsIcESaIcEEEdbi
                 U _ZN6IQTree24computeRootstrapUnrootedER8MTreeSetPKcb
                 U _ZN6IQTreeC1EP9Alignment
                 U _ZN6IQTreeC1Ev
                 U _ZN6IQTreeD1Ev
                 U _ZN6Params11getInstanceEv
                 U _ZN7PatternC1ERKS_
0000000000000000 W _ZN8MExtTreeD0Ev
0000000000000000 W _ZN8MExtTreeD1Ev
0000000000000000 W _ZN8MExtTreeD2Ev
                 U _ZN8MTreeSet13convertSplitsER10SplitGraphdid
                 U _ZN8MTreeSet13convertSplitsERSt6vectorINSt7__cxx1112basic_stringIcSt11char_traitsIcESaIcEEESaIS6_EER10SplitGraphR11SplitIntMapidPcb
                 U _ZN8MTreeSet14sumTreeWeightsEv
                 U _ZN8MTreeSet4initEPKcRbiiS1_PSt6vectorIiSaIiEEb
                 U _ZN8MTreeSet4initERSt6vectorINSt7__cxx1112basic_stringIcSt11char_traitsIcESaIcEEESaIS6_EERb
                 U _ZN8MTreeSet8isRootedEv
                 U _ZN8MTreeSet9readTreesEPKcRbiiPSt6vectorIiSaIiEEb
                 U _ZN8MTreeSetC1EPKcRbiiS1_
                 U _ZN8MTreeSetC1Ev
                 U _ZN8MTreeSetD1Ev
0000000000000000 W _ZN8Neighbor7getAttrINSt7__cxx1112basic_stringIcSt11char_traitsIcESaIcEEEEEbS6_RT_
0000000000000000 W _ZN8Neighbor7putAttrINSt7__cxx1112basic_stringIcSt11char_traitsIcESaIcEEEEEvS6_T_
                 U _ZN8StopRule10initializeER6Params
                 U _ZN9Alignment10getSeqNameB5cxx11Ei
                 U _ZN9Alignment11getSeqNamesB5cxx11Ev
                 U _ZN9Alignment13printSiteGapsEPKc
                 U _ZN9Alignment14printAlignmentE9InputTypePKcbS2_iS2_
                 U _ZN9Alignment15multinomialProbES_Rd
                 U _ZN9Alignment16addConstPatternsEPc
                 U _ZN9Alignment17readSiteStateFreqEPKc
                 U _ZN9Alignment19convertStateBackStrB5cxx11Ej
                 U _ZN9Alignment20concatenateAlignmentEPS_
                 U _ZN9Alignment24createGapMaskedAlignmentEPS_S0_
0000000000000000 W _ZN9Alignment8getNSiteEv
                 U _ZN9Alignment8getSeqIDERNSt7__cxx1112basic_stringIcSt11char_traitsIcESaIcEEE
                 U _ZN9AlignmentC1EPcS0_R9InputTypeNSt7__cxx1112basic_stringIcSt11char_traitsIcESaIcEEE
0000000000000000 W _ZN9AlignmentC1ERKS_
                 U _ZN9AlignmentC1Ev
0000000000000000 W _ZN9AlignmentC2ERKS_
                 U _ZN9AlignmentD1Ev
0000000000000000 W _ZN9CkpStreamD0Ev
0000000000000000 W _ZN9CkpStreamD1Ev
                 U _ZN9IQTreeMix15setMinBranchLenER6Params
                 U _ZN9IQTreeMix18computeInitialTreeE16LikelihoodKernelPSi
                 U _ZN9MPIHelper11getInstanceEv
                 U _ZN9PhyloTree11computeDistER6ParamsP9AlignmentRPdS5_
                 U _ZN9PhyloTree11optimizeSPREv
                 U _ZN9PhyloTree12computeBioNJER6Params
                 U _ZN9PhyloTree12readTreeFileERKNSt7__cxx1112basic_stringIcSt11char_traitsIcESaIcEEE
                 U _ZN9PhyloTree13copyPhyloTreeEPS_b
0000000000000000 W _ZN9PhyloTree15getModelFactoryEv
                 U _ZN9PhyloTree17approxAllBranchesEP9PhyloNodeS1_
                 U _ZN9PhyloTree17printDistanceFileEv
                 U _ZN9PhyloTree18generateRandomTreeE11TreeGenType
                 U _ZN9PhyloTree18restoreStableCladeEP9AlignmentRSt6vectorIP4NodeSaIS4_EERS2_INSt7__cxx1112basic_stringIcSt11char_traitsIcESaIcEEESaISD_EE
                 U _ZN9PhyloTree19collapseStableCladeEiRSt6vectorIP4NodeSaIS2_EERS0_INSt7__cxx1112basic_stringIcSt11char_traitsIcESaIcEEESaISB_EERPd
                 U _ZN9PhyloTree19computeLogLVarianceEPdd
                 U _ZN9PhyloTree19computeSubtreeDistsEv
                 U _ZN9PhyloTree19doLikelihoodMappingEv
                 U _ZN9PhyloTree21optimizeAllBranchesLSEP9PhyloNodeS1_
                 U _ZN9PhyloTree22computeGeneConcordanceER8MTreeSetRSt3mapINSt7__cxx1112basic_stringIcSt11char_traitsIcESaIcEEES8_St4lessIS8_ESaISt4pairIKS8_S8_EEE
                 U _ZN9PhyloTree22computeSiteConcordanceERSt3mapINSt7__cxx1112basic_stringIcSt11char_traitsIcESaIcEEES6_St4lessIS6_ESaISt4pairIKS6_S6_EEE
                 U _ZN9PhyloTree22decideDistanceFilePathER6Params
                 U _ZN9PhyloTree22printTreeLengthScalingEPKc
                 U _ZN9PhyloTree23computePatternStateFreqEPd
                 U _ZN9PhyloTree23reportLikelihoodMappingERSt14basic_ofstreamIcSt11char_traitsIcEE
                 U _ZN9PhyloTree25computeQuartetConcordanceER8MTreeSet
                 U _ZN9PhyloTree26ensureNumberOfThreadsIsSetEP6Params
                 U _ZN9PhyloTree27computeSeqIdentityAlongTreeEv
                 U _ZN9PhyloTree31computeAllBayesianBranchLengthsEP4NodeS1_
                 U _ZN9PhyloTree34computeAllAncestralSiteConcordanceEv
                 U _ZN9PhyloTree7setRateEP17RateHeterogeneity
0000000000000000 W _ZN9PhyloTree8getModelEv
                 U _ZN9PhyloTree8readTreeEPKcRbi
                 U _ZN9PhyloTree8setModelEP10ModelSubst
                 U _ZN9PhyloTreeC1EP9Alignment
                 U _ZN9PhyloTreeC1Ev
                 U _ZN9TerraceTP20printTreesCompressedERSo
                 U _ZN9TerraceTP7getSizeEv
                 U _ZN9TerraceTPC1ER9PhyloTreeP14SuperAlignment
                 U _ZN9TerraceTPD1Ev
                 U _ZNK6IQTree9getDeleteEv
                 U _ZNK9PhyloTree22getDistanceFileWrittenB5cxx11Ev
                 U _ZNKSt12__basic_fileIcE7is_openEv
                 U _ZNKSt5ctypeIcE13_M_widen_initEv
0000000000000000 W _ZNKSt5ctypeIcE8do_widenEc
                 U _ZNKSt7__cxx1112basic_stringIcSt11char_traitsIcESaIcEE4findEPKcmm
                 U _ZNKSt7__cxx1112basic_stringIcSt11char_traitsIcESaIcEE6substrEmm
                 U _ZNKSt7__cxx1112basic_stringIcSt11char_traitsIcESaIcEE7compareEPKc
                 U _ZNSdD2Ev
                 U _ZNSi10_M_extractIdEERSiRT_
                 U _ZNSirsERi
                 U _ZNSo3putEc
                 U _ZNSo5flushEv
                 U _ZNSo9_M_insertIdEERSoT_
                 U _ZNSo9_M_insertIlEERSoT_
                 U _ZNSo9_M_insertImEERSoT_
                 U _ZNSolsEi
0000000000000000 W _ZNSt10_HashtableINSt7__cxx1112basic_stringIcSt11char_traitsIcESaIcEEESt4pairIKS5_jESaIS8_ENSt8__detail10_Select1stESt8equal_toIS5_ESt4hashIS5_ENSA_18_Mod_range_hashingENSA_20_Default_ranged_hashENSA_20_Prime_rehash_policyENSA_17_Hashtable_traitsILb1ELb0ELb1EEEE5clearEv
0000000000000000 W _ZNSt10_HashtableIP5SplitSt4pairIKS1_iESaIS4_ENSt8__detail10_Select1stESt8equal_toIS1_E14hashfunc_SplitNS6_18_Mod_range_hashingENS6_20_Default_ranged_hashENS6_20_Prime_rehash_policyENS6_17_Hashtable_traitsILb1ELb0ELb1EEEED1Ev
0000000000000000 W _ZNSt10_HashtableIP5SplitSt4pairIKS1_iESaIS4_ENSt8__detail10_Select1stESt8equal_toIS1_E14hashfunc_SplitNS6_18_Mod_range_hashingENS6_20_Default_ranged_hashENS6_20_Prime_rehash_policyENS6_17_Hashtable_traitsILb1ELb0ELb1EEEED2Ev
0000000000000000 W _ZNSt10_HashtableIjSt4pairIKjNSt7__cxx1112basic_stringIcSt11char_traitsIcESaIcEEEESaIS8_ENSt8__detail10_Select1stESt8equal_toIjESt4hashIjENSA_18_Mod_range_hashingENSA_20_Default_ranged_hashENSA_20_Prime_rehash_policyENSA_17_Hashtable_traitsILb0ELb0ELb1EEEE5clearEv
0000000000000000 W _ZNSt10_HashtableIjSt4pairIKjSt6vectorIjSaIjEEESaIS5_ENSt8__detail10_Select1stESt8equal_toIjESt4hashIjENS7_18_Mod_range_hashingENS7_20_Default_ranged_hashENS7_20_Prime_rehash_policyENS7_17_Hashtable_traitsILb0ELb0ELb1EEEE5clearEv
0000000000000000 W _ZNSt12_Destroy_auxILb0EE9__destroyIPNSt7__cxx1112basic_stringIcSt11char_traitsIcESaIcEEEEEvT_S9_
0000000000000000 W _ZNSt12_Destroy_auxILb0EE9__destroyIPSt6vectorIdSaIdEEEEvT_S6_
                 U _ZNSt12__basic_fileIcED1Ev
                 U _ZNSt13basic_filebufIcSt11char_traitsIcEE4openEPKcSt13_Ios_Openmode
                 U _ZNSt13basic_filebufIcSt11char_traitsIcEE5closeEv
                 U _ZNSt13basic_filebufIcSt11char_traitsIcEEC1Ev
                 U _ZNSt13basic_filebufIcSt11char_traitsIcEED1Ev
                 U _ZNSt13runtime_errorC2ERKS_
                 U _ZNSt14basic_ifstreamIcSt11char_traitsIcEED1Ev
                 U _ZNSt14basic_ofstreamIcSt11char_traitsIcEE4openEPKcSt13_Ios_Openmode
                 U _ZNSt14basic_ofstreamIcSt11char_traitsIcEE5closeEv
                 U _ZNSt14basic_ofstreamIcSt11char_traitsIcEEC1Ev
                 U _ZNSt14basic_ofstreamIcSt11char_traitsIcEED1Ev
                 U _ZNSt6localeC1Ev
                 U _ZNSt6localeD1Ev
0000000000000000 W _ZNSt6vectorI13SymTestResultSaIS0_EE17_M_default_appendEm
0000000000000000 W _ZNSt6vectorI13SymTestResultSaIS0_EE8_M_eraseEN9__gnu_cxx17__normal_iteratorIPS0_S2_EES6_
0000000000000000 W _ZNSt6vectorI14CandidateModelSaIS0_EED1Ev
0000000000000000 W _ZNSt6vectorI14CandidateModelSaIS0_EED2Ev
0000000000000000 W _ZNSt6vectorI7PatternSaIS0_EED1Ev
0000000000000000 W _ZNSt6vectorI7PatternSaIS0_EED2Ev
0000000000000000 W _ZNSt6vectorINSt7__cxx1112basic_stringIcSt11char_traitsIcESaIcEEESaIS5_EED1Ev
0000000000000000 W _ZNSt6vectorINSt7__cxx1112basic_stringIcSt11char_traitsIcESaIcEEESaIS5_EED2Ev
0000000000000000 W _ZNSt6vectorIP6IQTreeSaIS1_EE17_M_realloc_insertIJS1_EEEvN9__gnu_cxx17__normal_iteratorIPS1_S3_EEDpOT_
0000000000000000 W _ZNSt6vectorIPdSaIS0_EE17_M_default_appendEm
0000000000000000 W _ZNSt6vectorIS_IdSaIdEESaIS1_EED1Ev
0000000000000000 W _ZNSt6vectorIS_IdSaIdEESaIS1_EED2Ev
0000000000000000 W _ZNSt6vectorIdSaIdEE12emplace_backIJdEEEvDpOT_
0000000000000000 W _ZNSt6vectorIdSaIdEE14_M_fill_insertEN9__gnu_cxx17__normal_iteratorIPdS1_EEmRKd
0000000000000000 W _ZNSt6vectorIdSaIdEE17_M_default_appendEm
0000000000000000 W _ZNSt6vectorIdSaIdEE17_M_realloc_insertIJRKdEEEvN9__gnu_cxx17__normal_iteratorIPdS1_EEDpOT_
0000000000000000 W _ZNSt6vectorIiSaIiEE14_M_fill_insertEN9__gnu_cxx17__normal_iteratorIPiS1_EEmRKi
0000000000000000 W _ZNSt6vectorIiSaIiEE17_M_default_appendEm
                 U _ZNSt7__cxx1112basic_stringIcSt11char_traitsIcESaIcEE10_M_replaceEmmPKcm
                 U _ZNSt7__cxx1112basic_stringIcSt11char_traitsIcESaIcEE6appendEPKc
                 U _ZNSt7__cxx1112basic_stringIcSt11char_traitsIcESaIcEE6appendEPKcm
                 U _ZNSt7__cxx1112basic_stringIcSt11char_traitsIcESaIcEE7reserveEm
                 U _ZNSt7__cxx1112basic_stringIcSt11char_traitsIcESaIcEE9_M_appendEPKcm
                 U _ZNSt7__cxx1112basic_stringIcSt11char_traitsIcESaIcEE9_M_assignERKS4_
                 U _ZNSt7__cxx1112basic_stringIcSt11char_traitsIcESaIcEE9_M_createERmm
                 U _ZNSt7__cxx1112basic_stringIcSt11char_traitsIcESaIcEEC1EOS4_
                 U _ZNSt7__cxx1112basic_stringIcSt11char_traitsIcESaIcEEC1ERKS4_
                 U _ZNSt7__cxx1115basic_stringbufIcSt11char_traitsIcESaIcEE7_M_syncEPcmm
0000000000000000 W _ZNSt7__cxx1115basic_stringbufIcSt11char_traitsIcESaIcEED0Ev
0000000000000000 W _ZNSt7__cxx1115basic_stringbufIcSt11char_traitsIcESaIcEED1Ev
0000000000000000 W _ZNSt7__cxx1115basic_stringbufIcSt11char_traitsIcESaIcEED2Ev
                 U _ZNSt7__cxx1118basic_stringstreamIcSt11char_traitsIcESaIcEED1Ev
0000000000000000 W _ZNSt8_Rb_treeINSt7__cxx1112basic_stringIcSt11char_traitsIcESaIcEEESt4pairIKS5_S5_ESt10_Select1stIS8_ESt4lessIS5_ESaIS8_EE24_M_get_insert_unique_posERS7_
0000000000000000 W _ZNSt8_Rb_treeINSt7__cxx1112basic_stringIcSt11char_traitsIcESaIcEEESt4pairIKS5_S5_ESt10_Select1stIS8_ESt4lessIS5_ESaIS8_EE29_M_get_insert_hint_unique_posESt23_Rb_tree_const_iteratorIS8_ERS7_
0000000000000000 W _ZNSt8_Rb_treeINSt7__cxx1112basic_stringIcSt11char_traitsIcESaIcEEESt4pairIKS5_S5_ESt10_Select1stIS8_ESt4lessIS5_ESaIS8_EE4findERS7_
                 U _ZNSt8ios_base4InitC1Ev
                 U _ZNSt8ios_base4InitD1Ev
                 U _ZNSt8ios_base7failureB5cxx11D1Ev
                 U _ZNSt8ios_baseC2Ev
                 U _ZNSt8ios_baseD2Ev
                 U _ZNSt9basic_iosIcSt11char_traitsIcEE4initEPSt15basic_streambufIcS1_E
                 U _ZNSt9basic_iosIcSt11char_traitsIcEE5clearESt12_Ios_Iostate
0000000000000000 W _ZSt13__adjust_heapIN9__gnu_cxx17__normal_iteratorIPP4NodeSt6vectorIS3_SaIS3_EEEElS3_NS0_5__ops15_Iter_comp_iterIPFiPKS2_SC_EEEEvT_T0_SH_T1_T2_
0000000000000000 W _ZSt16__do_uninit_copyIN9__gnu_cxx17__normal_iteratorIPKNSt7__cxx1112basic_stringIcSt11char_traitsIcESaIcEEESt6vectorIS7_SaIS7_EEEEPS7_ET0_T_SG_SF_
0000000000000000 W _ZSt16__do_uninit_copyIN9__gnu_cxx17__normal_iteratorIPKSt6vectorIdSaIdEES2_IS4_SaIS4_EEEEPS4_ET0_T_SC_SB_
0000000000000000 W _ZSt16__insertion_sortIN9__gnu_cxx17__normal_iteratorIPP4NodeSt6vectorIS3_SaIS3_EEEENS0_5__ops15_Iter_comp_iterIPFiPKS2_SC_EEEEvT_SG_T0_
0000000000000000 W _ZSt16__introsort_loopIN9__gnu_cxx17__normal_iteratorIPP4NodeSt6vectorIS3_SaIS3_EEEElNS0_5__ops15_Iter_comp_iterIPFiPKS2_SC_EEEEvT_SG_T0_T1_
                 U _ZSt16__ostream_insertIcSt11char_traitsIcEERSt13basic_ostreamIT_T0_ES6_PKS3_l
                 U _ZSt16__throw_bad_castv
                 U _ZSt17__throw_bad_allocv
                 U _ZSt18_Rb_tree_decrementPSt18_Rb_tree_node_base
                 U _ZSt18_Rb_tree_incrementPSt18_Rb_tree_node_base
                 U _ZSt19__throw_logic_errorPKc
                 U _ZSt20__throw_length_errorPKc
                 U _ZSt24__throw_out_of_range_fmtPKcz
                 U _ZSt28__throw_bad_array_new_lengthv
                 U _ZSt29_Rb_tree_insert_and_rebalancebPSt18_Rb_tree_node_baseS0_RS_
                 U _ZSt4cerr
                 U _ZSt4cout
                 U _ZSt4endlIcSt11char_traitsIcEERSt13basic_ostreamIT_T0_ES6_
                 U _ZSt7getlineIcSt11char_traitsIcESaIcEERSt13basic_istreamIT_T0_ES7_RNSt7__cxx1112basic_stringIS4_S5_T1_EES4_
                 U _ZStlsISt11char_traitsIcEERSt13basic_ostreamIcT_ES5_PKc
                 U _ZStlsISt11char_traitsIcEERSt13basic_ostreamIcT_ES5_c
0000000000000000 W _ZStplIcSt11char_traitsIcESaIcEENSt7__cxx1112basic_stringIT_T0_T1_EEOS8_S9_
0000000000000000 W _ZStplIcSt11char_traitsIcESaIcEENSt7__cxx1112basic_stringIT_T0_T1_EEPKS5_OS8_
0000000000000000 W _ZStplIcSt11char_traitsIcESaIcEENSt7__cxx1112basic_stringIT_T0_T1_EEPKS5_RKS8_
0000000000000000 W _ZStplIcSt11char_traitsIcESaIcEENSt7__cxx1112basic_stringIT_T0_T1_EERKS8_PKS5_
0000000000000000 W _ZStplIcSt11char_traitsIcESaIcEENSt7__cxx1112basic_stringIT_T0_T1_EERKS8_SA_
                 U _ZStrsIcSt11char_traitsIcESaIcEERSt13basic_istreamIT_T0_ES7_RNSt7__cxx1112basic_stringIS4_S5_T1_EE
0000000000000000 V _ZTC9CkpStream0_NSt7__cxx1118basic_stringstreamIcSt11char_traitsIcESaIcEEE
0000000000000000 V _ZTC9CkpStream0_Sd
0000000000000000 V _ZTC9CkpStream0_Si
0000000000000000 V _ZTC9CkpStream16_So
                 U _ZTI10Checkpoint
0000000000000000 V _ZTI15ModelCheckpoint
                 U _ZTI5MTree
0000000000000000 V _ZTI8MExtTree
0000000000000000 V _ZTI9CkpStream
                 U _ZTINSt7__cxx1118basic_stringstreamIcSt11char_traitsIcESaIcEEE
                 U _ZTINSt8ios_base7failureB5cxx11E
                 U _ZTISd
                 U _ZTISi
                 U _ZTISo
                 U _ZTISt9exception
0000000000000000 V _ZTS15ModelCheckpoint
0000000000000000 V _ZTS8MExtTree
0000000000000000 V _ZTS9CkpStream
0000000000000000 V _ZTT9CkpStream
                 U _ZTTNSt7__cxx1118basic_stringstreamIcSt11char_traitsIcESaIcEEE
                 U _ZTTSt14basic_ifstreamIcSt11char_traitsIcEE
                 U _ZTTSt14basic_ofstreamIcSt11char_traitsIcEE
0000000000000000 V _ZTV15ModelCheckpoint
0000000000000000 V _ZTV8MExtTree
                 U _ZTV9Alignment
0000000000000000 V _ZTV9CkpStream
                 U _ZTVN10__cxxabiv120__si_class_type_infoE
                 U _ZTVNSt7__cxx1115basic_stringbufIcSt11char_traitsIcESaIcEEE
                 U _ZTVNSt7__cxx1118basic_stringstreamIcSt11char_traitsIcESaIcEEE
                 U _ZTVNSt8ios_base7failureB5cxx11E
                 U _ZTVSt13basic_filebufIcSt11char_traitsIcEE
                 U _ZTVSt14basic_ifstreamIcSt11char_traitsIcEE
                 U _ZTVSt14basic_ofstreamIcSt11char_traitsIcEE
                 U _ZTVSt15basic_streambufIcSt11char_traitsIcEE
                 U _ZTVSt9basic_iosIcSt11char_traitsIcEE
00000000000000b0 W _ZThn16_N9CkpStreamD0Ev
00000000000000b0 W _ZThn16_N9CkpStreamD1Ev
0000000000000160 W _ZTv0_n24_N9CkpStreamD0Ev
0000000000000150 W _ZTv0_n24_N9CkpStreamD1Ev
                 U _ZdaPv
                 U _ZdlPv
                 U _ZlsRSoRK13SymTestResult
                 U _Znam
                 U _Znwm
                 U __cxa_atexit
                 U __cxa_begin_catch
                 U __cxa_end_catch
                 U __cxa_get_exception_ptr
                 U __cxa_rethrow
                 U __cxa_throw_bad_array_new_length
                 U __dso_handle
                 U __gxx_personality_v0
                 U abort
                 U ctime
                 U exit
                 U getrusage
                 U log10
                 U main_booster
                 U memcmp
                 U memcpy
                 U memmove
                 U memset
                 U omp_get_wtime
                 U randstream
                 U round
                 U sqrt
                 U strlen
                 U strrchr
                 U strtol
                 U sysconf
                 U time
                 U verbose_mode

phylotesting.cpp.o:
0000000000000000 V DW.ref.__gxx_personality_v0
                 U GOMP_atomic_end
                 U GOMP_atomic_start
                 U GOMP_critical_end
                 U GOMP_critical_start
                 U GOMP_loop_end_nowait
                 U GOMP_loop_nonmonotonic_dynamic_next
                 U GOMP_loop_nonmonotonic_dynamic_start
                 U GOMP_loop_ull_nonmonotonic_dynamic_next
                 U GOMP_loop_ull_nonmonotonic_dynamic_start
                 U GOMP_parallel
                 U _GLOBAL_OFFSET_TABLE_
                 U _Unwind_Resume
0000000000000000 W _Z10_my_assertPKcS0_S0_i
0000000000000000 T _Z10getRateHetN3PML7SeqTypeENSt7__cxx1112basic_stringIcSt11char_traitsIcESaIcEEEdS6_RSt6vectorIS6_SaIS6_EE
0000000000000000 T _Z10mergePairsRSt6vectorI10SubsetPairSaIS0_EES3_
                 U _Z10outWarningNSt7__cxx1112basic_stringIcSt11char_traitsIcESaIcEEE
                 U _Z11RunKMeans1DiiPdPiS_S0_
0000000000000000 T _Z11changeModelNSt7__cxx1112basic_stringIcSt11char_traitsIcESaIcEEERS4_S4_i
0000000000000000 T _Z11classKModelNSt7__cxx1112basic_stringIcSt11char_traitsIcESaIcEEEi
                 U _Z11convert_intPKc
0000000000000000 T _Z11copyCStringPPKciRSt6vectorINSt7__cxx1112basic_stringIcSt11char_traitsIcESaIcEEESaIS8_EEb
0000000000000000 T _Z11getClassNumNSt7__cxx1112basic_stringIcSt11char_traitsIcESaIcEEE
0000000000000000 T _Z12comparePairsRK10SubsetPairS1_
                 U _Z12convert_timeB5cxx11d
0000000000000000 T _Z13appendCStringPPKciRSt6vectorINSt7__cxx1112basic_stringIcSt11char_traitsIcESaIcEEESaIS8_EEb
0000000000000000 T _Z13criterionNameB5cxx1118ModelTestCriterion
0000000000000000 T _Z13detectSeqTypePKcRN3PML7SeqTypeE
0000000000000000 T _Z13fixPartitionsP14PhyloSuperTree
0000000000000000 T _Z13getModelSubstN3PML7SeqTypeEbNSt7__cxx1112basic_stringIcSt11char_traitsIcESaIcEEES6_PcRSt6vectorIS6_SaIS6_EE
0000000000000000 T _Z13getStateFreqsN3PML7SeqTypeEPcRSt6vectorINSt7__cxx1112basic_stringIcSt11char_traitsIcESaIcEEESaIS8_EE
0000000000000000 T _Z13getSubsetNameB5cxx11P14PhyloSuperTreeRSt3setIiSt4lessIiESaIiEE
0000000000000000 T _Z14computeAdapterP9AlignmentS0_Ri
0000000000000000 T _Z14getSeqTypeNameB5cxx11N3PML7SeqTypeE
0000000000000000 T _Z14isMixtureModelP11ModelsBlockRNSt7__cxx1112basic_stringIcSt11char_traitsIcESaIcEEE
0000000000000000 T _Z14runModelFinderR6ParamsR6IQTreeR15ModelCheckpointRNSt7__cxx1112basic_stringIcSt11char_traitsIcESaIcEEESB_
0000000000000000 T _Z15mergePartitionsP14PhyloSuperTreeRSt6vectorISt3setIiSt4lessIiESaIiEESaIS6_EERS1_INSt7__cxx1112basic_stringIcSt11char_traitsIcESaIcEEESaISF_EE
0000000000000000 W _Z15quicksort_indexIdEvPT_Piii
0000000000000000 T _Z16comparePartitionRKSt4pairIidES2_
0000000000000000 T _Z16extractModelInfoRNSt7__cxx1112basic_stringIcSt11char_traitsIcESaIcEEER15ModelCheckpointS7_
0000000000000000 T _Z16findClosestPairsP14SuperAlignmentRSt6vectorIdSaIdEERS1_ISt3setIiSt4lessIiESaIiEESaIS9_EEdRS1_I10SubsetPairSaISD_EE
0000000000000000 T _Z16replaceModelInfoRNSt7__cxx1112basic_stringIcSt11char_traitsIcESaIcEEER15ModelCheckpointS7_
0000000000000000 T _Z17computeFastMLTreeR6ParamsP9AlignmentR15ModelCheckpointP11ModelsBlockRiiNSt7__cxx1112basic_stringIcSt11char_traitsIcESaIcEEE
0000000000000000 T _Z17detectSeqTypeNameNSt7__cxx1112basic_stringIcSt11char_traitsIcESaIcEEE
0000000000000000 T _Z17optimiseQMixModelR6ParamsRP6IQTreeR15ModelCheckpoint
0000000000000000 T _Z17runModelSelectionR6ParamsR6IQTreeR15ModelCheckpointibNSt7__cxx1112basic_stringIcSt11char_traitsIcESaIcEEERSA_SB_i
                 U _Z18convertIntToStringB5cxx11i
                 U _Z18convert_string_vecPKcRSt6vectorINSt7__cxx1112basic_stringIcSt11char_traitsIcESaIcEEESaIS7_EEc
0000000000000000 T _Z18doKmeansClusteringR6ParamsP14PhyloSuperTreeiRSt6vectorIdSaIdEER15ModelCheckpointP11ModelsBlockiRS3_ISt3setIiSt4lessIiESaIiEESaISF_EERS3_INSt7__cxx1112basic_stringIcSt11char_traitsIcESaIcEEESaISO_EE
0000000000000000 T _Z18getSubsetAlnLengthP14PhyloSuperTreeRSt3setIiSt4lessIiESaIiEE
0000000000000000 T _Z18getUsualModelSubstB5cxx11N3PML7SeqTypeE
                 U _Z18posRateHeterotachyNSt7__cxx1112basic_stringIcSt11char_traitsIcESaIcEEE
0000000000000000 T _Z18testPartitionModelR6ParamsP14PhyloSuperTreeR15ModelCheckpointP11ModelsBlocki
                 U _Z20readModelsDefinitionR6Params
                 U _Z21convertDoubleToStringB5cxx11d
                 U _Z21countPhysicalCPUCoresv
                 U _Z21runTreeReconstructionR6ParamsRP6IQTree
                 U _Z22computePValueChiSquaredi
0000000000000000 T _Z23computeInformationScoredii18ModelTestCriterion
0000000000000000 T _Z23transferModelParametersP14PhyloSuperTreeR15ModelCheckpointS2_RSt3setIiSt4lessIiESaIiEES8_
0000000000000000 T _Z24computeInformationScoresdiiRdS_S_
0000000000000000 T _Z24optimiseQMixModel_methodR6ParamsRP6IQTreeR15ModelCheckpointRNSt7__cxx1112basic_stringIcSt11char_traitsIcESaIcEEE
0000000000000000 T _Z27convertSeqTypeToSeqTypeNameB5cxx11N3PML7SeqTypeE
0000000000000000 T _Z29transferModelFinderParametersP6IQTreeP10Checkpoint
0000000000000000 T _Z31optimiseQMixModel_method_updateR6ParamsRP6IQTreeR15ModelCheckpointRNSt7__cxx1112basic_stringIcSt11char_traitsIcESaIcEEE
                 U _Z7iEqualsNSt7__cxx1112basic_stringIcSt11char_traitsIcESaIcEEES4_
0000000000000000 T _Z8addModelNSt7__cxx1112basic_stringIcSt11char_traitsIcESaIcEEERS4_S4_
                 U _Z8outErrorNSt7__cxx1112basic_stringIcSt11char_traitsIcESaIcEEEb
                 U _Z8outErrorPKcb
                 U _ZN10Checkpoint11setFileNameENSt7__cxx1112basic_stringIcSt11char_traitsIcESaIcEEE
                 U _ZN10Checkpoint11startStructENSt7__cxx1112basic_stringIcSt11char_traitsIcESaIcEEE
                 U _ZN10Checkpoint14eraseKeyPrefixENSt7__cxx1112basic_stringIcSt11char_traitsIcESaIcEEE
                 U _ZN10Checkpoint15setDumpIntervalEd
                 U _ZN10Checkpoint16putSubCheckpointEPS_NSt7__cxx1112basic_stringIcSt11char_traitsIcESaIcEEE
                 U _ZN10Checkpoint21transferSubCheckpointEPS_NSt7__cxx1112basic_stringIcSt11char_traitsIcESaIcEEEb
0000000000000000 W _ZN10Checkpoint3getIdEEbNSt7__cxx1112basic_stringIcSt11char_traitsIcESaIcEEERT_
0000000000000000 W _ZN10Checkpoint3getIiEEbNSt7__cxx1112basic_stringIcSt11char_traitsIcESaIcEEERT_
0000000000000000 W _ZN10Checkpoint3putINSt7__cxx1112basic_stringIcSt11char_traitsIcESaIcEEEEEvS6_T_
0000000000000000 W _ZN10Checkpoint3putIdEEvNSt7__cxx1112basic_stringIcSt11char_traitsIcESaIcEEET_
0000000000000000 W _ZN10Checkpoint3putIiEEvNSt7__cxx1112basic_stringIcSt11char_traitsIcESaIcEEET_
                 U _ZN10Checkpoint4dumpEb
                 U _ZN10Checkpoint4loadEv
                 U _ZN10Checkpoint7getBoolENSt7__cxx1112basic_stringIcSt11char_traitsIcESaIcEEE
                 U _ZN10Checkpoint7putBoolENSt7__cxx1112basic_stringIcSt11char_traitsIcESaIcEEEb
                 U _ZN10Checkpoint9endStructEv
0000000000000000 W _ZN10Checkpoint9getVectorIdEEbNSt7__cxx1112basic_stringIcSt11char_traitsIcESaIcEEERSt6vectorIT_SaIS8_EE
0000000000000000 W _ZN10Checkpoint9putVectorIdEEvNSt7__cxx1112basic_stringIcSt11char_traitsIcESaIcEEERSt6vectorIT_SaIS8_EE
                 U _ZN10CheckpointC2Ev
                 U _ZN10CheckpointD2Ev
                 U _ZN11ModelsBlock12findMixModelENSt7__cxx1112basic_stringIcSt11char_traitsIcESaIcEEE
0000000000000000 W _ZN12ModelPairSet18getCompatiblePairsEiRS_
0000000000000000 W _ZN13PartitionInfoC1ERKS_
0000000000000000 W _ZN13PartitionInfoC2ERKS_
0000000000000000 W _ZN13PartitionInfoD1Ev
0000000000000000 W _ZN13PartitionInfoD2Ev
0000000000000000 T _ZN14CandidateModel13getUsualModelEP9Alignment
0000000000000000 T _ZN14CandidateModel14computeICScoreEm
0000000000000000 W _ZN14CandidateModel14saveCheckpointEP10Checkpoint
0000000000000000 T _ZN14CandidateModel15computeICScoresEm
0000000000000000 T _ZN14CandidateModel15computeICScoresEv
0000000000000000 W _ZN14CandidateModel17restoreCheckpointEP10Checkpoint
0000000000000000 T _ZN14CandidateModel21evaluateConcatenationB5cxx11ER6ParamsP14SuperAlignmentR15ModelCheckpointP11ModelsBlocki
0000000000000000 W _ZN14CandidateModel24restoreCheckpointRminus1EP10CheckpointPS_
0000000000000000 T _ZN14CandidateModel8evaluateB5cxx11ER6ParamsR15ModelCheckpointS3_P11ModelsBlockRii
0000000000000000 T _ZN14CandidateModel8getScoreE18ModelTestCriterion
0000000000000000 T _ZN14CandidateModel8getScoreEv
0000000000000000 W _ZN14CandidateModelC1ENSt7__cxx1112basic_stringIcSt11char_traitsIcESaIcEEES5_P9Alignmenti
0000000000000000 W _ZN14CandidateModelC1ERKS_
0000000000000000 W _ZN14CandidateModelC2ENSt7__cxx1112basic_stringIcSt11char_traitsIcESaIcEEES5_P9Alignmenti
0000000000000000 W _ZN14CandidateModelC2ERKS_
0000000000000000 W _ZN14CandidateModelD1Ev
0000000000000000 W _ZN14CandidateModelD2Ev
                 U _ZN14ConstraintTree14readConstraintEPKcRSt6vectorINSt7__cxx1112basic_stringIcSt11char_traitsIcESaIcEEESaIS8_EE
                 U _ZN14PhyloSuperTree14extractSubtreeERSt3setIiSt4lessIiESaIiEE
                 U _ZN14PhyloSuperTreeC1EP14SuperAlignmentb
                 U _ZN14SuperAlignment18printBestPartitionEPKc
                 U _ZN14SuperAlignment21concatenateAlignmentsERSt3setIiSt4lessIiESaIiEE
                 U _ZN14SuperAlignment21concatenateAlignmentsEv
                 U _ZN14SuperAlignment23printBestPartitionRaxmlEPKc
                 U _ZN14SuperAlignmentC1Ev
0000000000000000 T _ZN15ModelCheckpoint11getBestTreeERNSt7__cxx1112basic_stringIcSt11char_traitsIcESaIcEEE
0000000000000000 T _ZN15ModelCheckpoint12getBestModelERNSt7__cxx1112basic_stringIcSt11char_traitsIcESaIcEEE
0000000000000000 T _ZN15ModelCheckpoint16getBestModelListERNSt7__cxx1112basic_stringIcSt11char_traitsIcESaIcEEE
0000000000000000 T _ZN15ModelCheckpoint16getOrderedModelsEP9PhyloTreeR17CandidateModelSet
0000000000000000 T _ZN15ModelCheckpoint16putBestModelListERNSt7__cxx1112basic_stringIcSt11char_traitsIcESaIcEEE
0000000000000000 W _ZN15ModelCheckpointD0Ev
0000000000000000 W _ZN15ModelCheckpointD1Ev
0000000000000000 W _ZN15ModelCheckpointD2Ev
                 U _ZN15PhyloTreeMixlenC1EP9Alignmenti
0000000000000000 T _ZN17CandidateModelSet11evaluateAllER6ParamsP9PhyloTreeR15ModelCheckpointP11ModelsBlockiiNSt7__cxx1112basic_stringIcSt11char_traitsIcESaIcEEEbb
0000000000000000 T _ZN17CandidateModelSet11filterRatesEi
0000000000000000 T _ZN17CandidateModelSet11filterSubstEi
0000000000000000 T _ZN17CandidateModelSet12getNextModelEv
0000000000000000 T _ZN17CandidateModelSet14getBestModelIDE18ModelTestCriterion
0000000000000000 W _ZN17CandidateModelSet14getLowerKModelEi
0000000000000000 W _ZN17CandidateModelSet15getHigherKModelEi
0000000000000000 T _ZN17CandidateModelSet4testER6ParamsP9PhyloTreeR15ModelCheckpointP11ModelsBlockiiNSt7__cxx1112basic_stringIcSt11char_traitsIcESaIcEEESD_bbb
0000000000000000 T _ZN17CandidateModelSet8generateER6ParamsP9Alignmentbb
                 U _ZN17CheckpointFactory13getCheckpointEv
0000000000000000 W _ZN17RateHeterogeneity19initFromCatMinusOneEv
                 U _ZN18ModelFactoryMixlen23sortClassesByTreeLengthB5cxx11Ev
                 U _ZN18PhyloSuperTreePlenC1EP14SuperAlignmenti
                 U _ZN22PhyloSuperTreeUnlinkedC1EP14SuperAlignment
                 U _ZN5MTree11getTaxaNameERSt6vectorINSt7__cxx1112basic_stringIcSt11char_traitsIcESaIcEEESaIS6_EEP4NodeSB_
                 U _ZN5MTree11scaleLengthEdbP4NodeS1_
                 U _ZN6IQTree13initializePLLER6Params
                 U _ZN6IQTree16isInitializedPLLEv
                 U _ZN6IQTree18computeInitialTreeE16LikelihoodKernelPSi
                 U _ZN6IQTreeC1EP9Alignment
                 U _ZN6Params11getInstanceEv
                 U _ZN9Alignment11getSeqNamesB5cxx11Ev
                 U _ZN9Alignment12convertStateEc
                 U _ZN9Alignment16convertCodonToAAEv
                 U _ZN9Alignment17convertCodonToDNAEv
                 U _ZN9Alignment21isStandardGeneticCodeEv
                 U _ZN9Alignment24computeAbsoluteStateFreqEPj
0000000000000000 W _ZN9CkpStreamD0Ev
0000000000000000 W _ZN9CkpStreamD1Ev
                 U _ZN9MPIHelper11getInstanceEv
0000000000000000 W _ZN9ModelPairD1Ev
0000000000000000 W _ZN9ModelPairD2Ev
                 U _ZN9PhyloTree11getRateNameB5cxx11Ev
                 U _ZN9PhyloTree12getSubstNameB5cxx11Ev
0000000000000000 W _ZN9PhyloTree15getModelFactoryEv
                 U _ZN9PhyloTree20getNBranchParametersEi
                 U _ZN9PhyloTree26ensureNumberOfThreadsIsSetEP6Params
0000000000000000 W _ZN9PhyloTree8getModelEv
                 U _ZNKSt5ctypeIcE13_M_widen_initEv
0000000000000000 W _ZNKSt5ctypeIcE8do_widenEc
                 U _ZNKSt7__cxx1112basic_stringIcSt11char_traitsIcESaIcEE13find_first_ofEPKcmm
                 U _ZNKSt7__cxx1112basic_stringIcSt11char_traitsIcESaIcEE4findEPKcm
                 U _ZNKSt7__cxx1112basic_stringIcSt11char_traitsIcESaIcEE4findEPKcmm
                 U _ZNKSt7__cxx1112basic_stringIcSt11char_traitsIcESaIcEE4findEcm
                 U _ZNKSt7__cxx1112basic_stringIcSt11char_traitsIcESaIcEE5rfindEcm
                 U _ZNKSt7__cxx1112basic_stringIcSt11char_traitsIcESaIcEE6substrEmm
                 U _ZNKSt7__cxx1112basic_stringIcSt11char_traitsIcESaIcEE7compareEPKc
                 U _ZNKSt8__detail20_Prime_rehash_policy14_M_need_rehashEmmm
                 U _ZNSdD2Ev
                 U _ZNSi10_M_extractIdEERSiRT_
                 U _ZNSirsERi
                 U _ZNSo3putEc
                 U _ZNSo5flushEv
                 U _ZNSo9_M_insertIdEERSoT_
                 U _ZNSo9_M_insertIlEERSoT_
                 U _ZNSo9_M_insertImEERSoT_
                 U _ZNSolsEi
0000000000000000 W _ZNSt10_HashtableINSt7__cxx1112basic_stringIcSt11char_traitsIcESaIcEEES5_SaIS5_ENSt8__detail9_IdentityESt8equal_toIS5_ESt4hashIS5_ENS7_18_Mod_range_hashingENS7_20_Default_ranged_hashENS7_20_Prime_rehash_policyENS7_17_Hashtable_traitsILb1ELb1ELb1EEEE9_M_rehashEmRKm
0000000000000000 W _ZNSt10_HashtableINSt7__cxx1112basic_stringIcSt11char_traitsIcESaIcEEES5_SaIS5_ENSt8__detail9_IdentityESt8equal_toIS5_ESt4hashIS5_ENS7_18_Mod_range_hashingENS7_20_Default_ranged_hashENS7_20_Prime_rehash_policyENS7_17_Hashtable_traitsILb1ELb1ELb1EEEED1Ev
0000000000000000 W _ZNSt10_HashtableINSt7__cxx1112basic_stringIcSt11char_traitsIcESaIcEEES5_SaIS5_ENSt8__detail9_IdentityESt8equal_toIS5_ESt4hashIS5_ENS7_18_Mod_range_hashingENS7_20_Default_ranged_hashENS7_20_Prime_rehash_policyENS7_17_Hashtable_traitsILb1ELb1ELb1EEEED2Ev
0000000000000000 W _ZNSt12_Destroy_auxILb0EE9__destroyIPNSt7__cxx1112basic_stringIcSt11char_traitsIcESaIcEEEEEvT_S9_
0000000000000000 W _ZNSt12_Destroy_auxILb0EE9__destroyIPSt3setIiSt4lessIiESaIiEEEEvT_S8_
0000000000000000 W _ZNSt12_Destroy_auxILb0EE9__destroyIPSt6vectorIdSaIdEEEEvT_S6_
0000000000000000 W _ZNSt3setINSt7__cxx1112basic_stringIcSt11char_traitsIcESaIcEEESt4lessIS5_ESaIS5_EE6insertERKS5_
                 U _ZNSt6localeC1Ev
                 U _ZNSt6localeD1Ev
0000000000000000 W _ZNSt6vectorI10SubsetPairSaIS0_EE17_M_realloc_insertIJRKS0_EEEvN9__gnu_cxx17__normal_iteratorIPS0_S2_EEDpOT_
0000000000000000 W _ZNSt6vectorI13PartitionInfoSaIS0_EE17_M_realloc_insertIJRKS0_EEEvN9__gnu_cxx17__normal_iteratorIPS0_S2_EEDpOT_
0000000000000000 W _ZNSt6vectorI13PartitionInfoSaIS0_EED1Ev
0000000000000000 W _ZNSt6vectorI13PartitionInfoSaIS0_EED2Ev
0000000000000000 W _ZNSt6vectorI14CandidateModelSaIS0_EE12emplace_backIJS0_EEEvDpOT_
0000000000000000 W _ZNSt6vectorI14CandidateModelSaIS0_EE17_M_realloc_insertIJRKS0_EEEvN9__gnu_cxx17__normal_iteratorIPS0_S2_EEDpOT_
0000000000000000 W _ZNSt6vectorI14CandidateModelSaIS0_EE17_M_realloc_insertIJS0_EEEvN9__gnu_cxx17__normal_iteratorIPS0_S2_EEDpOT_
0000000000000000 W _ZNSt6vectorI14CandidateModelSaIS0_EED1Ev
0000000000000000 W _ZNSt6vectorI14CandidateModelSaIS0_EED2Ev
0000000000000000 W _ZNSt6vectorINSt7__cxx1112basic_stringIcSt11char_traitsIcESaIcEEESaIS5_EE12emplace_backIJS5_EEEvDpOT_
0000000000000000 W _ZNSt6vectorINSt7__cxx1112basic_stringIcSt11char_traitsIcESaIcEEESaIS5_EE14_M_insert_rvalEN9__gnu_cxx17__normal_iteratorIPKS5_S7_EEOS5_
0000000000000000 W _ZNSt6vectorINSt7__cxx1112basic_stringIcSt11char_traitsIcESaIcEEESaIS5_EE17_M_default_appendEm
0000000000000000 W _ZNSt6vectorINSt7__cxx1112basic_stringIcSt11char_traitsIcESaIcEEESaIS5_EE17_M_realloc_insertIJRKS5_EEEvN9__gnu_cxx17__normal_iteratorIPS5_S7_EEDpOT_
0000000000000000 W _ZNSt6vectorINSt7__cxx1112basic_stringIcSt11char_traitsIcESaIcEEESaIS5_EE17_M_realloc_insertIJS5_EEEvN9__gnu_cxx17__normal_iteratorIPS5_S7_EEDpOT_
0000000000000000 W _ZNSt6vectorINSt7__cxx1112basic_stringIcSt11char_traitsIcESaIcEEESaIS5_EE8_M_eraseEN9__gnu_cxx17__normal_iteratorIPS5_S7_EE
0000000000000000 W _ZNSt6vectorINSt7__cxx1112basic_stringIcSt11char_traitsIcESaIcEEESaIS5_EEC1ERKS7_
0000000000000000 W _ZNSt6vectorINSt7__cxx1112basic_stringIcSt11char_traitsIcESaIcEEESaIS5_EEC2ERKS7_
0000000000000000 W _ZNSt6vectorINSt7__cxx1112basic_stringIcSt11char_traitsIcESaIcEEESaIS5_EED1Ev
0000000000000000 W _ZNSt6vectorINSt7__cxx1112basic_stringIcSt11char_traitsIcESaIcEEESaIS5_EED2Ev
0000000000000000 W _ZNSt6vectorIP9AlignmentSaIS1_EE17_M_realloc_insertIJRKS1_EEEvN9__gnu_cxx17__normal_iteratorIPS1_S3_EEDpOT_
0000000000000000 W _ZNSt6vectorIP9PhyloTreeSaIS1_EE17_M_realloc_insertIJRKS1_EEEvN9__gnu_cxx17__normal_iteratorIPS1_S3_EEDpOT_
0000000000000000 W _ZNSt6vectorIS_IdSaIdEESaIS1_EED1Ev
0000000000000000 W _ZNSt6vectorIS_IdSaIdEESaIS1_EED2Ev
0000000000000000 W _ZNSt6vectorISt3setIiSt4lessIiESaIiEESaIS4_EE17_M_realloc_insertIJRKS4_EEEvN9__gnu_cxx17__normal_iteratorIPS4_S6_EEDpOT_
0000000000000000 W _ZNSt6vectorISt3setIiSt4lessIiESaIiEESaIS4_EED1Ev
0000000000000000 W _ZNSt6vectorISt3setIiSt4lessIiESaIiEESaIS4_EED2Ev
0000000000000000 W _ZNSt6vectorISt4pairIidESaIS1_EE17_M_realloc_insertIJS1_EEEvN9__gnu_cxx17__normal_iteratorIPS1_S3_EEDpOT_
0000000000000000 W _ZNSt6vectorIbSaIbEE14_M_fill_insertESt13_Bit_iteratormb
0000000000000000 W _ZNSt6vectorIdSaIdEE12emplace_backIJdEEEvDpOT_
0000000000000000 W _ZNSt6vectorIdSaIdEE17_M_default_appendEm
0000000000000000 W _ZNSt6vectorIdSaIdEE17_M_realloc_insertIJRKdEEEvN9__gnu_cxx17__normal_iteratorIPdS1_EEDpOT_
0000000000000000 W _ZNSt6vectorIdSaIdEE8_M_eraseEN9__gnu_cxx17__normal_iteratorIPdS1_EE
0000000000000000 W _ZNSt6vectorIiSaIiEE14_M_fill_insertEN9__gnu_cxx17__normal_iteratorIPiS1_EEmRKi
0000000000000000 W _ZNSt6vectorIiSaIiEE17_M_default_appendEm
0000000000000000 W _ZNSt6vectorIiSaIiEE17_M_realloc_insertIJRKiEEEvN9__gnu_cxx17__normal_iteratorIPiS1_EEDpOT_
                 U _ZNSt7__cxx1112basic_stringIcSt11char_traitsIcESaIcEE10_M_replaceEmmPKcm
                 U _ZNSt7__cxx1112basic_stringIcSt11char_traitsIcESaIcEE12_M_constructEmc
                 U _ZNSt7__cxx1112basic_stringIcSt11char_traitsIcESaIcEE14_M_replace_auxEmmmc
                 U _ZNSt7__cxx1112basic_stringIcSt11char_traitsIcESaIcEE6appendEPKc
                 U _ZNSt7__cxx1112basic_stringIcSt11char_traitsIcESaIcEE7reserveEm
                 U _ZNSt7__cxx1112basic_stringIcSt11char_traitsIcESaIcEE9_M_appendEPKcm
                 U _ZNSt7__cxx1112basic_stringIcSt11char_traitsIcESaIcEE9_M_assignERKS4_
                 U _ZNSt7__cxx1112basic_stringIcSt11char_traitsIcESaIcEE9_M_createERmm
                 U _ZNSt7__cxx1112basic_stringIcSt11char_traitsIcESaIcEE9_M_mutateEmmPKcm
                 U _ZNSt7__cxx1112basic_stringIcSt11char_traitsIcESaIcEEC1EOS4_
                 U _ZNSt7__cxx1112basic_stringIcSt11char_traitsIcESaIcEEC1ERKS4_
                 U _ZNSt7__cxx1115basic_stringbufIcSt11char_traitsIcESaIcEE7_M_syncEPcmm
0000000000000000 W _ZNSt7__cxx1115basic_stringbufIcSt11char_traitsIcESaIcEED0Ev
0000000000000000 W _ZNSt7__cxx1115basic_stringbufIcSt11char_traitsIcESaIcEED1Ev
0000000000000000 W _ZNSt7__cxx1115basic_stringbufIcSt11char_traitsIcESaIcEED2Ev
                 U _ZNSt7__cxx1118basic_stringstreamIcSt11char_traitsIcESaIcEED1Ev
                 U _ZNSt7__cxx1119basic_istringstreamIcSt11char_traitsIcESaIcEED1Ev
0000000000000000 W _ZNSt8_Rb_treeINSt7__cxx1112basic_stringIcSt11char_traitsIcESaIcEEES5_St9_IdentityIS5_ESt4lessIS5_ESaIS5_EE4findERKS5_
0000000000000000 W _ZNSt8_Rb_treeINSt7__cxx1112basic_stringIcSt11char_traitsIcESaIcEEESt4pairIKS5_S5_ESt10_Select1stIS8_ESt4lessIS5_ESaIS8_EE24_M_get_insert_unique_posERS7_
0000000000000000 W _ZNSt8_Rb_treeINSt7__cxx1112basic_stringIcSt11char_traitsIcESaIcEEESt4pairIKS5_S5_ESt10_Select1stIS8_ESt4lessIS5_ESaIS8_EE29_M_get_insert_hint_unique_posESt23_Rb_tree_const_iteratorIS8_ERS7_
0000000000000000 W _ZNSt8_Rb_treeINSt7__cxx1112basic_stringIcSt11char_traitsIcESaIcEEESt4pairIKS5_S5_ESt10_Select1stIS8_ESt4lessIS5_ESaIS8_EE4findERS7_
0000000000000000 W _ZNSt8_Rb_treeIiiSt9_IdentityIiESt4lessIiESaIiEE16_M_insert_uniqueIRKiEESt4pairISt17_Rb_tree_iteratorIiEbEOT_
0000000000000000 W _ZNSt8_Rb_treeIiiSt9_IdentityIiESt4lessIiESaIiEE24_M_get_insert_unique_posERKi
0000000000000000 W _ZNSt8_Rb_treeIiiSt9_IdentityIiESt4lessIiESaIiEE29_M_get_insert_hint_unique_posESt23_Rb_tree_const_iteratorIiERKi
                 U _ZNSt8ios_base4InitC1Ev
                 U _ZNSt8ios_base4InitD1Ev
                 U _ZNSt8ios_baseC2Ev
                 U _ZNSt8ios_baseD2Ev
                 U _ZNSt9basic_iosIcSt11char_traitsIcEE4initEPSt15basic_streambufIcS1_E
                 U _ZSt11_Hash_bytesPKvmm
0000000000000000 W _ZSt13__adjust_heapIN9__gnu_cxx17__normal_iteratorIP10SubsetPairSt6vectorIS2_SaIS2_EEEElS2_NS0_5__ops15_Iter_comp_iterIPFbRKS2_SB_EEEEvT_T0_SG_T1_T2_
0000000000000000 W _ZSt13__adjust_heapIN9__gnu_cxx17__normal_iteratorIPSt4pairIidESt6vectorIS3_SaIS3_EEEElS3_NS0_5__ops15_Iter_comp_iterIPFbRKS3_SC_EEEEvT_T0_SH_T1_T2_
0000000000000000 W _ZSt16__do_uninit_copyIN9__gnu_cxx17__normal_iteratorIPKNSt7__cxx1112basic_stringIcSt11char_traitsIcESaIcEEESt6vectorIS7_SaIS7_EEEEPS7_ET0_T_SG_SF_
0000000000000000 W _ZSt16__do_uninit_copyIN9__gnu_cxx17__normal_iteratorIPKSt6vectorIdSaIdEES2_IS4_SaIS4_EEEEPS4_ET0_T_SC_SB_
0000000000000000 W _ZSt16__do_uninit_copyIN9__gnu_cxx17__normal_iteratorIPNSt7__cxx1112basic_stringIcSt11char_traitsIcESaIcEEESt6vectorIS7_SaIS7_EEEES8_ET0_T_SE_SD_
0000000000000000 W _ZSt16__insertion_sortIN9__gnu_cxx17__normal_iteratorIP10SubsetPairSt6vectorIS2_SaIS2_EEEENS0_5__ops15_Iter_comp_iterIPFbRKS2_SB_EEEEvT_SF_T0_
0000000000000000 W _ZSt16__insertion_sortIN9__gnu_cxx17__normal_iteratorIPSt4pairIidESt6vectorIS3_SaIS3_EEEENS0_5__ops15_Iter_comp_iterIPFbRKS3_SC_EEEEvT_SG_T0_
0000000000000000 W _ZSt16__introsort_loopIN9__gnu_cxx17__normal_iteratorIP10SubsetPairSt6vectorIS2_SaIS2_EEEElNS0_5__ops15_Iter_comp_iterIPFbRKS2_SB_EEEEvT_SF_T0_T1_
0000000000000000 W _ZSt16__introsort_loopIN9__gnu_cxx17__normal_iteratorIPSt4pairIidESt6vectorIS3_SaIS3_EEEElNS0_5__ops15_Iter_comp_iterIPFbRKS3_SC_EEEEvT_SG_T0_T1_
                 U _ZSt16__ostream_insertIcSt11char_traitsIcEERSt13basic_ostreamIT_T0_ES6_PKS3_l
                 U _ZSt16__throw_bad_castv
                 U _ZSt17__throw_bad_allocv
                 U _ZSt18_Rb_tree_decrementPSt18_Rb_tree_node_base
                 U _ZSt18_Rb_tree_incrementPKSt18_Rb_tree_node_base
                 U _ZSt18_Rb_tree_incrementPSt18_Rb_tree_node_base
                 U _ZSt19__throw_logic_errorPKc
                 U _ZSt20__throw_length_errorPKc
                 U _ZSt24__throw_out_of_range_fmtPKcz
0000000000000000 W _ZSt25__unguarded_linear_insertIN9__gnu_cxx17__normal_iteratorIP10SubsetPairSt6vectorIS2_SaIS2_EEEENS0_5__ops14_Val_comp_iterIPFbRKS2_SB_EEEEvT_T0_
0000000000000000 W _ZSt25__unguarded_linear_insertIN9__gnu_cxx17__normal_iteratorIPSt4pairIidESt6vectorIS3_SaIS3_EEEENS0_5__ops14_Val_comp_iterIPFbRKS3_SC_EEEEvT_T0_
                 U _ZSt28__throw_bad_array_new_lengthv
                 U _ZSt29_Rb_tree_insert_and_rebalancebPSt18_Rb_tree_node_baseS0_RS_
                 U _ZSt4cerr
                 U _ZSt4cout
                 U _ZSt4endlIcSt11char_traitsIcEERSt13basic_ostreamIT_T0_ES6_
                 U _ZSt9terminatev
                 U _ZStlsISt11char_traitsIcEERSt13basic_ostreamIcT_ES5_PKc
0000000000000000 W _ZStplIcSt11char_traitsIcESaIcEENSt7__cxx1112basic_stringIT_T0_T1_EEOS8_S9_
0000000000000000 W _ZStplIcSt11char_traitsIcESaIcEENSt7__cxx1112basic_stringIT_T0_T1_EEPKS5_RKS8_
0000000000000000 W _ZStplIcSt11char_traitsIcESaIcEENSt7__cxx1112basic_stringIT_T0_T1_EERKS8_SA_
                 U _ZStrsIcSt11char_traitsIcESaIcEERSt13basic_istreamIT_T0_ES7_RNSt7__cxx1112basic_stringIS4_S5_T1_EE
0000000000000000 V _ZTC9CkpStream0_NSt7__cxx1118basic_stringstreamIcSt11char_traitsIcESaIcEEE
0000000000000000 V _ZTC9CkpStream0_Sd
0000000000000000 V _ZTC9CkpStream0_Si
0000000000000000 V _ZTC9CkpStream16_So
                 U _ZTI10Checkpoint
0000000000000000 V _ZTI15ModelCheckpoint
0000000000000000 V _ZTI9CkpStream
                 U _ZTINSt7__cxx1118basic_stringstreamIcSt11char_traitsIcESaIcEEE
                 U _ZTISd
                 U _ZTISi
                 U _ZTISo
0000000000000000 V _ZTS15ModelCheckpoint
0000000000000000 V _ZTS9CkpStream
0000000000000000 V _ZTT9CkpStream
                 U _ZTTNSt7__cxx1118basic_stringstreamIcSt11char_traitsIcESaIcEEE
                 U _ZTTNSt7__cxx1119basic_istringstreamIcSt11char_traitsIcESaIcEEE
0000000000000000 V _ZTV15ModelCheckpoint
0000000000000000 V _ZTV9CkpStream
                 U _ZTVN10__cxxabiv120__si_class_type_infoE
                 U _ZTVNSt7__cxx1115basic_stringbufIcSt11char_traitsIcESaIcEEE
                 U _ZTVNSt7__cxx1118basic_stringstreamIcSt11char_traitsIcESaIcEEE
                 U _ZTVNSt7__cxx1119basic_istringstreamIcSt11char_traitsIcESaIcEEE
                 U _ZTVSt15basic_streambufIcSt11char_traitsIcEE
                 U _ZTVSt9basic_iosIcSt11char_traitsIcEE
00000000000000b0 W _ZThn16_N9CkpStreamD0Ev
00000000000000b0 W _ZThn16_N9CkpStreamD1Ev
0000000000000160 W _ZTv0_n24_N9CkpStreamD0Ev
0000000000000150 W _ZTv0_n24_N9CkpStreamD1Ev
                 U _ZdaPv
                 U _ZdlPv
                 U _Znam
                 U _Znwm
                 U __cxa_atexit
                 U __cxa_begin_catch
                 U __cxa_end_catch
                 U __cxa_rethrow
                 U __cxa_throw_bad_array_new_length
                 U __dso_handle
                 U __gxx_personality_v0
0000000000000000 D aa_freq_names
0000000000000000 D aa_mixture_model_names
0000000000000000 D aa_model_names
0000000000000000 D aa_model_names_beast1
0000000000000000 D aa_model_names_beast2
0000000000000000 D aa_model_names_chloroplast
0000000000000000 D aa_model_names_mitochondrial
0000000000000000 D aa_model_names_modelomatic
0000000000000000 D aa_model_names_mrbayes
0000000000000000 D aa_model_names_nuclear
0000000000000000 D aa_model_names_phyml
0000000000000000 D aa_model_names_rax
0000000000000000 D aa_model_names_viral
                 U abort
0000000000000000 D bin_model_names
0000000000000000 D codon_freq_names
0000000000000000 D codon_model_names
0000000000000000 D codon_model_names_modelomatic
0000000000000000 D dna_model_names
0000000000000000 D dna_model_names_beast1
0000000000000000 D dna_model_names_beast2
0000000000000000 D dna_model_names_lie_markov_fullsym
0000000000000000 D dna_model_names_lie_markov_mk
0000000000000000 D dna_model_names_lie_markov_ry
0000000000000000 D dna_model_names_lie_markov_strsym
0000000000000000 D dna_model_names_lie_markov_ws
0000000000000000 D dna_model_names_modelomatic
0000000000000000 D dna_model_names_mrbayes
0000000000000000 D dna_model_names_old
0000000000000000 D dna_model_names_rax
                 U exp
                 U getrusage
                 U log
                 U memcmp
                 U memcpy
                 U memmove
                 U memset
0000000000000000 D morph_model_names
                 U omp_get_wtime
                 U omp_set_num_threads
                 U round
                 U sqrt
0000000000000000 D std_genetic_code
0000000000000000 B std_genetic_code_modelomatic
                 U strlen
                 U strrchr
                 U sysconf
                 U toupper
                 U verbose_mode

suppFunc.cpp.o:
0000000000000000 V DW.ref._ZTINSt8ios_base7failureB5cxx11E
0000000000000000 V DW.ref.__gxx_personality_v0
                 U _GLOBAL_OFFSET_TABLE_
                 U _Unwind_Resume
0000000000000000 W _Z10_my_assertPKcS0_S0_i
0000000000000000 T _Z10runPDSplitR6Params
0000000000000000 T _Z11branchStatsR6Params
0000000000000000 T _Z11makeRankingRSt6vectorI8SplitSetSaIS0_EERS_IiSaIiEES6_
0000000000000000 W _Z11nodenamecmpPK4NodeS1_
0000000000000000 T _Z11printPDUserRSoR6ParamsR17PDRelatedMeasures
0000000000000000 T _Z11printRFDistNSt7__cxx1112basic_stringIcSt11char_traitsIcESaIcEEEPdiiib
                 U _Z12gurobi_solvePciPdS0_ii
0000000000000000 T _Z12printRunModeRSo7RunMode
0000000000000000 T _Z12printTaxaSetR6ParamsRSt6vectorI9PDTaxaSetSaIS2_EE7RunMode
0000000000000000 T _Z12processECOpdR6Params
0000000000000000 T _Z13computeRFDistR6Params
0000000000000000 T _Z13getMaxNameLenRSt6vectorINSt7__cxx1112basic_stringIcSt11char_traitsIcESaIcEEESaIS5_EE
0000000000000000 T _Z13printAreaListR6Params
0000000000000000 T _Z13printSplitSetR10SplitGraphR11SplitIntMap
0000000000000000 T _Z13readTaxaOrderPcRSt6vectorINSt7__cxx1112basic_stringIcSt11char_traitsIcESaIcEEESaIS6_EE
0000000000000000 T _Z13summarizeTreeR6ParamsR6PDTreeRSt6vectorI9PDTaxaSetSaIS4_EER17PDRelatedMeasures
0000000000000000 T _Z13testInputFileR6Params
0000000000000000 T _Z14computeMulProbR6Params
0000000000000000 T _Z14printCopyrightRSo
0000000000000000 T _Z14printNexusSetsPKcR9PDNetworkRSt6vectorI8SplitSetSaIS4_EE
0000000000000000 T _Z14summarizeSplitR6ParamsR9PDNetworkRSt6vectorI8SplitSetSaIS4_EER17PDRelatedMeasuresb
0000000000000000 T _Z15calcTreeClusterR6Params
                 U _Z15detectInputFilePKc
0000000000000000 T _Z15guidedBootstrapR6Params
0000000000000000 T _Z15printGainMatrixPcRSt6vectorIS0_IdSaIdEESaIS2_EEi
0000000000000000 T _Z15processNCBITreeR6Params
0000000000000000 T _Z15summarizeFooterRSoR6Params
0000000000000000 T _Z15summarizeHeaderRSoR6Paramsb9InputType
0000000000000000 T _Z16calcDistributionR6Params
                 U _Z16print_stacktraceRSoj
0000000000000000 T _Z17scaleBranchLengthR6Params
0000000000000000 T _Z18checkSplitDistanceRSoR9PDNetwork
                 U _Z18convert_double_vecPKcRSt6vectorIdSaIdEEc
0000000000000000 T _Z20computeTaxaFrequencyR8SplitSetRSt6vectorIdSaIdEE
0000000000000000 T _Z21computeRFDistExtendedPKcS0_S0_
0000000000000000 T _Z21computeRFDistSamePairPKcS0_S0_
0000000000000000 T _Z24collapseLowBranchSupportPcS_
0000000000000000 T _Z7compareR6Params
0000000000000000 T _Z8funcExitv
                 U _Z8outErrorPKcNSt7__cxx1112basic_stringIcSt11char_traitsIcESaIcEEEb
                 U _Z8outErrorPKcS0_b
                 U _Z8outErrorPKcb
0000000000000000 u _Z9_log_fileB5cxx11
                 U _Z9getOSNameB5cxx11v
0000000000000000 T _Z9printTaxaR6Params
0000000000000000 T _Z9runPDTreeR6Params
0000000000000000 u _ZGV5cmust
0000000000000000 u _ZGV8_err_buf
0000000000000000 u _ZGV8_out_buf
0000000000000000 u _ZGV9_log_fileB5cxx11
0000000000000000 u _ZGV9_must_buf
                 U _ZN10MSetsBlockC1Ev
                 U _ZN10SplitGraph10calcWeightEv
                 U _ZN10SplitGraph11countSplitsER5Split
                 U _ZN10SplitGraph11getTaxaNameERSt6vectorINSt7__cxx1112basic_stringIcSt11char_traitsIcESaIcEEESaIS6_EE
                 U _ZN10SplitGraph12calcDistanceERSt6vectorIS0_IdSaIdEESaIS2_EE
                 U _ZN10SplitGraph17getNTrivialSplitsEv
                 U _ZN10SplitGraph18isWeaklyCompatibleEv
                 U _ZN10SplitGraph19countInternalSplitsER5Split
                 U _ZN10SplitGraphC1ER6Params
                 U _ZN10SplitGraphC1Ev
                 U _ZN10SplitGraphD1Ev
                 U _ZN10SplitGraphD2Ev
                 U _ZN11MaAlignment17printPatObsExpFreEPKc
                 U _ZN11MaAlignment25generateExpectedAlignmentEPS_Rd
                 U _ZN11MaAlignment9readLogLLEPc
0000000000000000 W _ZN11MaAlignmentD0Ev
0000000000000000 W _ZN11MaAlignmentD1Ev
0000000000000000 W _ZN11MaAlignmentD2Ev
                 U _ZN12NxsTaxaBlock13GetTaxonLabelEj
                 U _ZN12NxsTaxaBlock22GetMaxTaxonLabelLengthEv
0000000000000000 W _ZN12errstreambuf4syncEv
0000000000000000 W _ZN12errstreambuf8overflowEi
0000000000000000 W _ZN12errstreambufD0Ev
0000000000000000 W _ZN12errstreambufD1Ev
0000000000000000 W _ZN12errstreambufD2Ev
0000000000000000 T _ZN12outstreambuf4openEPKcSt13_Ios_Openmode
0000000000000000 T _ZN12outstreambuf4syncEv
0000000000000000 T _ZN12outstreambuf5closeEv
0000000000000000 T _ZN12outstreambuf7is_openEv
0000000000000000 T _ZN12outstreambuf8overflowEi
0000000000000000 W _ZN12outstreambufD0Ev
0000000000000000 W _ZN12outstreambufD1Ev
0000000000000000 W _ZN12outstreambufD2Ev
0000000000000000 W _ZN13muststreambuf4syncEv
0000000000000000 W _ZN13muststreambuf8overflowEi
0000000000000000 W _ZN13muststreambufD0Ev
0000000000000000 W _ZN13muststreambufD1Ev
0000000000000000 W _ZN13muststreambufD2Ev
                 U _ZN15CircularNetwork6findPDER6ParamsRSt6vectorI8SplitSetSaIS3_EERS2_IiSaIiEE
                 U _ZN15CircularNetworkC1ER6Params
0000000000000000 W _ZN17PDRelatedMeasuresD1Ev
0000000000000000 W _ZN17PDRelatedMeasuresD2Ev
                 U _ZN3PML10StateSpaceD2Ev
                 U _ZN4Node12findNeighborEPS_
                 U _ZN5ECOpd11printInfDAGEPKcR9PDNetworkR6Params
                 U _ZN5ECOpd12printResultsEPcPddR6Params
                 U _ZN5ECOpd13dietConservedEPd
                 U _ZN5ECOpd15printSubFoodWebEPcPd
                 U _ZN5ECOpd15readInitialTaxaEPKc
                 U _ZN5ECOpd16printECOlpRootedEPKcRS_
                 U _ZN5ECOpd18printECOlpUnrootedEPKcRS_
                 U _ZN5ECOpd7defineKER6Params
                 U _ZN5ECOpd7readDAGEPKc
                 U _ZN5ECOpdC1EPKcRb
                 U _ZN5ECOpdC1Ev
                 U _ZN5ECOpdD1Ev
                 U _ZN5MTree10findNodeIDEiP4NodeS1_
                 U _ZN5MTree10removeTaxaERSt6vectorINSt7__cxx1112basic_stringIcSt11char_traitsIcESaIcEEESaIS6_EE
                 U _ZN5MTree10treeLengthEP4NodeS1_
                 U _ZN5MTree11getTaxaNameERSt6vectorINSt7__cxx1112basic_stringIcSt11char_traitsIcESaIcEEESaIS6_EEP4NodeSB_
                 U _ZN5MTree11scaleLengthEdbP4NodeS1_
0000000000000000 W _ZN5MTree11treeLengthsERSt6vectorIdSaIdEEP4NodeS5_
                 U _ZN5MTree13computeRFDistEPKcRSt6vectorIdSaIdEEi
                 U _ZN5MTree13computeRFDistERSiRSt6vectorIdSaIdEEib
                 U _ZN5MTree13convertSplitsERSt6vectorINSt7__cxx1112basic_stringIcSt11char_traitsIcESaIcEEESaIS6_EER10SplitGraphPS0_IP4NodeSaISD_EESD_SD_
                 U _ZN5MTree13isBifurcatingEP4NodeS1_
                 U _ZN5MTree17parseBranchLengthERNSt7__cxx1112basic_stringIcSt11char_traitsIcESaIcEEERSt6vectorIdSaIdEE
                 U _ZN5MTree17printBranchLengthERSoibP8Neighbor
                 U _ZN5MTree17scaleCladeSupportEdbP4NodeS1_
                 U _ZN5MTree18generateNNIBrachesERSt6vectorIP4NodeSaIS2_EES5_P10SplitGraphS2_S2_
                 U _ZN5MTree18treeLengthInternalEdP4NodeS1_
                 U _ZN5MTree20collapseZeroBranchesEP4NodeS1_d
                 U _ZN5MTree24collapseInternalBranchesEP4NodeS1_d
                 U _ZN5MTree7getTaxaERSt6vectorIP4NodeSaIS2_EES2_S2_
                 U _ZN5MTree7newNodeEiPKc
                 U _ZN5MTree7newNodeEii
                 U _ZN5MTree8calcDistEPc
                 U _ZN5MTree8copyTreeEPS_
                 U _ZN5MTree8copyTreeEPS_RNSt7__cxx1112basic_stringIcSt11char_traitsIcESaIcEEE
                 U _ZN5MTree8drawTreeERSoid
                 U _ZN5MTree8readTreeEPKcRbi
                 U _ZN5MTree8readTreeERSiRb
                 U _ZN5MTree9printTreeEPKci
                 U _ZN5MTree9printTreeERSoi
                 U _ZN5MTree9printTreeERSoiP4NodeS2_
0000000000000000 W _ZN5MTree9setParamsEP6Params
                 U _ZN5MTreeC1EPKcRb
                 U _ZN5MTreeC1Ev
                 U _ZN5MTreeC2EPKcRb
                 U _ZN5MTreeC2Ev
                 U _ZN5MTreeD1Ev
                 U _ZN5MTreeD2Ev
                 U _ZN5Split11getTaxaListERSt6vectorIiSaIiEE
                 U _ZN5Split12containTaxonEi
                 U _ZN5Split6reportERSo
                 U _ZN5Split8subsetOfERS_
                 U _ZN5Split9randomizeEi
                 U _ZN5SplitC1ERKS_
                 U _ZN5SplitC1Eid
                 U _ZN5SplitC1Ev
                 U _ZN5SplitD1Ev
                 U _ZN5SplitmIERS_
                 U _ZN5SplitpLERS_
                 U _ZN6Greedy3runER6ParamsRSt6vectorI9PDTaxaSetSaIS3_EE
0000000000000000 W _ZN6GreedyD0Ev
0000000000000000 W _ZN6GreedyD1Ev
0000000000000000 W _ZN6GreedyD2Ev
                 U _ZN6MaTree10comparedToER8MTreeSetRSt6vectorIS2_IdSaIdEESaIS4_EERS2_IiSaIiEERS4_
                 U _ZN6MaTree11printBrInfoERSo
0000000000000000 W _ZN6MaTreeD0Ev
0000000000000000 W _ZN6MaTreeD1Ev
0000000000000000 W _ZN6MaTreeD2Ev
                 U _ZN6PDTree14calcPDEndemismERSt6vectorI9PDTaxaSetSaIS1_EERS0_IdSaIdEE
                 U _ZN6PDTree21calcPDComplementarityERSt6vectorI9PDTaxaSetSaIS1_EEPcRS0_IdSaIdEE
                 U _ZN6PDTree4initER6Params
                 U _ZN6PDTree4initERS_
                 U _ZN6PDTree6calcPDER5SplitdP4NodeS3_
                 U _ZN6PDTree9computePDER6ParamsRSt6vectorI9PDTaxaSetSaIS3_EER17PDRelatedMeasures
                 U _ZN6PDTreeC1ER6Params
0000000000000000 W _ZN6PDTreeD0Ev
0000000000000000 W _ZN6PDTreeD1Ev
0000000000000000 W _ZN6PDTreeD2Ev
                 U _ZN6Params11getInstanceEv
0000000000000000 W _ZN7MyToken13OutputCommentERK9NxsString
0000000000000000 W _ZN7MyTokenD0Ev
0000000000000000 W _ZN7MyTokenD1Ev
0000000000000000 W _ZN7MyTokenD2Ev
                 U _ZN7PatternC1ERKS_
                 U _ZN7Pruning3runER6ParamsRSt6vectorI9PDTaxaSetSaIS3_EE
0000000000000000 W _ZN7PruningD0Ev
0000000000000000 W _ZN7PruningD1Ev
0000000000000000 W _ZN7PruningD2Ev
                 U _ZN8MExtTree13createClusterERSt6vectorIP4NodeSaIS2_EERS0_IS0_IiSaIiEESaIS7_EES2_S2_
                 U _ZN8MExtTree24collapseLowBranchSupportERSt6vectorIdSaIdEEP4NodeS5_
0000000000000000 W _ZN8MExtTreeD0Ev
0000000000000000 W _ZN8MExtTreeD1Ev
0000000000000000 W _ZN8MExtTreeD2Ev
                 U _ZN8MTreeSet13computeRFDistEPdPS_bPKcS3_S0_
                 U _ZN8MTreeSet13computeRFDistEPdid
                 U _ZN8MTreeSetC1EPKcRbiiS1_
                 U _ZN8MTreeSetD1Ev
0000000000000000 W _ZN8MyReader10NexusErrorE9NxsStringSt4fposI11__mbstate_tEll
0000000000000000 W _ZN8MyReader13EnteringBlockE9NxsString
0000000000000000 W _ZN8MyReader13OutputCommentERK9NxsString
0000000000000000 W _ZN8MyReader13SkippingBlockE9NxsString
0000000000000000 W _ZN8MyReader15ExecuteStartingEv
0000000000000000 W _ZN8MyReader15ExecuteStoppingEv
0000000000000000 W _ZN8MyReaderD0Ev
0000000000000000 W _ZN8MyReaderD1Ev
0000000000000000 W _ZN8MyReaderD2Ev
                 U _ZN8NCBITree12readNCBITreeEPKciS1_S1_
                 U _ZN8NCBITree13readNCBINamesEPKcS1_
                 U _ZN8NCBITreeC1Ev
                 U _ZN8NCBITreeD1Ev
                 U _ZN8NxsTokenC2ERSi
                 U _ZN8NxsTokenD2Ev
                 U _ZN8SplitSet9getWeightEv
                 U _ZN8SplitSetC1Ev
                 U _ZN8SplitSetD1Ev
0000000000000000 W _ZN9Alignment11computeDistEii
                 U _ZN9Alignment12computeConstER7Pattern
                 U _ZN9Alignment12convertStateEcN3PML7SeqTypeE
                 U _ZN9Alignment13checkGappySeqEb
                 U _ZN9Alignment13computeJCDistEii
                 U _ZN9Alignment13printSiteInfoEPKc
                 U _ZN9Alignment14computeObsDistEii
                 U _ZN9Alignment14countConstSiteEv
                 U _ZN9Alignment14getPatternFreqEPi
                 U _ZN9Alignment14getPatternFreqERSt6vectorIiSaIiEE
                 U _ZN9Alignment14printAlignmentE9InputTypePKcbS2_iS2_
                 U _ZN9Alignment14printAlignmentE9InputTypeRSoPKcbS3_iS3_
0000000000000000 W _ZN9Alignment15getMaxNumStatesEv
                 U _ZN9Alignment15multinomialProbES_Rd
                 U _ZN9Alignment16computeStateFreqEPdm
0000000000000000 W _ZN9Alignment16isSuperAlignmentEv
                 U _ZN9Alignment16shuffleAlignmentEv
                 U _ZN9Alignment17checkAbsentStatesENSt7__cxx1112basic_stringIcSt11char_traitsIcESaIcEEE
                 U _ZN9Alignment18removeIdenticalSeqENSt7__cxx1112basic_stringIcSt11char_traitsIcESaIcEEEbRSt6vectorIS5_SaIS5_EES9_
                 U _ZN9Alignment19extractSubAlignmentEPS_RSt6vectorIiSaIiEEiiPS3_
0000000000000000 W _ZN9Alignment19getSitePatternIndexERSt6vectorIiSaIiEE
                 U _ZN9Alignment22computeQuartetSupportsERSt6vectorIiSaIiEERS0_IlSaIlEE
                 U _ZN9Alignment22orderPatternByNumCharsEi
                 U _ZN9Alignment23computeDivergenceMatrixEPdS0_b
                 U _ZN9Alignment24computeUnconstrainedLogLEv
                 U _ZN9Alignment24createBootstrapAlignmentEPS_PSt6vectorIiSaIiEEPKc
                 U _ZN9Alignment24createBootstrapAlignmentEPiPKcS0_
                 U _ZN9Alignment24createBootstrapAlignmentERSt6vectorIiSaIiEEPKc
                 U _ZN9Alignment9doSymTestEmRSt6vectorI13SymTestResultSaIS1_EES4_S4_PiPS0_I11SymTestStatSaIS6_EE
                 U _ZN9AlignmentC1EPcS0_R9InputTypeNSt7__cxx1112basic_stringIcSt11char_traitsIcESaIcEEE
0000000000000000 W _ZN9AlignmentC1ERKS_
                 U _ZN9AlignmentC2EPcS0_R9InputTypeNSt7__cxx1112basic_stringIcSt11char_traitsIcESaIcEEE
0000000000000000 W _ZN9AlignmentC2ERKS_
                 U _ZN9AlignmentC2Ev
                 U _ZN9AlignmentD1Ev
                 U _ZN9AlignmentD2Ev
                 U _ZN9MPIHelper11getInstanceEv
                 U _ZN9MPIHelper8finalizeEv
                 U _ZN9NxsReader12ExitingBlockE9NxsString
                 U _ZN9NxsReader16DebugReportBlockER8NxsBlock
                 U _ZN9NxsReader21SkippingDisabledBlockE9NxsString
                 U _ZN9NxsReader3AddEP8NxsBlock
                 U _ZN9NxsReader7ExecuteER8NxsTokenb
                 U _ZN9NxsReaderC2Ev
                 U _ZN9NxsReaderD2Ev
                 U _ZN9PDNetwork10calcPDGainERSt6vectorI8SplitSetSaIS1_EERS0_IS0_IdSaIdEESaIS6_EE
                 U _ZN9PDNetwork11speciesListEPSt6vectorINSt7__cxx1112basic_stringIcSt11char_traitsIcESaIcEEESaIS6_EE
                 U _ZN9PDNetwork14calcPDEndemismER8SplitSetRSt6vectorIdSaIdEE
                 U _ZN9PDNetwork14transformEcoLPER6ParamsPKci
                 U _ZN9PDNetwork19printOutputSetScoreER6ParamsRSt6vectorI8SplitSetSaIS3_EE
                 U _ZN9PDNetwork21calcPDComplementarityER8SplitSetPcRSt6vectorINSt7__cxx1112basic_stringIcSt11char_traitsIcESaIcEEESaIS9_EERS3_IdSaIdEE
                 U _ZN9PDNetwork8calcCostER5Split
                 U _ZN9PDNetwork8isPDAreaEv
                 U _ZN9PDNetwork9computePDER6ParamsR8SplitSetR17PDRelatedMeasures
                 U _ZN9PDNetworkC1ER6Params
0000000000000000 W _ZN9PDNetworkD0Ev
0000000000000000 W _ZN9PDNetworkD1Ev
0000000000000000 W _ZN9PDNetworkD2Ev
                 U _ZN9PDTaxaSet9printTaxaEPc
                 U _ZN9PDTaxaSet9printTaxaERSo
                 U _ZN9PDTaxaSet9printTreeEPc
                 U _ZNK5Split9countTaxaEv
                 U _ZNKSt12__basic_fileIcE7is_openEv
                 U _ZNKSt5ctypeIcE13_M_widen_initEv
0000000000000000 W _ZNKSt5ctypeIcE8do_widenEc
                 U _ZNKSt7__cxx1112basic_stringIcSt11char_traitsIcESaIcEE7compareEPKc
                 U _ZNSi5ungetEv
                 U _ZNSo3putEc
                 U _ZNSo5flushEv
                 U _ZNSo9_M_insertIdEERSoT_
                 U _ZNSo9_M_insertIlEERSoT_
                 U _ZNSo9_M_insertImEERSoT_
                 U _ZNSoC1EPSt15basic_streambufIcSt11char_traitsIcEE
                 U _ZNSoD1Ev
                 U _ZNSolsEPSt15basic_streambufIcSt11char_traitsIcEE
                 U _ZNSolsEi
0000000000000000 W _ZNSt10_HashtableINSt7__cxx1112basic_stringIcSt11char_traitsIcESaIcEEESt4pairIKS5_jESaIS8_ENSt8__detail10_Select1stESt8equal_toIS5_ESt4hashIS5_ENSA_18_Mod_range_hashingENSA_20_Default_ranged_hashENSA_20_Prime_rehash_policyENSA_17_Hashtable_traitsILb1ELb0ELb1EEEE5clearEv
0000000000000000 W _ZNSt10_HashtableIjSt4pairIKjNSt7__cxx1112basic_stringIcSt11char_traitsIcESaIcEEEESaIS8_ENSt8__detail10_Select1stESt8equal_toIjESt4hashIjENSA_18_Mod_range_hashingENSA_20_Default_ranged_hashENSA_20_Prime_rehash_policyENSA_17_Hashtable_traitsILb0ELb0ELb1EEEE5clearEv
0000000000000000 W _ZNSt10_HashtableIjSt4pairIKjSt6vectorIjSaIjEEESaIS5_ENSt8__detail10_Select1stESt8equal_toIjESt4hashIjENS7_18_Mod_range_hashingENS7_20_Default_ranged_hashENS7_20_Prime_rehash_policyENS7_17_Hashtable_traitsILb0ELb0ELb1EEEE5clearEv
0000000000000000 W _ZNSt12_Destroy_auxILb0EE9__destroyIPNSt7__cxx1112basic_stringIcSt11char_traitsIcESaIcEEEEEvT_S9_
                 U _ZNSt12__basic_fileIcED1Ev
                 U _ZNSt13basic_filebufIcSt11char_traitsIcEE4openEPKcSt13_Ios_Openmode
                 U _ZNSt13basic_filebufIcSt11char_traitsIcEE5closeEv
                 U _ZNSt13basic_filebufIcSt11char_traitsIcEEC1Ev
                 U _ZNSt13basic_filebufIcSt11char_traitsIcEED1Ev
                 U _ZNSt13runtime_errorC2ERKS_
                 U _ZNSt14basic_ifstreamIcSt11char_traitsIcEED1Ev
                 U _ZNSt14basic_ofstreamIcSt11char_traitsIcEE4openEPKcSt13_Ios_Openmode
                 U _ZNSt14basic_ofstreamIcSt11char_traitsIcEE5closeEv
                 U _ZNSt14basic_ofstreamIcSt11char_traitsIcEEC1Ev
                 U _ZNSt14basic_ofstreamIcSt11char_traitsIcEED1Ev
                 U _ZNSt15basic_streambufIcSt11char_traitsIcEE5imbueERKSt6locale
                 U _ZNSt15basic_streambufIcSt11char_traitsIcEE5uflowEv
                 U _ZNSt15basic_streambufIcSt11char_traitsIcEE6setbufEPcl
                 U _ZNSt15basic_streambufIcSt11char_traitsIcEE6xsgetnEPcl
                 U _ZNSt15basic_streambufIcSt11char_traitsIcEE6xsputnEPKcl
                 U _ZNSt15basic_streambufIcSt11char_traitsIcEE7seekoffElSt12_Ios_SeekdirSt13_Ios_Openmode
                 U _ZNSt15basic_streambufIcSt11char_traitsIcEE7seekposESt4fposI11__mbstate_tESt13_Ios_Openmode
                 U _ZNSt15basic_streambufIcSt11char_traitsIcEE9pbackfailEi
                 U _ZNSt15basic_streambufIcSt11char_traitsIcEE9showmanycEv
                 U _ZNSt15basic_streambufIcSt11char_traitsIcEE9underflowEv
                 U _ZNSt15basic_streambufIcSt11char_traitsIcEEC2Ev
                 U _ZNSt6localeC1Ev
                 U _ZNSt6localeD1Ev
0000000000000000 W _ZNSt6vectorI7PatternSaIS0_EED1Ev
0000000000000000 W _ZNSt6vectorI7PatternSaIS0_EED2Ev
0000000000000000 W _ZNSt6vectorI8SplitSetSaIS0_EE17_M_default_appendEm
0000000000000000 W _ZNSt6vectorINSt7__cxx1112basic_stringIcSt11char_traitsIcESaIcEEESaIS5_EE17_M_realloc_insertIJRKS5_EEEvN9__gnu_cxx17__normal_iteratorIPS5_S7_EEDpOT_
0000000000000000 W _ZNSt6vectorINSt7__cxx1112basic_stringIcSt11char_traitsIcESaIcEEESaIS5_EEC1ERKS7_
0000000000000000 W _ZNSt6vectorINSt7__cxx1112basic_stringIcSt11char_traitsIcESaIcEEESaIS5_EEC2ERKS7_
0000000000000000 W _ZNSt6vectorINSt7__cxx1112basic_stringIcSt11char_traitsIcESaIcEEESaIS5_EED1Ev
0000000000000000 W _ZNSt6vectorINSt7__cxx1112basic_stringIcSt11char_traitsIcESaIcEEESaIS5_EED2Ev
0000000000000000 W _ZNSt6vectorIPNSt7__cxx1112basic_stringIcSt11char_traitsIcESaIcEEESaIS6_EE17_M_realloc_insertIJS6_EEEvN9__gnu_cxx17__normal_iteratorIPS6_S8_EEDpOT_
0000000000000000 W _ZNSt6vectorIS_IdSaIdEESaIS1_EED1Ev
0000000000000000 W _ZNSt6vectorIS_IdSaIdEESaIS1_EED2Ev
0000000000000000 W _ZNSt6vectorIdSaIdEE14_M_fill_insertEN9__gnu_cxx17__normal_iteratorIPdS1_EEmRKd
0000000000000000 W _ZNSt6vectorIiSaIiEE12emplace_backIJiEEEvDpOT_
0000000000000000 W _ZNSt6vectorIiSaIiEE17_M_realloc_insertIJRKiEEEvN9__gnu_cxx17__normal_iteratorIPiS1_EEDpOT_
                 U _ZNSt7__cxx1112basic_stringIcSt11char_traitsIcESaIcEE10_M_replaceEmmPKcm
                 U _ZNSt7__cxx1112basic_stringIcSt11char_traitsIcESaIcEE4swapERS4_
                 U _ZNSt7__cxx1112basic_stringIcSt11char_traitsIcESaIcEE6appendEPKc
                 U _ZNSt7__cxx1112basic_stringIcSt11char_traitsIcESaIcEE9_M_appendEPKcm
                 U _ZNSt7__cxx1112basic_stringIcSt11char_traitsIcESaIcEE9_M_assignERKS4_
                 U _ZNSt7__cxx1112basic_stringIcSt11char_traitsIcESaIcEE9_M_createERmm
                 U _ZNSt7__cxx1112basic_stringIcSt11char_traitsIcESaIcEE9_M_mutateEmmPKcm
                 U _ZNSt7__cxx1112basic_stringIcSt11char_traitsIcESaIcEEC1ERKS4_
                 U _ZNSt7__cxx1112basic_stringIcSt11char_traitsIcESaIcEED1Ev
0000000000000000 W _ZNSt7__cxx1115basic_stringbufIcSt11char_traitsIcESaIcEED0Ev
0000000000000000 W _ZNSt7__cxx1115basic_stringbufIcSt11char_traitsIcESaIcEED1Ev
0000000000000000 W _ZNSt7__cxx1115basic_stringbufIcSt11char_traitsIcESaIcEED2Ev
                 U _ZNSt7__cxx1119basic_ostringstreamIcSt11char_traitsIcESaIcEED1Ev
                 U _ZNSt8ios_base4InitC1Ev
                 U _ZNSt8ios_base4InitD1Ev
                 U _ZNSt8ios_base7failureB5cxx11D1Ev
                 U _ZNSt8ios_baseC2Ev
                 U _ZNSt8ios_baseD2Ev
                 U _ZNSt9basic_iosIcSt11char_traitsIcEE4initEPSt15basic_streambufIcS1_E
                 U _ZNSt9basic_iosIcSt11char_traitsIcEE5clearESt12_Ios_Iostate
                 U _ZNSt9basic_iosIcSt11char_traitsIcEE5rdbufEPSt15basic_streambufIcS1_E
0000000000000000 W _ZSt13__adjust_heapIN9__gnu_cxx17__normal_iteratorIPP4NodeSt6vectorIS3_SaIS3_EEEElS3_NS0_5__ops15_Iter_comp_iterIPFiPKS2_SC_EEEEvT_T0_SH_T1_T2_
0000000000000000 W _ZSt16__insertion_sortIN9__gnu_cxx17__normal_iteratorIPP4NodeSt6vectorIS3_SaIS3_EEEENS0_5__ops15_Iter_comp_iterIPFiPKS2_SC_EEEEvT_SG_T0_
0000000000000000 W _ZSt16__introsort_loopIN9__gnu_cxx17__normal_iteratorIPP4NodeSt6vectorIS3_SaIS3_EEEElNS0_5__ops15_Iter_comp_iterIPFiPKS2_SC_EEEEvT_SG_T0_T1_
                 U _ZSt16__ostream_insertIcSt11char_traitsIcEERSt13basic_ostreamIT_T0_ES6_PKS3_l
                 U _ZSt16__throw_bad_castv
                 U _ZSt17__throw_bad_allocv
                 U _ZSt19__throw_logic_errorPKc
                 U _ZSt20__throw_length_errorPKc
0000000000000000 W _ZSt22__final_insertion_sortIN9__gnu_cxx17__normal_iteratorIPP4NodeSt6vectorIS3_SaIS3_EEEENS0_5__ops15_Iter_comp_iterIPFiPKS2_SC_EEEEvT_SG_T0_
                 U _ZSt28__throw_bad_array_new_lengthv
                 U _ZSt4cerr
                 U _ZSt4cout
                 U _ZSt4endlIcSt11char_traitsIcEERSt13basic_ostreamIT_T0_ES6_
                 U _ZStlsISt11char_traitsIcEERSt13basic_ostreamIcT_ES5_PKc
                 U _ZStrsIcSt11char_traitsIcEERSt13basic_istreamIT_T0_ES6_RS3_
0000000000000000 V _ZTI11MaAlignment
0000000000000000 V _ZTI12errstreambuf
0000000000000000 V _ZTI12outstreambuf
0000000000000000 V _ZTI13muststreambuf
                 U _ZTI5MTree
0000000000000000 V _ZTI6Greedy
0000000000000000 V _ZTI6MaTree
0000000000000000 V _ZTI6PDTree
0000000000000000 V _ZTI7MyToken
0000000000000000 V _ZTI7Pruning
0000000000000000 V _ZTI8MExtTree
0000000000000000 V _ZTI8MyReader
                 U _ZTI8NxsToken
                 U _ZTI9Alignment
                 U _ZTI9NxsReader
                 U _ZTINSt8ios_base7failureB5cxx11E
                 U _ZTISt15basic_streambufIcSt11char_traitsIcEE
0000000000000000 V _ZTS11MaAlignment
0000000000000000 V _ZTS12errstreambuf
0000000000000000 V _ZTS12outstreambuf
0000000000000000 V _ZTS13muststreambuf
0000000000000000 V _ZTS6Greedy
0000000000000000 V _ZTS6MaTree
0000000000000000 V _ZTS6PDTree
0000000000000000 V _ZTS7MyToken
0000000000000000 V _ZTS7Pruning
0000000000000000 V _ZTS8MExtTree
0000000000000000 V _ZTS8MyReader
                 U _ZTTNSt7__cxx1119basic_ostringstreamIcSt11char_traitsIcESaIcEEE
                 U _ZTTSt14basic_ifstreamIcSt11char_traitsIcEE
                 U _ZTTSt14basic_ofstreamIcSt11char_traitsIcEE
0000000000000000 V _ZTV11MaAlignment
0000000000000000 V _ZTV12errstreambuf
0000000000000000 V _ZTV12outstreambuf
0000000000000000 V _ZTV13muststreambuf
                 U _ZTV15CircularNetwork
0000000000000000 V _ZTV6Greedy
0000000000000000 V _ZTV6MaTree
0000000000000000 V _ZTV6PDTree
0000000000000000 V _ZTV7MyToken
0000000000000000 V _ZTV7Pruning
0000000000000000 V _ZTV8MExtTree
0000000000000000 V _ZTV8MyReader
                 U _ZTV8SplitSet
                 U _ZTV9Alignment
                 U _ZTV9PDNetwork
                 U _ZTVN10__cxxabiv120__si_class_type_infoE
                 U _ZTVNSt7__cxx1115basic_stringbufIcSt11char_traitsIcESaIcEEE
                 U _ZTVNSt7__cxx1119basic_ostringstreamIcSt11char_traitsIcESaIcEEE
                 U _ZTVNSt8ios_base7failureB5cxx11E
                 U _ZTVSt13basic_filebufIcSt11char_traitsIcEE
                 U _ZTVSt14basic_ifstreamIcSt11char_traitsIcEE
                 U _ZTVSt14basic_ofstreamIcSt11char_traitsIcEE
                 U _ZTVSt15basic_streambufIcSt11char_traitsIcEE
                 U _ZTVSt9basic_iosIcSt11char_traitsIcEE
                 U _ZdaPv
                 U _ZdlPv
                 U _Znam
                 U _Znwm
                 U __cxa_atexit
                 U __cxa_begin_catch
                 U __cxa_end_catch
                 U __cxa_get_exception_ptr
                 U __cxa_rethrow
                 U __cxa_throw_bad_array_new_length
                 U __dso_handle
                 U __gxx_personality_v0
                 U __isoc99_fscanf
0000000000000000 u _err_buf
0000000000000000 u _exit_wait_optn
0000000000000000 u _must_buf
0000000000000000 u _out_buf
                 U abort
                 U calloc
0000000000000000 u cmust
                 U ctime
0000000000000000 T endLogFile
                 U exit
                 U fflush
                 U fprintf
0000000000000000 T funcAbort
                 U fwrite
                 U getc
0000000000000000 T getintargv
                 U getrusage
                 U memcmp
                 U memcpy
                 U memmove
                 U memset
                 U printf
                 U signal
0000000000000000 T startLogFile
                 U stdin
                 U stdout
                 U strlen
                 U strrchr
                 U time
                 U tolower
                 U verbose_mode

terraceanalysis.cpp.o:
0000000000000000 V DW.ref.__gxx_personality_v0
                 U _GLOBAL_OFFSET_TABLE_
                 U _Unwind_Resume
                 U _Z12convert_timeB5cxx11d
0000000000000000 T _Z13read_tree_setPKcRbRSt6vectorIP11TerraceTreeSaIS4_EE
0000000000000000 T _Z17run_terrace_checkP7TerraceR6Params
0000000000000000 T _Z18run_generate_treesP7TerraceR6Paramsi
0000000000000000 T _Z18runterraceanalysisR6Params
                 U _ZN11TerraceTree11fillbrNodesEv
                 U _ZN11TerraceTree21copyTree_byTaxonNamesEP5MTreeSt6vectorINSt7__cxx1112basic_stringIcSt11char_traitsIcESaIcEEESaIS8_EE
                 U _ZN11TerraceTree8readTreeEPKcRb
                 U _ZN11TerraceTree8readTreeERSiRb
                 U _ZN11TerraceTreeC1Ev
                 U _ZN11TerraceTreeD1Ev
                 U _ZN21PresenceAbsenceMatrix15percent_missingEv
                 U _ZN21PresenceAbsenceMatrix16getSubPrAbMatrixESt6vectorINSt7__cxx1112basic_stringIcSt11char_traitsIcESaIcEEESaIS6_EEPS_PS0_IiSaIiEE
                 U _ZN21PresenceAbsenceMatrix17read_pr_ab_matrixEPKc
                 U _ZN21PresenceAbsenceMatrix18get_from_alignmentER6Params
                 U _ZN21PresenceAbsenceMatrix18print_pr_ab_matrixERSo
                 U _ZN21PresenceAbsenceMatrix20print_overlap_matrixERSo
                 U _ZN21PresenceAbsenceMatrix22getPartOverlapCompleteEv
                 U _ZN21PresenceAbsenceMatrix29getINFO_init_tree_taxon_orderERSt6vectorINSt7__cxx1112basic_stringIcSt11char_traitsIcESaIcEEESaIS6_EES9_i
                 U _ZN21PresenceAbsenceMatrixC1Ev
                 U _ZN5MTree13isBifurcatingEP4NodeS1_
                 U _ZN5MTree17convertToUnrootedEv
                 U _ZN5MTree8copyTreeEPS_
                 U _ZN5MTree8readTreeERSiRb
                 U _ZN5MTreeC1Ev
                 U _ZN5MTreeC2ERS_
                 U _ZN5MTreeD2Ev
                 U _ZN6Params11getInstanceEv
                 U _ZN7Terrace15check_two_treesEP5MTree
                 U _ZN7Terrace20generateTerraceTreesEPS_RSt6vectorIS0_SaIS0_EERS1_INSt7__cxx1112basic_stringIcSt11char_traitsIcESaIcEEESaISA_EEiPSC_
                 U _ZN7Terrace24write_summary_generationEv
                 U _ZN7Terrace30create_Top_Low_Part_Tree_PairsERSt6vectorIPS_SaIS1_EES1_
                 U _ZN7Terrace9linkTreesEbb
                 U _ZN7Terrace9printInfoERSo
                 U _ZN7TerraceC1E11TerraceTreeP21PresenceAbsenceMatrix
                 U _ZN7TerraceC1EPKcbS1_
                 U _ZN7TerraceC1ESt6vectorIP11TerraceTreeSaIS2_EE
                 U _ZNSi5ungetEv
                 U _ZNSo9_M_insertIdEERSoT_
                 U _ZNSo9_M_insertImEERSoT_
                 U _ZNSolsEi
0000000000000000 W _ZNSt10_HashtableINSt7__cxx1112basic_stringIcSt11char_traitsIcESaIcEEESt4pairIKS5_P4NodeESaISA_ENSt8__detail10_Select1stESt8equal_toIS5_ESt4hashIS5_ENSC_18_Mod_range_hashingENSC_20_Default_ranged_hashENSC_20_Prime_rehash_policyENSC_17_Hashtable_traitsILb1ELb0ELb1EEEE5clearEv
0000000000000000 W _ZNSt10_HashtableINSt7__cxx1112basic_stringIcSt11char_traitsIcESaIcEEESt4pairIKS5_P4NodeESaISA_ENSt8__detail10_Select1stESt8equal_toIS5_ESt4hashIS5_ENSC_18_Mod_range_hashingENSC_20_Default_ranged_hashENSC_20_Prime_rehash_policyENSC_17_Hashtable_traitsILb1ELb0ELb1EEEED1Ev
0000000000000000 W _ZNSt10_HashtableINSt7__cxx1112basic_stringIcSt11char_traitsIcESaIcEEESt4pairIKS5_P4NodeESaISA_ENSt8__detail10_Select1stESt8equal_toIS5_ESt4hashIS5_ENSC_18_Mod_range_hashingENSC_20_Default_ranged_hashENSC_20_Prime_rehash_policyENSC_17_Hashtable_traitsILb1ELb0ELb1EEEED2Ev
0000000000000000 W _ZNSt12_Destroy_auxILb0EE9__destroyIPNSt7__cxx1112basic_stringIcSt11char_traitsIcESaIcEEEEEvT_S9_
                 U _ZNSt12__basic_fileIcED1Ev
                 U _ZNSt13basic_filebufIcSt11char_traitsIcEE4openEPKcSt13_Ios_Openmode
                 U _ZNSt13basic_filebufIcSt11char_traitsIcEE5closeEv
                 U _ZNSt13basic_filebufIcSt11char_traitsIcEEC1Ev
                 U _ZNSt13basic_filebufIcSt11char_traitsIcEED1Ev
                 U _ZNSt14basic_ifstreamIcSt11char_traitsIcEED1Ev
                 U _ZNSt14basic_ofstreamIcSt11char_traitsIcEED1Ev
                 U _ZNSt6localeD1Ev
0000000000000000 W _ZNSt6vectorINSt7__cxx1112basic_stringIcSt11char_traitsIcESaIcEEESaIS5_EED1Ev
0000000000000000 W _ZNSt6vectorINSt7__cxx1112basic_stringIcSt11char_traitsIcESaIcEEESaIS5_EED2Ev
0000000000000000 W _ZNSt6vectorIP11TerraceTreeSaIS1_EE17_M_realloc_insertIJRKS1_EEEvN9__gnu_cxx17__normal_iteratorIPS1_S3_EEDpOT_
0000000000000000 W _ZNSt6vectorIP5MTreeSaIS1_EE17_M_realloc_insertIJRKS1_EEEvN9__gnu_cxx17__normal_iteratorIPS1_S3_EEDpOT_
                 U _ZNSt7__cxx1112basic_stringIcSt11char_traitsIcESaIcEE10_M_replaceEmmPKcm
                 U _ZNSt7__cxx1112basic_stringIcSt11char_traitsIcESaIcEE9_M_appendEPKcm
                 U _ZNSt7__cxx1112basic_stringIcSt11char_traitsIcESaIcEE9_M_createERmm
                 U _ZNSt8ios_base4InitC1Ev
                 U _ZNSt8ios_base4InitD1Ev
                 U _ZNSt8ios_baseC2Ev
                 U _ZNSt8ios_baseD2Ev
                 U _ZNSt9basic_iosIcSt11char_traitsIcEE4initEPSt15basic_streambufIcS1_E
                 U _ZNSt9basic_iosIcSt11char_traitsIcEE5clearESt12_Ios_Iostate
0000000000000000 W _ZSt16__do_uninit_copyIN9__gnu_cxx17__normal_iteratorIPKNSt7__cxx1112basic_stringIcSt11char_traitsIcESaIcEEESt6vectorIS7_SaIS7_EEEEPS7_ET0_T_SG_SF_
                 U _ZSt16__ostream_insertIcSt11char_traitsIcEERSt13basic_ostreamIT_T0_ES6_PKS3_l
                 U _ZSt17__throw_bad_allocv
                 U _ZSt19__throw_logic_errorPKc
                 U _ZSt20__throw_length_errorPKc
                 U _ZSt28__throw_bad_array_new_lengthv
                 U _ZSt4cout
                 U _ZStrsIcSt11char_traitsIcEERSt13basic_istreamIT_T0_ES6_RS3_
                 U _ZTIPKc
                 U _ZTTSt14basic_ifstreamIcSt11char_traitsIcEE
                 U _ZTTSt14basic_ofstreamIcSt11char_traitsIcEE
                 U _ZTV11TerraceTree
                 U _ZTVSt13basic_filebufIcSt11char_traitsIcEE
                 U _ZTVSt14basic_ifstreamIcSt11char_traitsIcEE
                 U _ZTVSt14basic_ofstreamIcSt11char_traitsIcEE
                 U _ZTVSt15basic_streambufIcSt11char_traitsIcEE
                 U _ZTVSt9basic_iosIcSt11char_traitsIcEE
                 U _ZdlPv
                 U _Znwm
                 U __assert_fail
                 U __cxa_allocate_exception
                 U __cxa_atexit
                 U __cxa_begin_catch
                 U __cxa_end_catch
                 U __cxa_rethrow
                 U __cxa_throw
                 U __dso_handle
                 U __gxx_personality_v0
                 U ctime
                 U exit
                 U getrusage
                 U memcpy
                 U memmove
                 U memset
                 U omp_get_wtime
                 U strlen
                 U time

timetree.cpp.o:
0000000000000000 V DW.ref._ZTINSt7__cxx1112basic_stringIcSt11char_traitsIcESaIcEEE
0000000000000000 V DW.ref._ZTINSt8ios_base7failureB5cxx11E
0000000000000000 V DW.ref.__gxx_personality_v0
                 U _GLOBAL_OFFSET_TABLE_
                 U _Unwind_Resume
0000000000000000 W _Z10_my_assertPKcS0_S0_i
0000000000000000 T _Z10doTimeTreeP9PhyloTree
                 U _Z10trimStringRNSt7__cxx1112basic_stringIcSt11char_traitsIcESaIcEEE
0000000000000000 T _Z11convertDateNSt7__cxx1112basic_stringIcSt11char_traitsIcESaIcEEE
                 U _Z11safeGetlineRSiRNSt7__cxx1112basic_stringIcSt11char_traitsIcESaIcEEE
0000000000000000 T _Z12readDateFileNSt7__cxx1112basic_stringIcSt11char_traitsIcESaIcEEERSt3setIS4_St4lessIS4_ESaIS4_EERSt13unordered_mapIS4_S4_St4hashIS4_ESt8equal_toIS4_ESaISt4pairIKS4_S4_EEE
0000000000000000 T _Z13writeOutgroupRSoPKc
                 U _Z14convert_doublePKcRi
0000000000000000 T _Z15readDateTaxNameRSt3setINSt7__cxx1112basic_stringIcSt11char_traitsIcESaIcEEESt4lessIS5_ESaIS5_EERSt13unordered_mapIS5_S5_St4hashIS5_ESt8equal_toIS5_ESaISt4pairIKS5_S5_EEE
                 U _Z18convertIntToStringB5cxx11i
                 U _Z18convert_double_vecPKcRSt6vectorIdSaIdEEc
                 U _Z18convert_string_vecPKcRSt6vectorINSt7__cxx1112basic_stringIcSt11char_traitsIcESaIcEEESaIS7_EEc
                 U _Z21convertDoubleToStringB5cxx11d
0000000000000000 T _Z7runLSD2P9PhyloTree
                 U _Z8outErrorNSt7__cxx1112basic_stringIcSt11char_traitsIcESaIcEEEb
                 U _Z8outErrorPKcNSt7__cxx1112basic_stringIcSt11char_traitsIcESaIcEEEb
                 U _Z8outErrorPKcb
0000000000000000 T _Z9writeDateNSt7__cxx1112basic_stringIcSt11char_traitsIcESaIcEEERSoRSt3setIS4_St4lessIS4_ESaIS4_EE
                 U _ZN3lsd13buildTimeTreeEiPPcPNS_17InputOutputStreamE
                 U _ZN3lsd17InputOutputStreamC1ENSt7__cxx1112basic_stringIcSt11char_traitsIcESaIcEEES6_S6_S6_S6_S6_
                 U _ZN3lsd17InputOutputStreamD1Ev
                 U _ZN5MTree11getNodeNameERSt3setINSt7__cxx1112basic_stringIcSt11char_traitsIcESaIcEEESt4lessIS6_ESaIS6_EEP4NodeSD_
                 U _ZN6Params11getInstanceEv
0000000000000000 W _ZN9PhyloTree11getAlnNSiteEv
0000000000000000 W _ZNKSt10_HashtableINSt7__cxx1112basic_stringIcSt11char_traitsIcESaIcEEESt4pairIKS5_S5_ESaIS8_ENSt8__detail10_Select1stESt8equal_toIS5_ESt4hashIS5_ENSA_18_Mod_range_hashingENSA_20_Default_ranged_hashENSA_20_Prime_rehash_policyENSA_17_Hashtable_traitsILb1ELb0ELb1EEEE19_M_find_before_nodeEmRS7_m
                 U _ZNKSt5ctypeIcE13_M_widen_initEv
0000000000000000 W _ZNKSt5ctypeIcE8do_widenEc
                 U _ZNKSt7__cxx1112basic_stringIcSt11char_traitsIcESaIcEE4findEcm
                 U _ZNKSt7__cxx1112basic_stringIcSt11char_traitsIcESaIcEE5rfindEcm
                 U _ZNKSt7__cxx1112basic_stringIcSt11char_traitsIcESaIcEE7compareEPKc
                 U _ZNKSt7__cxx1115basic_stringbufIcSt11char_traitsIcESaIcEE3strEv
                 U _ZNKSt8__detail20_Prime_rehash_policy14_M_need_rehashEmmm
                 U _ZNSdD2Ev
                 U _ZNSo3putEc
                 U _ZNSo5flushEv
                 U _ZNSo9_M_insertImEERSoT_
                 U _ZNSolsEi
0000000000000000 W _ZNSt10_HashtableINSt7__cxx1112basic_stringIcSt11char_traitsIcESaIcEEESt4pairIKS5_S5_ESaIS8_ENSt8__detail10_Select1stESt8equal_toIS5_ESt4hashIS5_ENSA_18_Mod_range_hashingENSA_20_Default_ranged_hashENSA_20_Prime_rehash_policyENSA_17_Hashtable_traitsILb1ELb0ELb1EEEE12_Scoped_nodeD1Ev
0000000000000000 W _ZNSt10_HashtableINSt7__cxx1112basic_stringIcSt11char_traitsIcESaIcEEESt4pairIKS5_S5_ESaIS8_ENSt8__detail10_Select1stESt8equal_toIS5_ESt4hashIS5_ENSA_18_Mod_range_hashingENSA_20_Default_ranged_hashENSA_20_Prime_rehash_policyENSA_17_Hashtable_traitsILb1ELb0ELb1EEEE12_Scoped_nodeD2Ev
0000000000000000 W _ZNSt10_HashtableINSt7__cxx1112basic_stringIcSt11char_traitsIcESaIcEEESt4pairIKS5_S5_ESaIS8_ENSt8__detail10_Select1stESt8equal_toIS5_ESt4hashIS5_ENSA_18_Mod_range_hashingENSA_20_Default_ranged_hashENSA_20_Prime_rehash_policyENSA_17_Hashtable_traitsILb1ELb0ELb1EEEE21_M_insert_unique_nodeEmmPNSA_10_Hash_nodeIS8_Lb1EEEm
0000000000000000 W _ZNSt10_HashtableINSt7__cxx1112basic_stringIcSt11char_traitsIcESaIcEEESt4pairIKS5_S5_ESaIS8_ENSt8__detail10_Select1stESt8equal_toIS5_ESt4hashIS5_ENSA_18_Mod_range_hashingENSA_20_Default_ranged_hashENSA_20_Prime_rehash_policyENSA_17_Hashtable_traitsILb1ELb0ELb1EEEE9_M_rehashEmRKm
0000000000000000 W _ZNSt10_HashtableINSt7__cxx1112basic_stringIcSt11char_traitsIcESaIcEEESt4pairIKS5_S5_ESaIS8_ENSt8__detail10_Select1stESt8equal_toIS5_ESt4hashIS5_ENSA_18_Mod_range_hashingENSA_20_Default_ranged_hashENSA_20_Prime_rehash_policyENSA_17_Hashtable_traitsILb1ELb0ELb1EEEED1Ev
0000000000000000 W _ZNSt10_HashtableINSt7__cxx1112basic_stringIcSt11char_traitsIcESaIcEEESt4pairIKS5_S5_ESaIS8_ENSt8__detail10_Select1stESt8equal_toIS5_ESt4hashIS5_ENSA_18_Mod_range_hashingENSA_20_Default_ranged_hashENSA_20_Prime_rehash_policyENSA_17_Hashtable_traitsILb1ELb0ELb1EEEED2Ev
0000000000000000 W _ZNSt12_Destroy_auxILb0EE9__destroyIPNSt7__cxx1112basic_stringIcSt11char_traitsIcESaIcEEEEEvT_S9_
                 U _ZNSt12__basic_fileIcED1Ev
                 U _ZNSt13basic_filebufIcSt11char_traitsIcEE4openEPKcSt13_Ios_Openmode
                 U _ZNSt13basic_filebufIcSt11char_traitsIcEE5closeEv
                 U _ZNSt13basic_filebufIcSt11char_traitsIcEEC1Ev
                 U _ZNSt13basic_filebufIcSt11char_traitsIcEED1Ev
                 U _ZNSt13runtime_errorC2ERKS_
                 U _ZNSt14basic_ifstreamIcSt11char_traitsIcEED1Ev
                 U _ZNSt14basic_ofstreamIcSt11char_traitsIcEEC1ERKNSt7__cxx1112basic_stringIcS1_SaIcEEESt13_Ios_Openmode
                 U _ZNSt14basic_ofstreamIcSt11char_traitsIcEED1Ev
0000000000000000 W _ZNSt4pairIKNSt7__cxx1112basic_stringIcSt11char_traitsIcESaIcEEES5_ED1Ev
0000000000000000 W _ZNSt4pairIKNSt7__cxx1112basic_stringIcSt11char_traitsIcESaIcEEES5_ED2Ev
                 U _ZNSt6localeC1Ev
                 U _ZNSt6localeD1Ev
0000000000000000 W _ZNSt6vectorINSt7__cxx1112basic_stringIcSt11char_traitsIcESaIcEEESaIS5_EE12emplace_backIJS5_EEEvDpOT_
0000000000000000 W _ZNSt6vectorINSt7__cxx1112basic_stringIcSt11char_traitsIcESaIcEEESaIS5_EE17_M_realloc_insertIJRKS5_EEEvN9__gnu_cxx17__normal_iteratorIPS5_S7_EEDpOT_
0000000000000000 W _ZNSt6vectorINSt7__cxx1112basic_stringIcSt11char_traitsIcESaIcEEESaIS5_EE17_M_realloc_insertIJS5_EEEvN9__gnu_cxx17__normal_iteratorIPS5_S7_EEDpOT_
0000000000000000 W _ZNSt6vectorINSt7__cxx1112basic_stringIcSt11char_traitsIcESaIcEEESaIS5_EED1Ev
0000000000000000 W _ZNSt6vectorINSt7__cxx1112basic_stringIcSt11char_traitsIcESaIcEEESaIS5_EED2Ev
0000000000000000 W _ZNSt6vectorIiSaIiEE17_M_default_appendEm
                 U _ZNSt7__cxx1112basic_stringIcSt11char_traitsIcESaIcEE10_M_replaceEmmPKcm
                 U _ZNSt7__cxx1112basic_stringIcSt11char_traitsIcESaIcEE6appendEPKc
                 U _ZNSt7__cxx1112basic_stringIcSt11char_traitsIcESaIcEE7reserveEm
                 U _ZNSt7__cxx1112basic_stringIcSt11char_traitsIcESaIcEE9_M_appendEPKcm
                 U _ZNSt7__cxx1112basic_stringIcSt11char_traitsIcESaIcEE9_M_assignERKS4_
                 U _ZNSt7__cxx1112basic_stringIcSt11char_traitsIcESaIcEE9_M_createERmm
                 U _ZNSt7__cxx1112basic_stringIcSt11char_traitsIcESaIcEEC1EOS4_
                 U _ZNSt7__cxx1112basic_stringIcSt11char_traitsIcESaIcEEC1ERKS4_
                 U _ZNSt7__cxx1112basic_stringIcSt11char_traitsIcESaIcEED1Ev
                 U _ZNSt7__cxx1115basic_stringbufIcSt11char_traitsIcESaIcEE7_M_syncEPcmm
0000000000000000 W _ZNSt7__cxx1115basic_stringbufIcSt11char_traitsIcESaIcEED0Ev
0000000000000000 W _ZNSt7__cxx1115basic_stringbufIcSt11char_traitsIcESaIcEED1Ev
0000000000000000 W _ZNSt7__cxx1115basic_stringbufIcSt11char_traitsIcESaIcEED2Ev
                 U _ZNSt7__cxx1118basic_stringstreamIcSt11char_traitsIcESaIcEED1Ev
                 U _ZNSt7__cxx1119basic_istringstreamIcSt11char_traitsIcESaIcEED1Ev
0000000000000000 W _ZNSt8_Rb_treeINSt7__cxx1112basic_stringIcSt11char_traitsIcESaIcEEES5_St9_IdentityIS5_ESt4lessIS5_ESaIS5_EE16_M_insert_uniqueIRKS5_EESt4pairISt17_Rb_tree_iteratorIS5_EbEOT_
0000000000000000 W _ZNSt8_Rb_treeINSt7__cxx1112basic_stringIcSt11char_traitsIcESaIcEEES5_St9_IdentityIS5_ESt4lessIS5_ESaIS5_EE4findERKS5_
0000000000000000 W _ZNSt8__detail9_Map_baseINSt7__cxx1112basic_stringIcSt11char_traitsIcESaIcEEESt4pairIKS6_S6_ESaIS9_ENS_10_Select1stESt8equal_toIS6_ESt4hashIS6_ENS_18_Mod_range_hashingENS_20_Default_ranged_hashENS_20_Prime_rehash_policyENS_17_Hashtable_traitsILb1ELb0ELb1EEELb1EEixEOS6_
0000000000000000 W _ZNSt8__detail9_Map_baseINSt7__cxx1112basic_stringIcSt11char_traitsIcESaIcEEESt4pairIKS6_S6_ESaIS9_ENS_10_Select1stESt8equal_toIS6_ESt4hashIS6_ENS_18_Mod_range_hashingENS_20_Default_ranged_hashENS_20_Prime_rehash_policyENS_17_Hashtable_traitsILb1ELb0ELb1EEELb1EEixERS8_
                 U _ZNSt8ios_base4InitC1Ev
                 U _ZNSt8ios_base4InitD1Ev
                 U _ZNSt8ios_base7failureB5cxx11D1Ev
                 U _ZNSt8ios_baseC2Ev
                 U _ZNSt8ios_baseD2Ev
                 U _ZNSt9basic_iosIcSt11char_traitsIcEE4initEPSt15basic_streambufIcS1_E
                 U _ZNSt9basic_iosIcSt11char_traitsIcEE5clearESt12_Ios_Iostate
                 U _ZSt11_Hash_bytesPKvmm
                 U _ZSt16__ostream_insertIcSt11char_traitsIcEERSt13basic_ostreamIT_T0_ES6_PKS3_l
                 U _ZSt16__throw_bad_castv
                 U _ZSt17__throw_bad_allocv
                 U _ZSt18_Rb_tree_decrementPSt18_Rb_tree_node_base
                 U _ZSt18_Rb_tree_incrementPKSt18_Rb_tree_node_base
                 U _ZSt19__throw_logic_errorPKc
                 U _ZSt20__throw_length_errorPKc
                 U _ZSt24__throw_out_of_range_fmtPKcz
                 U _ZSt28__throw_bad_array_new_lengthv
                 U _ZSt29_Rb_tree_insert_and_rebalancebPSt18_Rb_tree_node_baseS0_RS_
                 U _ZSt4cerr
                 U _ZSt4cout
                 U _ZStlsISt11char_traitsIcEERSt13basic_ostreamIcT_ES5_PKc
0000000000000000 W _ZStplIcSt11char_traitsIcESaIcEENSt7__cxx1112basic_stringIT_T0_T1_EEPKS5_RKS8_
0000000000000000 W _ZStplIcSt11char_traitsIcESaIcEENSt7__cxx1112basic_stringIT_T0_T1_EERKS8_PKS5_
                 U _ZStrsIcSt11char_traitsIcESaIcEERSt13basic_istreamIT_T0_ES7_RNSt7__cxx1112basic_stringIS4_S5_T1_EE
0000000000000000 V _ZTINSt7__cxx1112basic_stringIcSt11char_traitsIcESaIcEEE
                 U _ZTINSt8ios_base7failureB5cxx11E
0000000000000000 V _ZTSNSt7__cxx1112basic_stringIcSt11char_traitsIcESaIcEEE
                 U _ZTTNSt7__cxx1118basic_stringstreamIcSt11char_traitsIcESaIcEEE
                 U _ZTTNSt7__cxx1119basic_istringstreamIcSt11char_traitsIcESaIcEEE
                 U _ZTTSt14basic_ifstreamIcSt11char_traitsIcEE
                 U _ZTTSt14basic_ofstreamIcSt11char_traitsIcEE
                 U _ZTVN10__cxxabiv117__class_type_infoE
                 U _ZTVNSt7__cxx1115basic_stringbufIcSt11char_traitsIcESaIcEEE
                 U _ZTVNSt7__cxx1118basic_stringstreamIcSt11char_traitsIcESaIcEEE
                 U _ZTVNSt7__cxx1119basic_istringstreamIcSt11char_traitsIcESaIcEEE
                 U _ZTVNSt8ios_base7failureB5cxx11E
                 U _ZTVSt13basic_filebufIcSt11char_traitsIcEE
                 U _ZTVSt14basic_ifstreamIcSt11char_traitsIcEE
                 U _ZTVSt14basic_ofstreamIcSt11char_traitsIcEE
                 U _ZTVSt15basic_streambufIcSt11char_traitsIcEE
                 U _ZTVSt9basic_iosIcSt11char_traitsIcEE
                 U _ZdlPv
                 U _Znwm
                 U __cxa_allocate_exception
                 U __cxa_atexit
                 U __cxa_begin_catch
                 U __cxa_end_catch
                 U __cxa_free_exception
                 U __cxa_get_exception_ptr
                 U __cxa_rethrow
                 U __cxa_throw
                 U __dso_handle
                 U __gxx_personality_v0
                 U abort
                 U memcmp
                 U memcpy
                 U memmove
                 U memset
                 U strlen
                 U strrchr
                 U verbose_mode

treetesting.cpp.o:
0000000000000000 V DW.ref._ZTINSt8ios_base7failureB5cxx11E
0000000000000000 V DW.ref.__gxx_personality_v0
                 U GOMP_barrier
                 U GOMP_loop_end
                 U GOMP_loop_nonmonotonic_dynamic_next
                 U GOMP_loop_nonmonotonic_dynamic_start
                 U GOMP_parallel
                 U _GLOBAL_OFFSET_TABLE_
                 U _Unwind_Resume
0000000000000000 W _Z10_my_assertPKcS0_S0_i
                 U _Z10fileExistsNSt7__cxx1112basic_stringIcSt11char_traitsIcESaIcEEE
                 U _Z10outWarningPKc
0000000000000000 W _Z10sort_indexIdEvPT_S1_Pi
                 U _Z11init_randomibPPi
0000000000000000 T _Z11printSiteLhPKcP9PhyloTreePdbS0_
0000000000000000 W _Z13aligned_allocIdEPT_m
0000000000000000 W _Z13aligned_allocIiEPT_m
0000000000000000 T _Z13evaluateTreesNSt7__cxx1112basic_stringIcSt11char_traitsIcESaIcEEER6ParamsP6IQTreeRSt6vectorI8TreeInfoSaISA_EERS9_IiSaIiEE
0000000000000000 T _Z13evaluateTreesRSiR6ParamsP6IQTreeRSt6vectorI8TreeInfoSaIS5_EERS4_IiSaIiEE
                 U _Z13finish_randomPi
0000000000000000 T _Z13performAUTestR6ParamsP9PhyloTreePdRSt6vectorI8TreeInfoSaIS5_EE
                 U _Z13random_doublePi
0000000000000000 T _Z14printHMMResultPKcP9PhyloTreei
0000000000000000 W _Z15quicksort_indexIdEvPT_Piii
0000000000000000 T _Z16printPartitionLhPKcP9PhyloTreePdbS0_
                 U _Z16print_stacktraceRSoj
0000000000000000 T _Z17printMarginalProbPKcP9PhyloTree
                 U _Z18convertIntToStringB5cxx11i
0000000000000000 T _Z18countDistinctTreesPKcbP6IQTreeRSt6vectorIiSaIiEEb
0000000000000000 T _Z18countDistinctTreesRSibP6IQTreeRSt6vectorIiSaIiEEb
0000000000000000 T _Z18printSiteStateFreqPKcP9Alignment
0000000000000000 T _Z18printSiteStateFreqPKcP9PhyloTreePd
                 U _Z19gsl_cdf_ugaussian_Pd
                 U _Z19gsl_cdf_ugaussian_Qd
0000000000000000 T _Z19printSiteLhCategoryPKcP9PhyloTree12SiteLoglType
                 U _Z20convertInt64ToStringB5cxx11l
0000000000000000 T _Z20printTreeTestResultsRSt6vectorI8TreeInfoSaIS0_EERS_IiSaIiEES6_NSt7__cxx1112basic_stringIcSt11char_traitsIcESaIcEEE
0000000000000000 T _Z20printTreeTestResultsRSt6vectorI8TreeInfoSaIS0_EERS_IiSaIiEES6_RSoNSt7__cxx1112basic_stringIcSt11char_traitsIcESaIcEEE
                 U _Z21convertDoubleToStringB5cxx11d
0000000000000000 T _Z21doWeightedLeastSquareiPdS_S_S_RdS0_S0_
                 U _Z21gsl_ran_ugaussian_pdfd
0000000000000000 T _Z21printSiteProbCategoryPKcP9PhyloTree12SiteLoglType
                 U _Z22computePValueChiSquaredi
                 U _Z22gsl_cdf_ugaussian_Pinvd
0000000000000000 T _Z23printAncestralSequencesPKcP9PhyloTree16AncestralSeqType
0000000000000000 T _Z4log3d
0000000000000000 T _Z7mlecoefPdS_diS_S_PiS_
0000000000000000 T _Z8cntdist2Pdid
0000000000000000 T _Z8cntdist3Pdid
                 U _Z8outErrorNSt7__cxx1112basic_stringIcSt11char_traitsIcESaIcEEEb
                 U _Z8outErrorPKcNSt7__cxx1112basic_stringIcSt11char_traitsIcESaIcEEEb
                 U _Z8outErrorPKcS0_b
                 U _Z8outErrorPKcb
0000000000000000 W _Z9quicksortIdiEvPT_iiPT0_
0000000000000000 W _ZN10ModelSubst9isMixtureEv
                 U _ZN12IQTreeMixHmm12printResultsEPKci
                 U _ZN12IQTreeMixHmm17printMarginalProbEPKc
0000000000000000 W _ZN12ModelFactory12isReversibleEv
                 U _ZN4Node12findNeighborEPS_
                 U _ZN5MTree12findNodeNameERNSt7__cxx1112basic_stringIcSt11char_traitsIcESaIcEEEP4NodeS8_
                 U _ZN5MTree16getInternalNodesERSt6vectorIP4NodeSaIS2_EES2_S2_
                 U _ZN5MTree8freeNodeEP4NodeS1_
                 U _ZN6Params11getInstanceEv
                 U _ZN9Alignment10getSeqNameB5cxx11Ei
                 U _ZN9Alignment19convertStateBackStrB5cxx11Ej
0000000000000000 W _ZN9Alignment19getSitePatternIndexERSt6vectorIiSaIiEE
                 U _ZN9PhyloTree15convertToRootedEv
                 U _ZN9PhyloTree17convertToUnrootedEv
                 U _ZN9PhyloTree20dotProductDoubleCallEPdS0_i
                 U _ZN9PhyloTree23computeLogLDiffVarianceEPdS0_
                 U _ZN9PhyloTree23computePatternStateFreqEPd
0000000000000000 W _ZNKSt10_HashtableINSt7__cxx1112basic_stringIcSt11char_traitsIcESaIcEEESt4pairIKS5_iESaIS8_ENSt8__detail10_Select1stESt8equal_toIS5_ESt4hashIS5_ENSA_18_Mod_range_hashingENSA_20_Default_ranged_hashENSA_20_Prime_rehash_policyENSA_17_Hashtable_traitsILb1ELb0ELb1EEEE19_M_find_before_nodeEmRS7_m
                 U _ZNKSt5ctypeIcE13_M_widen_initEv
0000000000000000 W _ZNKSt5ctypeIcE8do_widenEc
                 U _ZNKSt8__detail20_Prime_rehash_policy14_M_need_rehashEmmm
                 U _ZNSi5seekgESt4fposI11__mbstate_tE
                 U _ZNSi5ungetEv
                 U _ZNSo3putEc
                 U _ZNSo5flushEv
                 U _ZNSo9_M_insertIdEERSoT_
                 U _ZNSo9_M_insertIlEERSoT_
                 U _ZNSo9_M_insertImEERSoT_
                 U _ZNSolsEi
0000000000000000 W _ZNSt10_HashtableINSt7__cxx1112basic_stringIcSt11char_traitsIcESaIcEEESt4pairIKS5_iESaIS8_ENSt8__detail10_Select1stESt8equal_toIS5_ESt4hashIS5_ENSA_18_Mod_range_hashingENSA_20_Default_ranged_hashENSA_20_Prime_rehash_policyENSA_17_Hashtable_traitsILb1ELb0ELb1EEEE9_M_rehashEmRKm
0000000000000000 W _ZNSt10_HashtableINSt7__cxx1112basic_stringIcSt11char_traitsIcESaIcEEESt4pairIKS5_iESaIS8_ENSt8__detail10_Select1stESt8equal_toIS5_ESt4hashIS5_ENSA_18_Mod_range_hashingENSA_20_Default_ranged_hashENSA_20_Prime_rehash_policyENSA_17_Hashtable_traitsILb1ELb0ELb1EEEED1Ev
0000000000000000 W _ZNSt10_HashtableINSt7__cxx1112basic_stringIcSt11char_traitsIcESaIcEEESt4pairIKS5_iESaIS8_ENSt8__detail10_Select1stESt8equal_toIS5_ESt4hashIS5_ENSA_18_Mod_range_hashingENSA_20_Default_ranged_hashENSA_20_Prime_rehash_policyENSA_17_Hashtable_traitsILb1ELb0ELb1EEEED2Ev
                 U _ZNSt12__basic_fileIcED1Ev
                 U _ZNSt13basic_filebufIcSt11char_traitsIcEE4openEPKcSt13_Ios_Openmode
                 U _ZNSt13basic_filebufIcSt11char_traitsIcEE5closeEv
                 U _ZNSt13basic_filebufIcSt11char_traitsIcEEC1Ev
                 U _ZNSt13basic_filebufIcSt11char_traitsIcEED1Ev
                 U _ZNSt13runtime_errorC2ERKS_
                 U _ZNSt14basic_ifstreamIcSt11char_traitsIcEED1Ev
                 U _ZNSt14basic_ofstreamIcSt11char_traitsIcEED1Ev
                 U _ZNSt6localeC1Ev
                 U _ZNSt6localeD1Ev
0000000000000000 W _ZNSt6vectorI8TreeInfoSaIS0_EE17_M_default_appendEm
0000000000000000 W _ZNSt6vectorIiSaIiEE12emplace_backIJiEEEvDpOT_
0000000000000000 W _ZNSt6vectorIiSaIiEE17_M_default_appendEm
                 U _ZNSt7__cxx1112basic_stringIcSt11char_traitsIcESaIcEE10_M_replaceEmmPKcm
                 U _ZNSt7__cxx1112basic_stringIcSt11char_traitsIcESaIcEE7reserveEm
                 U _ZNSt7__cxx1112basic_stringIcSt11char_traitsIcESaIcEE9_M_appendEPKcm
                 U _ZNSt7__cxx1112basic_stringIcSt11char_traitsIcESaIcEE9_M_assignERKS4_
                 U _ZNSt7__cxx1112basic_stringIcSt11char_traitsIcESaIcEE9_M_createERmm
                 U _ZNSt7__cxx1112basic_stringIcSt11char_traitsIcESaIcEEC1ERKS4_
                 U _ZNSt7__cxx1119basic_ostringstreamIcSt11char_traitsIcESaIcEED1Ev
0000000000000000 W _ZNSt8__detail9_Map_baseINSt7__cxx1112basic_stringIcSt11char_traitsIcESaIcEEESt4pairIKS6_iESaIS9_ENS_10_Select1stESt8equal_toIS6_ESt4hashIS6_ENS_18_Mod_range_hashingENS_20_Default_ranged_hashENS_20_Prime_rehash_policyENS_17_Hashtable_traitsILb1ELb0ELb1EEELb1EEixEOS6_
                 U _ZNSt8ios_base4InitC1Ev
                 U _ZNSt8ios_base4InitD1Ev
                 U _ZNSt8ios_base7failureB5cxx11D1Ev
                 U _ZNSt8ios_baseC2Ev
                 U _ZNSt8ios_baseD2Ev
                 U _ZNSt9basic_iosIcSt11char_traitsIcEE4initEPSt15basic_streambufIcS1_E
                 U _ZNSt9basic_iosIcSt11char_traitsIcEE5clearESt12_Ios_Iostate
                 U _ZSt11_Hash_bytesPKvmm
                 U _ZSt16__ostream_insertIcSt11char_traitsIcEERSt13basic_ostreamIT_T0_ES6_PKS3_l
                 U _ZSt16__throw_bad_castv
                 U _ZSt17__throw_bad_allocv
                 U _ZSt19__throw_logic_errorPKc
                 U _ZSt20__throw_length_errorPKc
                 U _ZSt24__throw_out_of_range_fmtPKcz
                 U _ZSt28__throw_bad_array_new_lengthv
                 U _ZSt4cerr
                 U _ZSt4cout
                 U _ZSt4endlIcSt11char_traitsIcEERSt13basic_ostreamIT_T0_ES6_
                 U _ZStlsISt11char_traitsIcEERSt13basic_ostreamIcT_ES5_PKc
                 U _ZStrsIcSt11char_traitsIcEERSt13basic_istreamIT_T0_ES6_RS3_
                 U _ZTI12IQTreeMixHmm
                 U _ZTI9PhyloTree
                 U _ZTINSt8ios_base7failureB5cxx11E
                 U _ZTTNSt7__cxx1119basic_ostringstreamIcSt11char_traitsIcESaIcEEE
                 U _ZTTSt14basic_ifstreamIcSt11char_traitsIcEE
                 U _ZTTSt14basic_ofstreamIcSt11char_traitsIcEE
                 U _ZTVNSt7__cxx1115basic_stringbufIcSt11char_traitsIcESaIcEEE
                 U _ZTVNSt7__cxx1119basic_ostringstreamIcSt11char_traitsIcESaIcEEE
                 U _ZTVNSt8ios_base7failureB5cxx11E
                 U _ZTVSt13basic_filebufIcSt11char_traitsIcEE
                 U _ZTVSt14basic_ifstreamIcSt11char_traitsIcEE
                 U _ZTVSt14basic_ofstreamIcSt11char_traitsIcEE
                 U _ZTVSt15basic_streambufIcSt11char_traitsIcEE
                 U _ZTVSt9basic_iosIcSt11char_traitsIcEE
                 U _ZdaPv
                 U _ZdlPv
                 U _Znam
                 U _Znwm
                 U __cxa_atexit
                 U __cxa_begin_catch
                 U __cxa_end_catch
                 U __cxa_get_exception_ptr
                 U __cxa_rethrow
                 U __cxa_throw_bad_array_new_length
                 U __dso_handle
                 U __dynamic_cast
                 U __gxx_personality_v0
                 U abort
                 U exp
                 U free
                 U isalpha
                 U log
                 U memcmp
                 U memcpy
                 U memmove
                 U memset
0000000000000000 D mleeps
0000000000000000 D mleloopmax
                 U omp_get_num_threads
                 U omp_get_thread_num
                 U omp_get_wtime
                 U posix_memalign
                 U sqrt
                 U strlen
                 U strrchr
                 U sysconf
                 U verbose_mode

modelbin.cpp.o:
0000000000000000 V DW.ref.__gxx_personality_v0
                 U _GLOBAL_OFFSET_TABLE_
                 U _Unwind_Resume
0000000000000000 W _Z10_my_assertPKcS0_S0_i
                 U _Z14freqTypeStringB5cxx1113StateFreqTypeN3PML7SeqTypeEb
                 U _ZN10Checkpoint11startStructENSt7__cxx1112basic_stringIcSt11char_traitsIcESaIcEEE
0000000000000000 W _ZN10ModelSubst11isLieMarkovEv
                 U _ZN10ModelSubst12computeTransEdiii
                 U _ZN10ModelSubst12computeTransEdiiiRdS0_
0000000000000000 W _ZN10ModelSubst12getNMixturesEv
0000000000000000 W _ZN10ModelSubst13fixParametersEb
0000000000000000 W _ZN10ModelSubst13getDNAErrProbEi
0000000000000000 W _ZN10ModelSubst13getPtnModelIDEi
0000000000000000 W _ZN10ModelSubst14isMixtureSameQEv
                 U _ZN10ModelSubst14newTransMatrixEv
0000000000000000 W _ZN10ModelSubst15containDNAerrorEv
0000000000000000 W _ZN10ModelSubst15getMixtureClassEi
0000000000000000 W _ZN10ModelSubst15setMixtureClassEiPS_
0000000000000000 W _ZN10ModelSubst16getMixtureWeightEi
0000000000000000 W _ZN10ModelSubst16getMutationModelEv
0000000000000000 W _ZN10ModelSubst16setMixtureWeightEid
0000000000000000 W _ZN10ModelSubst16setOptimizeStepsEi
0000000000000000 W _ZN10ModelSubst18getTransMatrixSizeEv
0000000000000000 W _ZN10ModelSubst19isPolymorphismAwareEv
0000000000000000 W _ZN10ModelSubst19isSiteSpecificModelEv
0000000000000000 W _ZN10ModelSubst19setFixMixtureWeightEb
                 U _ZN10ModelSubst20computeTipLikelihoodEjPd
0000000000000000 W _ZN10ModelSubst6reportERSo
0000000000000000 W _ZN10ModelSubst7isFusedEv
0000000000000000 W _ZN10ModelSubst9isMixtureEv
0000000000000000 W _ZN11ModelMarkov10getNParamsEv
                 U _ZN11ModelMarkov10getQMatrixEPdi
0000000000000000 W _ZN11ModelMarkov10setNParamsEi
                 U _ZN11ModelMarkov10targetFunkEPd
0000000000000000 W _ZN11ModelMarkov11getFreqTypeEv
                 U _ZN11ModelMarkov11getNDimFreqEv
                 U _ZN11ModelMarkov12computeTransEdii
                 U _ZN11ModelMarkov12computeTransEdiiRdS0_
                 U _ZN11ModelMarkov12getVariablesEPd
0000000000000000 W _ZN11ModelMarkov12isReversibleEv
                 U _ZN11ModelMarkov12setVariablesEPd
                 U _ZN11ModelMarkov13getRateMatrixEPd
                 U _ZN11ModelMarkov13readStateFreqENSt7__cxx1112basic_stringIcSt11char_traitsIcESaIcEEE
                 U _ZN11ModelMarkov13readStateFreqERSi
                 U _ZN11ModelMarkov13setRateMatrixEPd
                 U _ZN11ModelMarkov13setReversibleEbb
                 U _ZN11ModelMarkov14readParametersEPKcb
                 U _ZN11ModelMarkov14saveCheckpointEv
0000000000000000 W _ZN11ModelMarkov15writeParametersERSo
                 U _ZN11ModelMarkov16computeTransDervEdPdS0_S0_i
0000000000000000 W _ZN11ModelMarkov17getMemoryRequiredEv
                 U _ZN11ModelMarkov17getNumRateEntriesEv
                 U _ZN11ModelMarkov17getStateFrequencyEPdi
                 U _ZN11ModelMarkov17restoreCheckpointEv
                 U _ZN11ModelMarkov17setFullRateMatrixEPdS0_
                 U _ZN11ModelMarkov17setStateFrequencyEPd
                 U _ZN11ModelMarkov18computeTransMatrixEdPdii
                 U _ZN11ModelMarkov18optimizeParametersEd
                 U _ZN11ModelMarkov19adaptStateFrequencyEPd
                 U _ZN11ModelMarkov19decomposeRateMatrixEv
                 U _ZN11ModelMarkov20get_num_states_totalEv
                 U _ZN11ModelMarkov20isUnstableParametersEv
                 U _ZN11ModelMarkov21update_eigen_pointersEPdS0_S0_S0_
                 U _ZN11ModelMarkov24computeTransMatrixNonrevEdPdi
                 U _ZN11ModelMarkov25decomposeRateMatrixNonrevEv
                 U _ZN11ModelMarkov4initE13StateFreqType
                 U _ZN11ModelMarkov7freeMemEv
                 U _ZN11ModelMarkov7getNDimEv
                 U _ZN11ModelMarkov7getNameB5cxx11Ev
                 U _ZN11ModelMarkov7setTreeEP9PhyloTree
                 U _ZN11ModelMarkov8setRatesEv
                 U _ZN11ModelMarkov9readRatesENSt7__cxx1112basic_stringIcSt11char_traitsIcESaIcEEE
                 U _ZN11ModelMarkov9readRatesERSi
                 U _ZN11ModelMarkov9setBoundsEPdS0_Pb
                 U _ZN11ModelMarkov9writeInfoERSo
                 U _ZN11ModelMarkovC2EP9PhyloTreebb
                 U _ZN11ModelMarkovD2Ev
                 U _ZN12Optimization13optimGradientEiPdS0_
                 U _ZN12Optimization14derivativeFunkEPdS0_
0000000000000000 W _ZN12Optimization15computeFuncDervEdRdS0_
0000000000000000 W _ZN12Optimization15computeFunctionEd
                 U _ZN12Optimization17restartParametersEPdiS0_S0_Pbi
0000000000000000 W _ZN12Optimization20computeFuncDervMultiEPdS0_S0_
                 U _ZN12Optimization9optimFuncEiPd
                 U _ZN17CheckpointFactory13endCheckpointEv
                 U _ZN17CheckpointFactory13setCheckpointEP10Checkpoint
                 U _ZN18EigenDecomposition17computeRateMatrixEPPdS0_i
0000000000000000 T _ZN8ModelBIN13getNameParamsB5cxx11Eb
0000000000000000 T _ZN8ModelBIN15startCheckpointEv
0000000000000000 T _ZN8ModelBIN4initEPKcNSt7__cxx1112basic_stringIcSt11char_traitsIcESaIcEEE13StateFreqTypeS7_
0000000000000000 T _ZN8ModelBINC1EPKcNSt7__cxx1112basic_stringIcSt11char_traitsIcESaIcEEE13StateFreqTypeS7_P9PhyloTree
0000000000000000 T _ZN8ModelBINC2EPKcNSt7__cxx1112basic_stringIcSt11char_traitsIcESaIcEEE13StateFreqTypeS7_P9PhyloTree
0000000000000000 W _ZN8ModelBIND0Ev
0000000000000000 W _ZN8ModelBIND1Ev
0000000000000000 W _ZN8ModelBIND2Ev
                 U _ZNK11ModelMarkov14getEigenvaluesEv
                 U _ZNK11ModelMarkov15getEigenvectorsEv
                 U _ZNK11ModelMarkov22getInverseEigenvectorsEv
                 U _ZNK11ModelMarkov32getInverseEigenvectorsTransposedEv
                 U _ZNKSt5ctypeIcE13_M_widen_initEv
0000000000000000 W _ZNKSt5ctypeIcE8do_widenEc
                 U _ZNKSt7__cxx1112basic_stringIcSt11char_traitsIcESaIcEE7compareEPKc
                 U _ZNSo3putEc
                 U _ZNSo5flushEv
                 U _ZNSo9_M_insertIdEERSoT_
                 U _ZNSolsEi
                 U _ZNSt6localeC1Ev
                 U _ZNSt6localeD1Ev
                 U _ZNSt7__cxx1112basic_stringIcSt11char_traitsIcESaIcEE10_M_replaceEmmPKcm
                 U _ZNSt7__cxx1112basic_stringIcSt11char_traitsIcESaIcEE9_M_assignERKS4_
                 U _ZNSt7__cxx1112basic_stringIcSt11char_traitsIcESaIcEE9_M_createERmm
                 U _ZNSt7__cxx1119basic_ostringstreamIcSt11char_traitsIcESaIcEED1Ev
                 U _ZNSt8ios_base4InitC1Ev
                 U _ZNSt8ios_base4InitD1Ev
                 U _ZNSt8ios_baseC2Ev
                 U _ZNSt8ios_baseD2Ev
                 U _ZNSt9basic_iosIcSt11char_traitsIcEE4initEPSt15basic_streambufIcS1_E
                 U _ZSt16__ostream_insertIcSt11char_traitsIcEERSt13basic_ostreamIT_T0_ES6_PKS3_l
                 U _ZSt16__throw_bad_castv
                 U _ZSt4cerr
                 U _ZStlsISt11char_traitsIcEERSt13basic_ostreamIcT_ES5_PKc
                 U _ZTI11ModelMarkov
0000000000000000 V _ZTI8ModelBIN
0000000000000000 V _ZTS8ModelBIN
                 U _ZTTNSt7__cxx1119basic_ostringstreamIcSt11char_traitsIcESaIcEEE
0000000000000000 V _ZTV8ModelBIN
                 U _ZTVN10__cxxabiv120__si_class_type_infoE
                 U _ZTVNSt7__cxx1115basic_stringbufIcSt11char_traitsIcESaIcEEE
                 U _ZTVNSt7__cxx1119basic_ostringstreamIcSt11char_traitsIcESaIcEEE
                 U _ZTVSt15basic_streambufIcSt11char_traitsIcEE
                 U _ZTVSt9basic_iosIcSt11char_traitsIcEE
                 U _ZThn8_N11ModelMarkov14saveCheckpointEv
                 U _ZThn8_N11ModelMarkov17restoreCheckpointEv
0000000000000000 T _ZThn8_N8ModelBIN15startCheckpointEv
0000000000000040 W _ZThn8_N8ModelBIND0Ev
0000000000000040 W _ZThn8_N8ModelBIND1Ev
                 U _ZdlPv
                 U __cxa_atexit
                 U __dso_handle
                 U __gxx_personality_v0
                 U abort
                 U memcpy
                 U strlen
                 U strrchr

modelcodon.cpp.o:
0000000000000000 V DW.ref._ZTIPKc
0000000000000000 V DW.ref.__gxx_personality_v0
                 U _GLOBAL_OFFSET_TABLE_
                 U _Unwind_Resume
0000000000000000 W _Z10_my_assertPKcS0_S0_i
                 U _Z10outWarningNSt7__cxx1112basic_stringIcSt11char_traitsIcESaIcEEE
0000000000000000 B _Z13model_ECMrestB5cxx11
0000000000000000 B _Z14model_ECMrest1B5cxx11
0000000000000000 B _Z15model_ECMunrestB5cxx11
0000000000000000 B _Z16model_ECMunrest1B5cxx11
                 U _Z18convertIntToStringB5cxx11i
0000000000000000 B _Z21model_ECM_Schneider05B5cxx11
                 U _Z32convert_double_with_distributionPKcb
                 U _Z8outErrorNSt7__cxx1112basic_stringIcSt11char_traitsIcESaIcEEEb
                 U _Z8outErrorPKcNSt7__cxx1112basic_stringIcSt11char_traitsIcESaIcEEEb
                 U _Z8outErrorPKcS0_b
                 U _Z8outErrorPKcb
                 U _Z9memcmpcpyPvPKvm
                 U _ZN10Checkpoint11startStructENSt7__cxx1112basic_stringIcSt11char_traitsIcESaIcEEE
0000000000000000 W _ZN10Checkpoint3putIdEEvNSt7__cxx1112basic_stringIcSt11char_traitsIcESaIcEEET_
0000000000000000 T _ZN10ModelCodon12getVariablesEPd
0000000000000000 T _ZN10ModelCodon12setVariablesEPd
0000000000000000 W _ZN10ModelCodon13getNameParamsB5cxx11Eb
0000000000000000 T _ZN10ModelCodon14readCodonModelERNSt7__cxx1112basic_stringIcSt11char_traitsIcESaIcEEEb
0000000000000000 T _ZN10ModelCodon14readCodonModelERSib
0000000000000000 T _ZN10ModelCodon14saveCheckpointEv
0000000000000000 T _ZN10ModelCodon15startCheckpointEv
0000000000000000 T _ZN10ModelCodon17combineRateNTFreqEv
0000000000000000 W _ZN10ModelCodon17getNumRateEntriesEv
0000000000000000 T _ZN10ModelCodon17restoreCheckpointEv
0000000000000000 T _ZN10ModelCodon18optimizeParametersEd
0000000000000000 T _ZN10ModelCodon18readCodonModelFileEPKcb
0000000000000000 T _ZN10ModelCodon19decomposeRateMatrixEv
0000000000000000 T _ZN10ModelCodon21computeEmpiricalOmegaEv
0000000000000000 T _ZN10ModelCodon21computeRateAttributesEv
0000000000000000 T _ZN10ModelCodon22computeCodonRateMatrixEv
0000000000000000 T _ZN10ModelCodon29computeCodonRateMatrix_1KAPPAEv
0000000000000000 T _ZN10ModelCodon29computeCodonRateMatrix_2KAPPAEv
0000000000000000 T _ZN10ModelCodon31computeCodonRateMatrix_1KAPPATSEv
0000000000000000 T _ZN10ModelCodon31computeCodonRateMatrix_1KAPPATVEv
0000000000000000 T _ZN10ModelCodon4initEPKcNSt7__cxx1112basic_stringIcSt11char_traitsIcESaIcEEE13StateFreqTypeS7_
0000000000000000 T _ZN10ModelCodon8initGY94Eb15CodonKappaStyle
0000000000000000 T _ZN10ModelCodon8initMG94Eb13StateFreqType15CodonKappaStyleNSt7__cxx1112basic_stringIcSt11char_traitsIcESaIcEEE
0000000000000000 T _ZN10ModelCodon9initCodonEPKc13StateFreqTypebNSt7__cxx1112basic_stringIcSt11char_traitsIcESaIcEEE
0000000000000000 T _ZN10ModelCodon9setBoundsEPdS0_Pb
0000000000000000 T _ZN10ModelCodon9writeInfoERSo
0000000000000000 T _ZN10ModelCodonC1EPKcNSt7__cxx1112basic_stringIcSt11char_traitsIcESaIcEEE13StateFreqTypeS7_P9PhyloTree
0000000000000000 T _ZN10ModelCodonC2EPKcNSt7__cxx1112basic_stringIcSt11char_traitsIcESaIcEEE13StateFreqTypeS7_P9PhyloTree
0000000000000000 T _ZN10ModelCodonD0Ev
0000000000000000 T _ZN10ModelCodonD1Ev
0000000000000000 T _ZN10ModelCodonD2Ev
0000000000000000 W _ZN10ModelSubst11isLieMarkovEv
                 U _ZN10ModelSubst12computeTransEdiii
                 U _ZN10ModelSubst12computeTransEdiiiRdS0_
0000000000000000 W _ZN10ModelSubst12getNMixturesEv
0000000000000000 W _ZN10ModelSubst13fixParametersEb
0000000000000000 W _ZN10ModelSubst13getDNAErrProbEi
0000000000000000 W _ZN10ModelSubst13getPtnModelIDEi
0000000000000000 W _ZN10ModelSubst14isMixtureSameQEv
                 U _ZN10ModelSubst14newTransMatrixEv
0000000000000000 W _ZN10ModelSubst15containDNAerrorEv
0000000000000000 W _ZN10ModelSubst15getMixtureClassEi
0000000000000000 W _ZN10ModelSubst15setMixtureClassEiPS_
0000000000000000 W _ZN10ModelSubst16getMixtureWeightEi
0000000000000000 W _ZN10ModelSubst16getMutationModelEv
0000000000000000 W _ZN10ModelSubst16setMixtureWeightEid
0000000000000000 W _ZN10ModelSubst16setOptimizeStepsEi
0000000000000000 W _ZN10ModelSubst18getTransMatrixSizeEv
0000000000000000 W _ZN10ModelSubst19isPolymorphismAwareEv
0000000000000000 W _ZN10ModelSubst19isSiteSpecificModelEv
0000000000000000 W _ZN10ModelSubst19setFixMixtureWeightEb
                 U _ZN10ModelSubst20computeTipLikelihoodEjPd
0000000000000000 W _ZN10ModelSubst6reportERSo
0000000000000000 W _ZN10ModelSubst7isFusedEv
0000000000000000 W _ZN10ModelSubst9isMixtureEv
0000000000000000 W _ZN11ModelMarkov10getNParamsEv
                 U _ZN11ModelMarkov10getQMatrixEPdi
0000000000000000 W _ZN11ModelMarkov10setNParamsEi
                 U _ZN11ModelMarkov10targetFunkEPd
0000000000000000 W _ZN11ModelMarkov11getFreqTypeEv
                 U _ZN11ModelMarkov11getNDimFreqEv
                 U _ZN11ModelMarkov12computeTransEdii
                 U _ZN11ModelMarkov12computeTransEdiiRdS0_
0000000000000000 W _ZN11ModelMarkov12isReversibleEv
                 U _ZN11ModelMarkov13getRateMatrixEPd
                 U _ZN11ModelMarkov13readStateFreqENSt7__cxx1112basic_stringIcSt11char_traitsIcESaIcEEE
                 U _ZN11ModelMarkov13readStateFreqERSi
                 U _ZN11ModelMarkov13setRateMatrixEPd
                 U _ZN11ModelMarkov13setReversibleEbb
                 U _ZN11ModelMarkov14saveCheckpointEv
                 U _ZN11ModelMarkov14scaleStateFreqEb
0000000000000000 W _ZN11ModelMarkov15writeParametersERSo
                 U _ZN11ModelMarkov16computeTransDervEdPdS0_S0_i
0000000000000000 W _ZN11ModelMarkov17getMemoryRequiredEv
                 U _ZN11ModelMarkov17getStateFrequencyEPdi
                 U _ZN11ModelMarkov17restoreCheckpointEv
                 U _ZN11ModelMarkov17setFullRateMatrixEPdS0_
                 U _ZN11ModelMarkov17setStateFrequencyEPd
                 U _ZN11ModelMarkov18computeTransMatrixEdPdii
                 U _ZN11ModelMarkov19adaptStateFrequencyEPd
                 U _ZN11ModelMarkov19decomposeRateMatrixEv
                 U _ZN11ModelMarkov20get_num_states_totalEv
                 U _ZN11ModelMarkov20isUnstableParametersEv
                 U _ZN11ModelMarkov21update_eigen_pointersEPdS0_S0_S0_
                 U _ZN11ModelMarkov24computeTransMatrixNonrevEdPdi
                 U _ZN11ModelMarkov25decomposeRateMatrixNonrevEv
                 U _ZN11ModelMarkov4initE13StateFreqType
                 U _ZN11ModelMarkov7freeMemEv
                 U _ZN11ModelMarkov7getNDimEv
                 U _ZN11ModelMarkov7getNameB5cxx11Ev
                 U _ZN11ModelMarkov7setTreeEP9PhyloTree
                 U _ZN11ModelMarkov8setRatesEv
                 U _ZN11ModelMarkov9readRatesENSt7__cxx1112basic_stringIcSt11char_traitsIcESaIcEEE
                 U _ZN11ModelMarkov9readRatesERSi
                 U _ZN11ModelMarkovC2EP9PhyloTreebb
                 U _ZN11ModelMarkovD2Ev
                 U _ZN12Optimization13optimGradientEiPdS0_
                 U _ZN12Optimization14derivativeFunkEPdS0_
0000000000000000 W _ZN12Optimization15computeFuncDervEdRdS0_
0000000000000000 W _ZN12Optimization15computeFunctionEd
                 U _ZN12Optimization17restartParametersEPdiS0_S0_Pbi
                 U _ZN12Optimization18minimizeMultiDimenEPdiS0_S0_PbdS0_
0000000000000000 W _ZN12Optimization20computeFuncDervMultiEPdS0_S0_
                 U _ZN12Optimization8L_BFGS_BEiPdS0_S0_di
                 U _ZN12Optimization9optimFuncEiPd
                 U _ZN17CheckpointFactory13endCheckpointEv
                 U _ZN17CheckpointFactory13setCheckpointEP10Checkpoint
                 U _ZN18EigenDecomposition17computeRateMatrixEPPdS0_i
                 U _ZN6Params11getInstanceEv
                 U _ZN9Alignment11isStopCodonEi
                 U _ZN9Alignment16computeCodonFreqE13StateFreqTypePdS1_NSt7__cxx1112basic_stringIcSt11char_traitsIcESaIcEEE
                 U _ZN9Alignment19getNumNonstopCodonsEv
                 U _ZN9Alignment21isStandardGeneticCodeEv
0000000000000000 W _ZN9CkpStreamD0Ev
0000000000000000 W _ZN9CkpStreamD1Ev
                 U _ZNK11ModelMarkov14getEigenvaluesEv
                 U _ZNK11ModelMarkov15getEigenvectorsEv
                 U _ZNK11ModelMarkov22getInverseEigenvectorsEv
                 U _ZNK11ModelMarkov32getInverseEigenvectorsTransposedEv
                 U _ZNKSt5ctypeIcE13_M_widen_initEv
0000000000000000 W _ZNKSt5ctypeIcE8do_widenEc
                 U _ZNKSt7__cxx1112basic_stringIcSt11char_traitsIcESaIcEE4findEPKcmm
                 U _ZNKSt7__cxx1112basic_stringIcSt11char_traitsIcESaIcEE4findEcm
                 U _ZNKSt7__cxx1112basic_stringIcSt11char_traitsIcESaIcEE7compareEPKc
                 U _ZNSdD2Ev
                 U _ZNSi10_M_extractIdEERSiRT_
                 U _ZNSo3putEc
                 U _ZNSo5flushEv
                 U _ZNSo9_M_insertIdEERSoT_
                 U _ZNSolsEi
                 U _ZNSt12__basic_fileIcED1Ev
                 U _ZNSt13basic_filebufIcSt11char_traitsIcEE4openEPKcSt13_Ios_Openmode
                 U _ZNSt13basic_filebufIcSt11char_traitsIcEE5closeEv
                 U _ZNSt13basic_filebufIcSt11char_traitsIcEEC1Ev
                 U _ZNSt13basic_filebufIcSt11char_traitsIcEED1Ev
                 U _ZNSt14basic_ifstreamIcSt11char_traitsIcEED1Ev
                 U _ZNSt6localeC1Ev
                 U _ZNSt6localeD1Ev
                 U _ZNSt7__cxx1112basic_stringIcSt11char_traitsIcESaIcEE10_M_replaceEmmPKcm
                 U _ZNSt7__cxx1112basic_stringIcSt11char_traitsIcESaIcEE6appendEPKc
                 U _ZNSt7__cxx1112basic_stringIcSt11char_traitsIcESaIcEE7reserveEm
                 U _ZNSt7__cxx1112basic_stringIcSt11char_traitsIcESaIcEE8_M_eraseEmm
                 U _ZNSt7__cxx1112basic_stringIcSt11char_traitsIcESaIcEE9_M_appendEPKcm
                 U _ZNSt7__cxx1112basic_stringIcSt11char_traitsIcESaIcEE9_M_assignERKS4_
                 U _ZNSt7__cxx1112basic_stringIcSt11char_traitsIcESaIcEE9_M_createERmm
                 U _ZNSt7__cxx1112basic_stringIcSt11char_traitsIcESaIcEEC1EOS4_
                 U _ZNSt7__cxx1112basic_stringIcSt11char_traitsIcESaIcEED1Ev
                 U _ZNSt7__cxx1115basic_stringbufIcSt11char_traitsIcESaIcEE7_M_syncEPcmm
0000000000000000 W _ZNSt7__cxx1115basic_stringbufIcSt11char_traitsIcESaIcEED0Ev
0000000000000000 W _ZNSt7__cxx1115basic_stringbufIcSt11char_traitsIcESaIcEED1Ev
0000000000000000 W _ZNSt7__cxx1115basic_stringbufIcSt11char_traitsIcESaIcEED2Ev
                 U _ZNSt7__cxx1119basic_istringstreamIcSt11char_traitsIcESaIcEED1Ev
0000000000000000 W _ZNSt8_Rb_treeINSt7__cxx1112basic_stringIcSt11char_traitsIcESaIcEEESt4pairIKS5_S5_ESt10_Select1stIS8_ESt4lessIS5_ESaIS8_EE24_M_get_insert_unique_posERS7_
0000000000000000 W _ZNSt8_Rb_treeINSt7__cxx1112basic_stringIcSt11char_traitsIcESaIcEEESt4pairIKS5_S5_ESt10_Select1stIS8_ESt4lessIS5_ESaIS8_EE29_M_get_insert_hint_unique_posESt23_Rb_tree_const_iteratorIS8_ERS7_
                 U _ZNSt8ios_base4InitC1Ev
                 U _ZNSt8ios_base4InitD1Ev
                 U _ZNSt8ios_baseC2Ev
                 U _ZNSt8ios_baseD2Ev
                 U _ZNSt9basic_iosIcSt11char_traitsIcEE4initEPSt15basic_streambufIcS1_E
                 U _ZNSt9basic_iosIcSt11char_traitsIcEE5clearESt12_Ios_Iostate
                 U _ZSt16__ostream_insertIcSt11char_traitsIcEERSt13basic_ostreamIT_T0_ES6_PKS3_l
                 U _ZSt16__throw_bad_castv
                 U _ZSt18_Rb_tree_decrementPSt18_Rb_tree_node_base
                 U _ZSt18_Rb_tree_incrementPSt18_Rb_tree_node_base
                 U _ZSt19__throw_logic_errorPKc
                 U _ZSt20__throw_length_errorPKc
                 U _ZSt24__throw_out_of_range_fmtPKcz
                 U _ZSt29_Rb_tree_insert_and_rebalancebPSt18_Rb_tree_node_baseS0_RS_
                 U _ZSt4cerr
                 U _ZSt4cout
                 U _ZStlsISt11char_traitsIcEERSt13basic_ostreamIcT_ES5_PKc
0000000000000000 W _ZStplIcSt11char_traitsIcESaIcEENSt7__cxx1112basic_stringIT_T0_T1_EEPKS5_RKS8_
0000000000000000 W _ZStplIcSt11char_traitsIcESaIcEENSt7__cxx1112basic_stringIT_T0_T1_EERKS8_PKS5_
0000000000000000 W _ZStplIcSt11char_traitsIcESaIcEENSt7__cxx1112basic_stringIT_T0_T1_EERKS8_SA_
                 U _ZStrsIcSt11char_traitsIcESaIcEERSt13basic_istreamIT_T0_ES7_RNSt7__cxx1112basic_stringIS4_S5_T1_EE
0000000000000000 V _ZTC9CkpStream0_NSt7__cxx1118basic_stringstreamIcSt11char_traitsIcESaIcEEE
0000000000000000 V _ZTC9CkpStream0_Sd
0000000000000000 V _ZTC9CkpStream0_Si
0000000000000000 V _ZTC9CkpStream16_So
0000000000000000 V _ZTI10ModelCodon
                 U _ZTI11ModelMarkov
0000000000000000 V _ZTI9CkpStream
                 U _ZTINSt7__cxx1118basic_stringstreamIcSt11char_traitsIcESaIcEEE
                 U _ZTIPKc
                 U _ZTISd
                 U _ZTISi
                 U _ZTISo
0000000000000000 V _ZTS10ModelCodon
0000000000000000 V _ZTS9CkpStream
0000000000000000 V _ZTT9CkpStream
                 U _ZTTNSt7__cxx1119basic_istringstreamIcSt11char_traitsIcESaIcEEE
                 U _ZTTSt14basic_ifstreamIcSt11char_traitsIcEE
0000000000000000 V _ZTV10ModelCodon
0000000000000000 V _ZTV9CkpStream
                 U _ZTVN10__cxxabiv120__si_class_type_infoE
                 U _ZTVNSt7__cxx1115basic_stringbufIcSt11char_traitsIcESaIcEEE
                 U _ZTVNSt7__cxx1119basic_istringstreamIcSt11char_traitsIcESaIcEEE
                 U _ZTVSt13basic_filebufIcSt11char_traitsIcEE
                 U _ZTVSt14basic_ifstreamIcSt11char_traitsIcEE
                 U _ZTVSt15basic_streambufIcSt11char_traitsIcEE
                 U _ZTVSt9basic_iosIcSt11char_traitsIcEE
00000000000000b0 W _ZThn16_N9CkpStreamD0Ev
00000000000000b0 W _ZThn16_N9CkpStreamD1Ev
0000000000000000 T _ZThn8_N10ModelCodon14saveCheckpointEv
0000000000000000 T _ZThn8_N10ModelCodon15startCheckpointEv
0000000000000000 T _ZThn8_N10ModelCodon17restoreCheckpointEv
0000000000000000 T _ZThn8_N10ModelCodonD0Ev
0000000000000000 T _ZThn8_N10ModelCodonD1Ev
0000000000000160 W _ZTv0_n24_N9CkpStreamD0Ev
0000000000000150 W _ZTv0_n24_N9CkpStreamD1Ev
                 U _ZdaPv
                 U _ZdlPv
                 U _Znam
                 U _Znwm
                 U __cxa_allocate_exception
                 U __cxa_atexit
                 U __cxa_begin_catch
                 U __cxa_end_catch
                 U __cxa_rethrow
                 U __cxa_throw
                 U __cxa_throw_bad_array_new_length
                 U __dso_handle
                 U __gxx_personality_v0
                 U abort
                 U memcmp
                 U memcpy
                 U memset
                 U strchr
                 U strlen
                 U strrchr
                 U toupper
                 U verbose_mode

modeldna.cpp.o:
0000000000000000 V DW.ref._ZTINSt7__cxx1112basic_stringIcSt11char_traitsIcESaIcEEE
0000000000000000 V DW.ref._ZTIPKc
0000000000000000 V DW.ref.__gxx_personality_v0
                 U _GLOBAL_OFFSET_TABLE_
                 U _Unwind_Resume
0000000000000000 W _Z10_my_assertPKcS0_S0_i
                 U _Z10outWarningNSt7__cxx1112basic_stringIcSt11char_traitsIcESaIcEEE
                 U _Z11nFreqParams13StateFreqType
                 U _Z15freqsFromParamsPdS_13StateFreqType
0000000000000000 T _Z15getDNAModelInfoNSt7__cxx1112basic_stringIcSt11char_traitsIcESaIcEEERS4_S5_R13StateFreqType
                 U _Z15paramsFromFreqsPdS_13StateFreqType
                 U _Z18convertIntToStringB5cxx11i
                 U _Z21convertDoubleToStringB5cxx11d
                 U _Z32convert_double_with_distributionPKcRibc
                 U _Z8outErrorNSt7__cxx1112basic_stringIcSt11char_traitsIcESaIcEEEb
                 U _Z8outErrorPKcNSt7__cxx1112basic_stringIcSt11char_traitsIcESaIcEEEb
                 U _Z8outErrorPKcb
                 U _Z9memcmpcpyPvPKvm
                 U _ZN10Checkpoint11startStructENSt7__cxx1112basic_stringIcSt11char_traitsIcESaIcEEE
0000000000000000 W _ZN10Checkpoint8putArrayIdEEvNSt7__cxx1112basic_stringIcSt11char_traitsIcESaIcEEEiPT_
0000000000000000 W _ZN10ModelSubst11isLieMarkovEv
                 U _ZN10ModelSubst12computeTransEdiii
                 U _ZN10ModelSubst12computeTransEdiiiRdS0_
0000000000000000 W _ZN10ModelSubst12getNMixturesEv
0000000000000000 W _ZN10ModelSubst13fixParametersEb
0000000000000000 W _ZN10ModelSubst13getDNAErrProbEi
0000000000000000 W _ZN10ModelSubst13getPtnModelIDEi
0000000000000000 W _ZN10ModelSubst14isMixtureSameQEv
                 U _ZN10ModelSubst14newTransMatrixEv
0000000000000000 W _ZN10ModelSubst15containDNAerrorEv
0000000000000000 W _ZN10ModelSubst15getMixtureClassEi
0000000000000000 W _ZN10ModelSubst15setMixtureClassEiPS_
0000000000000000 W _ZN10ModelSubst16getMixtureWeightEi
0000000000000000 W _ZN10ModelSubst16getMutationModelEv
0000000000000000 W _ZN10ModelSubst16setMixtureWeightEid
0000000000000000 W _ZN10ModelSubst16setOptimizeStepsEi
0000000000000000 W _ZN10ModelSubst18getTransMatrixSizeEv
0000000000000000 W _ZN10ModelSubst19isPolymorphismAwareEv
0000000000000000 W _ZN10ModelSubst19isSiteSpecificModelEv
0000000000000000 W _ZN10ModelSubst19setFixMixtureWeightEb
                 U _ZN10ModelSubst20computeTipLikelihoodEjPd
0000000000000000 W _ZN10ModelSubst6reportERSo
0000000000000000 W _ZN10ModelSubst7isFusedEv
0000000000000000 W _ZN10ModelSubst9isMixtureEv
0000000000000000 W _ZN11ModelMarkov10getNParamsEv
                 U _ZN11ModelMarkov10getQMatrixEPdi
0000000000000000 W _ZN11ModelMarkov10setNParamsEi
                 U _ZN11ModelMarkov10targetFunkEPd
0000000000000000 W _ZN11ModelMarkov11getFreqTypeEv
                 U _ZN11ModelMarkov11getNDimFreqEv
                 U _ZN11ModelMarkov12computeTransEdii
                 U _ZN11ModelMarkov12computeTransEdiiRdS0_
0000000000000000 W _ZN11ModelMarkov12isReversibleEv
                 U _ZN11ModelMarkov13getRateMatrixEPd
                 U _ZN11ModelMarkov13readStateFreqENSt7__cxx1112basic_stringIcSt11char_traitsIcESaIcEEE
                 U _ZN11ModelMarkov13readStateFreqERSi
                 U _ZN11ModelMarkov13setRateMatrixEPd
                 U _ZN11ModelMarkov13setReversibleEbb
                 U _ZN11ModelMarkov14readParametersEPKcb
                 U _ZN11ModelMarkov14saveCheckpointEv
                 U _ZN11ModelMarkov16computeTransDervEdPdS0_S0_i
0000000000000000 W _ZN11ModelMarkov17getMemoryRequiredEv
                 U _ZN11ModelMarkov17getNameParamsFreqERSo
                 U _ZN11ModelMarkov17getNumRateEntriesEv
                 U _ZN11ModelMarkov17getStateFrequencyEPdi
                 U _ZN11ModelMarkov17restoreCheckpointEv
                 U _ZN11ModelMarkov17setFullRateMatrixEPdS0_
                 U _ZN11ModelMarkov17setStateFrequencyEPd
                 U _ZN11ModelMarkov18computeTransMatrixEdPdii
                 U _ZN11ModelMarkov18optimizeParametersEd
                 U _ZN11ModelMarkov19adaptStateFrequencyEPd
                 U _ZN11ModelMarkov19decomposeRateMatrixEv
                 U _ZN11ModelMarkov20get_num_states_totalEv
                 U _ZN11ModelMarkov20isUnstableParametersEv
                 U _ZN11ModelMarkov21update_eigen_pointersEPdS0_S0_S0_
                 U _ZN11ModelMarkov24computeTransMatrixNonrevEdPdi
                 U _ZN11ModelMarkov25decomposeRateMatrixNonrevEv
                 U _ZN11ModelMarkov4initE13StateFreqType
                 U _ZN11ModelMarkov7freeMemEv
                 U _ZN11ModelMarkov7getNameB5cxx11Ev
                 U _ZN11ModelMarkov7setTreeEP9PhyloTree
                 U _ZN11ModelMarkov8setRatesEv
                 U _ZN11ModelMarkov9readRatesERSi
                 U _ZN11ModelMarkov9setBoundsEPdS0_Pb
                 U _ZN11ModelMarkov9writeInfoERSo
                 U _ZN11ModelMarkovC2EP9PhyloTreebb
                 U _ZN11ModelMarkovD2Ev
                 U _ZN12Optimization13optimGradientEiPdS0_
                 U _ZN12Optimization14derivativeFunkEPdS0_
0000000000000000 W _ZN12Optimization15computeFuncDervEdRdS0_
0000000000000000 W _ZN12Optimization15computeFunctionEd
                 U _ZN12Optimization17restartParametersEPdiS0_S0_Pbi
0000000000000000 W _ZN12Optimization20computeFuncDervMultiEPdS0_S0_
                 U _ZN12Optimization9optimFuncEiPd
                 U _ZN14ModelLieMarkov21getLieMarkovModelInfoENSt7__cxx1112basic_stringIcSt11char_traitsIcESaIcEEERS5_S6_RiS7_R13StateFreqType
                 U _ZN17CheckpointFactory13endCheckpointEv
                 U _ZN17CheckpointFactory13setCheckpointEP10Checkpoint
                 U _ZN18EigenDecomposition17computeRateMatrixEPPdS0_i
                 U _ZN6Params11getInstanceEv
0000000000000000 T _ZN8ModelDNA11setRateTypeENSt7__cxx1112basic_stringIcSt11char_traitsIcESaIcEEE
0000000000000000 T _ZN8ModelDNA12getVariablesEPd
0000000000000000 T _ZN8ModelDNA12setVariablesEPd
0000000000000000 T _ZN8ModelDNA13getNameParamsB5cxx11Eb
0000000000000000 T _ZN8ModelDNA14saveCheckpointEv
0000000000000000 T _ZN8ModelDNA15startCheckpointEv
0000000000000000 T _ZN8ModelDNA15writeParametersERSo
0000000000000000 T _ZN8ModelDNA17restoreCheckpointEv
0000000000000000 T _ZN8ModelDNA20computeTipLikelihoodEjPd
0000000000000000 T _ZN8ModelDNA4initEPKcNSt7__cxx1112basic_stringIcSt11char_traitsIcESaIcEEE13StateFreqTypeS7_
0000000000000000 T _ZN8ModelDNA7getNDimEv
0000000000000000 T _ZN8ModelDNA9readRatesENSt7__cxx1112basic_stringIcSt11char_traitsIcESaIcEEE
0000000000000000 T _ZN8ModelDNAC1EP9PhyloTree
0000000000000000 T _ZN8ModelDNAC1EPKcNSt7__cxx1112basic_stringIcSt11char_traitsIcESaIcEEE13StateFreqTypeS7_P9PhyloTree
0000000000000000 T _ZN8ModelDNAC2EP9PhyloTree
0000000000000000 T _ZN8ModelDNAC2EPKcNSt7__cxx1112basic_stringIcSt11char_traitsIcESaIcEEE13StateFreqTypeS7_P9PhyloTree
0000000000000000 W _ZN8ModelDNAD0Ev
0000000000000000 W _ZN8ModelDNAD1Ev
0000000000000000 W _ZN8ModelDNAD2Ev
0000000000000000 W _ZN9CkpStreamD0Ev
0000000000000000 W _ZN9CkpStreamD1Ev
                 U _ZNK11ModelMarkov14getEigenvaluesEv
                 U _ZNK11ModelMarkov15getEigenvectorsEv
                 U _ZNK11ModelMarkov22getInverseEigenvectorsEv
                 U _ZNK11ModelMarkov32getInverseEigenvectorsTransposedEv
                 U _ZNKSt5ctypeIcE13_M_widen_initEv
0000000000000000 W _ZNKSt5ctypeIcE8do_widenEc
                 U _ZNKSt7__cxx1112basic_stringIcSt11char_traitsIcESaIcEE4findEPKcmm
                 U _ZNKSt7__cxx1112basic_stringIcSt11char_traitsIcESaIcEE4findEcm
                 U _ZNKSt7__cxx1112basic_stringIcSt11char_traitsIcESaIcEE7compareEPKc
                 U _ZNSdD2Ev
                 U _ZNSi10_M_extractIdEERSiRT_
                 U _ZNSo3putEc
                 U _ZNSo5flushEv
                 U _ZNSo9_M_insertIdEERSoT_
                 U _ZNSolsEi
                 U _ZNSt6localeC1Ev
                 U _ZNSt6localeD1Ev
0000000000000000 W _ZNSt6vectorIbSaIbEE14_M_fill_insertESt13_Bit_iteratormb
                 U _ZNSt7__cxx1112basic_stringIcSt11char_traitsIcESaIcEE10_M_replaceEmmPKcm
                 U _ZNSt7__cxx1112basic_stringIcSt11char_traitsIcESaIcEE6assignEPKc
                 U _ZNSt7__cxx1112basic_stringIcSt11char_traitsIcESaIcEE7reserveEm
                 U _ZNSt7__cxx1112basic_stringIcSt11char_traitsIcESaIcEE9_M_appendEPKcm
                 U _ZNSt7__cxx1112basic_stringIcSt11char_traitsIcESaIcEE9_M_assignERKS4_
                 U _ZNSt7__cxx1112basic_stringIcSt11char_traitsIcESaIcEE9_M_createERmm
                 U _ZNSt7__cxx1112basic_stringIcSt11char_traitsIcESaIcEE9_M_mutateEmmPKcm
                 U _ZNSt7__cxx1112basic_stringIcSt11char_traitsIcESaIcEEC1ERKS4_
                 U _ZNSt7__cxx1115basic_stringbufIcSt11char_traitsIcESaIcEE7_M_syncEPcmm
0000000000000000 W _ZNSt7__cxx1115basic_stringbufIcSt11char_traitsIcESaIcEED0Ev
0000000000000000 W _ZNSt7__cxx1115basic_stringbufIcSt11char_traitsIcESaIcEED1Ev
0000000000000000 W _ZNSt7__cxx1115basic_stringbufIcSt11char_traitsIcESaIcEED2Ev
                 U _ZNSt7__cxx1119basic_ostringstreamIcSt11char_traitsIcESaIcEED1Ev
0000000000000000 W _ZNSt8_Rb_treeINSt7__cxx1112basic_stringIcSt11char_traitsIcESaIcEEESt4pairIKS5_S5_ESt10_Select1stIS8_ESt4lessIS5_ESaIS8_EE24_M_get_insert_unique_posERS7_
0000000000000000 W _ZNSt8_Rb_treeINSt7__cxx1112basic_stringIcSt11char_traitsIcESaIcEEESt4pairIKS5_S5_ESt10_Select1stIS8_ESt4lessIS5_ESaIS8_EE29_M_get_insert_hint_unique_posESt23_Rb_tree_const_iteratorIS8_ERS7_
0000000000000000 W _ZNSt8_Rb_treeIcSt4pairIKccESt10_Select1stIS2_ESt4lessIcESaIS2_EE22_M_emplace_hint_uniqueIJRKSt21piecewise_construct_tSt5tupleIJRS1_EESD_IJEEEEESt17_Rb_tree_iteratorIS2_ESt23_Rb_tree_const_iteratorIS2_EDpOT_
0000000000000000 W _ZNSt8_Rb_treeIcSt4pairIKccESt10_Select1stIS2_ESt4lessIcESaIS2_EE24_M_get_insert_unique_posERS1_
0000000000000000 W _ZNSt8_Rb_treeIcSt4pairIKccESt10_Select1stIS2_ESt4lessIcESaIS2_EE29_M_get_insert_hint_unique_posESt23_Rb_tree_const_iteratorIS2_ERS1_
                 U _ZNSt8ios_base4InitC1Ev
                 U _ZNSt8ios_base4InitD1Ev
                 U _ZNSt8ios_baseC2Ev
                 U _ZNSt8ios_baseD2Ev
                 U _ZNSt9basic_iosIcSt11char_traitsIcEE4initEPSt15basic_streambufIcS1_E
                 U _ZSt16__ostream_insertIcSt11char_traitsIcEERSt13basic_ostreamIT_T0_ES6_PKS3_l
                 U _ZSt16__throw_bad_castv
                 U _ZSt18_Rb_tree_decrementPSt18_Rb_tree_node_base
                 U _ZSt18_Rb_tree_incrementPSt18_Rb_tree_node_base
                 U _ZSt19__throw_logic_errorPKc
                 U _ZSt20__throw_length_errorPKc
                 U _ZSt24__throw_out_of_range_fmtPKcz
                 U _ZSt29_Rb_tree_insert_and_rebalancebPSt18_Rb_tree_node_baseS0_RS_
                 U _ZSt4cerr
                 U _ZSt4cout
                 U _ZStlsISt11char_traitsIcEERSt13basic_ostreamIcT_ES5_PKc
0000000000000000 W _ZStplIcSt11char_traitsIcESaIcEENSt7__cxx1112basic_stringIT_T0_T1_EEPKS5_RKS8_
0000000000000000 W _ZStplIcSt11char_traitsIcESaIcEENSt7__cxx1112basic_stringIT_T0_T1_EERKS8_SA_
0000000000000000 V _ZTC9CkpStream0_NSt7__cxx1118basic_stringstreamIcSt11char_traitsIcESaIcEEE
0000000000000000 V _ZTC9CkpStream0_Sd
0000000000000000 V _ZTC9CkpStream0_Si
0000000000000000 V _ZTC9CkpStream16_So
                 U _ZTI11ModelMarkov
0000000000000000 V _ZTI8ModelDNA
0000000000000000 V _ZTI9CkpStream
0000000000000000 V _ZTINSt7__cxx1112basic_stringIcSt11char_traitsIcESaIcEEE
                 U _ZTINSt7__cxx1118basic_stringstreamIcSt11char_traitsIcESaIcEEE
                 U _ZTIPKc
                 U _ZTISd
                 U _ZTISi
                 U _ZTISo
0000000000000000 V _ZTS8ModelDNA
0000000000000000 V _ZTS9CkpStream
0000000000000000 V _ZTSNSt7__cxx1112basic_stringIcSt11char_traitsIcESaIcEEE
0000000000000000 V _ZTT9CkpStream
                 U _ZTTNSt7__cxx1119basic_ostringstreamIcSt11char_traitsIcESaIcEEE
0000000000000000 V _ZTV8ModelDNA
0000000000000000 V _ZTV9CkpStream
                 U _ZTVN10__cxxabiv117__class_type_infoE
                 U _ZTVN10__cxxabiv120__si_class_type_infoE
                 U _ZTVNSt7__cxx1115basic_stringbufIcSt11char_traitsIcESaIcEEE
                 U _ZTVNSt7__cxx1119basic_ostringstreamIcSt11char_traitsIcESaIcEEE
                 U _ZTVSt15basic_streambufIcSt11char_traitsIcEE
                 U _ZTVSt9basic_iosIcSt11char_traitsIcEE
00000000000000b0 W _ZThn16_N9CkpStreamD0Ev
00000000000000b0 W _ZThn16_N9CkpStreamD1Ev
0000000000000000 T _ZThn8_N8ModelDNA14saveCheckpointEv
0000000000000000 T _ZThn8_N8ModelDNA15startCheckpointEv
0000000000000000 T _ZThn8_N8ModelDNA17restoreCheckpointEv
0000000000000070 W _ZThn8_N8ModelDNAD0Ev
0000000000000070 W _ZThn8_N8ModelDNAD1Ev
0000000000000160 W _ZTv0_n24_N9CkpStreamD0Ev
0000000000000150 W _ZTv0_n24_N9CkpStreamD1Ev
                 U _ZdaPv
                 U _ZdlPv
                 U _Znam
                 U _Znwm
                 U __cxa_atexit
                 U __cxa_begin_catch
                 U __cxa_call_unexpected
                 U __cxa_end_catch
                 U __cxa_get_exception_ptr
                 U __cxa_rethrow
                 U __cxa_throw_bad_array_new_length
                 U __dso_handle
                 U __gxx_personality_v0
                 U abort
                 U memcmp
                 U memcpy
                 U memmove
                 U memset
                 U strlen
                 U strrchr
                 U toupper
                 U verbose_mode

modeldnaerror.cpp.o:
0000000000000000 V DW.ref.__gxx_personality_v0
                 U _GLOBAL_OFFSET_TABLE_
                 U _Unwind_Resume
                 U _Z14convert_doublePKc
                 U _Z21convertDoubleToStringB5cxx11d
                 U _Z8outErrorNSt7__cxx1112basic_stringIcSt11char_traitsIcESaIcEEEb
                 U _ZN10Checkpoint11startStructENSt7__cxx1112basic_stringIcSt11char_traitsIcESaIcEEE
0000000000000000 W _ZN10Checkpoint3putIdEEvNSt7__cxx1112basic_stringIcSt11char_traitsIcESaIcEEET_
0000000000000000 W _ZN10ModelSubst11isLieMarkovEv
                 U _ZN10ModelSubst12computeTransEdiii
                 U _ZN10ModelSubst12computeTransEdiiiRdS0_
0000000000000000 W _ZN10ModelSubst12getNMixturesEv
0000000000000000 W _ZN10ModelSubst13fixParametersEb
0000000000000000 W _ZN10ModelSubst13getPtnModelIDEi
0000000000000000 W _ZN10ModelSubst14isMixtureSameQEv
                 U _ZN10ModelSubst14newTransMatrixEv
0000000000000000 W _ZN10ModelSubst15getMixtureClassEi
0000000000000000 W _ZN10ModelSubst15setMixtureClassEiPS_
0000000000000000 W _ZN10ModelSubst16getMixtureWeightEi
0000000000000000 W _ZN10ModelSubst16getMutationModelEv
0000000000000000 W _ZN10ModelSubst16setMixtureWeightEid
0000000000000000 W _ZN10ModelSubst16setOptimizeStepsEi
0000000000000000 W _ZN10ModelSubst18getTransMatrixSizeEv
0000000000000000 W _ZN10ModelSubst19isPolymorphismAwareEv
0000000000000000 W _ZN10ModelSubst19isSiteSpecificModelEv
0000000000000000 W _ZN10ModelSubst19setFixMixtureWeightEb
                 U _ZN10ModelSubst20computeTipLikelihoodEjPd
0000000000000000 W _ZN10ModelSubst6reportERSo
0000000000000000 W _ZN10ModelSubst7isFusedEv
0000000000000000 W _ZN10ModelSubst9isMixtureEv
0000000000000000 W _ZN11ModelMarkov10getNParamsEv
                 U _ZN11ModelMarkov10getQMatrixEPdi
0000000000000000 W _ZN11ModelMarkov10setNParamsEi
                 U _ZN11ModelMarkov10targetFunkEPd
0000000000000000 W _ZN11ModelMarkov11getFreqTypeEv
                 U _ZN11ModelMarkov11getNDimFreqEv
                 U _ZN11ModelMarkov12computeTransEdii
                 U _ZN11ModelMarkov12computeTransEdiiRdS0_
0000000000000000 W _ZN11ModelMarkov12isReversibleEv
                 U _ZN11ModelMarkov13getRateMatrixEPd
                 U _ZN11ModelMarkov13readStateFreqENSt7__cxx1112basic_stringIcSt11char_traitsIcESaIcEEE
                 U _ZN11ModelMarkov13readStateFreqERSi
                 U _ZN11ModelMarkov13setRateMatrixEPd
                 U _ZN11ModelMarkov13setReversibleEbb
                 U _ZN11ModelMarkov16computeTransDervEdPdS0_S0_i
0000000000000000 W _ZN11ModelMarkov17getMemoryRequiredEv
                 U _ZN11ModelMarkov17getNumRateEntriesEv
                 U _ZN11ModelMarkov17getStateFrequencyEPdi
                 U _ZN11ModelMarkov17setFullRateMatrixEPdS0_
                 U _ZN11ModelMarkov17setStateFrequencyEPd
                 U _ZN11ModelMarkov18computeTransMatrixEdPdii
                 U _ZN11ModelMarkov18optimizeParametersEd
                 U _ZN11ModelMarkov19adaptStateFrequencyEPd
                 U _ZN11ModelMarkov19decomposeRateMatrixEv
                 U _ZN11ModelMarkov20get_num_states_totalEv
                 U _ZN11ModelMarkov20isUnstableParametersEv
                 U _ZN11ModelMarkov21update_eigen_pointersEPdS0_S0_S0_
                 U _ZN11ModelMarkov24computeTransMatrixNonrevEdPdi
                 U _ZN11ModelMarkov25decomposeRateMatrixNonrevEv
                 U _ZN11ModelMarkov7freeMemEv
                 U _ZN11ModelMarkov7getNameB5cxx11Ev
                 U _ZN11ModelMarkov7setTreeEP9PhyloTree
                 U _ZN11ModelMarkov8setRatesEv
                 U _ZN11ModelMarkov9readRatesERSi
                 U _ZN11ModelMarkov9setBoundsEPdS0_Pb
                 U _ZN11ModelMarkov9writeInfoERSo
                 U _ZN11ModelMarkovD2Ev
                 U _ZN12Optimization13optimGradientEiPdS0_
                 U _ZN12Optimization14derivativeFunkEPdS0_
0000000000000000 W _ZN12Optimization15computeFuncDervEdRdS0_
0000000000000000 W _ZN12Optimization15computeFunctionEd
                 U _ZN12Optimization17restartParametersEPdiS0_S0_Pbi
0000000000000000 W _ZN12Optimization20computeFuncDervMultiEPdS0_S0_
                 U _ZN12Optimization9optimFuncEiPd
0000000000000000 T _ZN13ModelDNAError12getVariablesEPd
0000000000000000 T _ZN13ModelDNAError12setVariablesEPd
0000000000000000 W _ZN13ModelDNAError13getDNAErrProbEi
0000000000000000 T _ZN13ModelDNAError13getNameParamsB5cxx11Eb
0000000000000000 T _ZN13ModelDNAError14saveCheckpointEv
0000000000000000 W _ZN13ModelDNAError15containDNAerrorEv
0000000000000000 T _ZN13ModelDNAError15startCheckpointEv
0000000000000000 T _ZN13ModelDNAError17restoreCheckpointEv
0000000000000000 T _ZN13ModelDNAError20computeTipLikelihoodEjPd
0000000000000000 T _ZN13ModelDNAError7getNDimEv
0000000000000000 T _ZN13ModelDNAError7getNameB5cxx11Ev
0000000000000000 T _ZN13ModelDNAError9setBoundsEPdS0_Pb
0000000000000000 T _ZN13ModelDNAError9writeInfoERSo
0000000000000000 T _ZN13ModelDNAErrorC1EP9PhyloTree
0000000000000000 T _ZN13ModelDNAErrorC1EPKcNSt7__cxx1112basic_stringIcSt11char_traitsIcESaIcEEE13StateFreqTypeS7_S7_P9PhyloTree
0000000000000000 T _ZN13ModelDNAErrorC2EP9PhyloTree
0000000000000000 T _ZN13ModelDNAErrorC2EPKcNSt7__cxx1112basic_stringIcSt11char_traitsIcESaIcEEE13StateFreqTypeS7_S7_P9PhyloTree
0000000000000000 W _ZN13ModelDNAErrorD0Ev
00000000000000d0 W _ZN13ModelDNAErrorD1Ev
00000000000000d0 W _ZN13ModelDNAErrorD2Ev
                 U _ZN17CheckpointFactory13endCheckpointEv
                 U _ZN17CheckpointFactory13setCheckpointEP10Checkpoint
                 U _ZN18EigenDecomposition17computeRateMatrixEPPdS0_i
                 U _ZN6Params11getInstanceEv
                 U _ZN8ModelDNA12getVariablesEPd
                 U _ZN8ModelDNA12setVariablesEPd
                 U _ZN8ModelDNA13getNameParamsB5cxx11Eb
                 U _ZN8ModelDNA14saveCheckpointEv
                 U _ZN8ModelDNA15writeParametersERSo
                 U _ZN8ModelDNA17restoreCheckpointEv
                 U _ZN8ModelDNA4initEPKcNSt7__cxx1112basic_stringIcSt11char_traitsIcESaIcEEE13StateFreqTypeS7_
                 U _ZN8ModelDNA7getNDimEv
                 U _ZN8ModelDNA9readRatesENSt7__cxx1112basic_stringIcSt11char_traitsIcESaIcEEE
                 U _ZN8ModelDNAC2EP9PhyloTree
                 U _ZN8ModelDNAC2EPKcNSt7__cxx1112basic_stringIcSt11char_traitsIcESaIcEEE13StateFreqTypeS7_P9PhyloTree
0000000000000000 W _ZN9CkpStreamD0Ev
0000000000000000 W _ZN9CkpStreamD1Ev
                 U _ZNK11ModelMarkov14getEigenvaluesEv
                 U _ZNK11ModelMarkov15getEigenvectorsEv
                 U _ZNK11ModelMarkov22getInverseEigenvectorsEv
                 U _ZNK11ModelMarkov32getInverseEigenvectorsTransposedEv
                 U _ZNKSt5ctypeIcE13_M_widen_initEv
0000000000000000 W _ZNKSt5ctypeIcE8do_widenEc
                 U _ZNKSt7__cxx1112basic_stringIcSt11char_traitsIcESaIcEE4findEcm
                 U _ZNKSt7__cxx1112basic_stringIcSt11char_traitsIcESaIcEE7compareEPKc
                 U _ZNSdD2Ev
                 U _ZNSi10_M_extractIdEERSiRT_
                 U _ZNSo3putEc
                 U _ZNSo5flushEv
                 U _ZNSo9_M_insertIdEERSoT_
                 U _ZNSt6localeC1Ev
                 U _ZNSt6localeD1Ev
                 U _ZNSt7__cxx1112basic_stringIcSt11char_traitsIcESaIcEE10_M_replaceEmmPKcm
                 U _ZNSt7__cxx1112basic_stringIcSt11char_traitsIcESaIcEE7reserveEm
                 U _ZNSt7__cxx1112basic_stringIcSt11char_traitsIcESaIcEE9_M_appendEPKcm
                 U _ZNSt7__cxx1112basic_stringIcSt11char_traitsIcESaIcEE9_M_assignERKS4_
                 U _ZNSt7__cxx1112basic_stringIcSt11char_traitsIcESaIcEE9_M_createERmm
                 U _ZNSt7__cxx1115basic_stringbufIcSt11char_traitsIcESaIcEE7_M_syncEPcmm
0000000000000000 W _ZNSt7__cxx1115basic_stringbufIcSt11char_traitsIcESaIcEED0Ev
0000000000000000 W _ZNSt7__cxx1115basic_stringbufIcSt11char_traitsIcESaIcEED1Ev
0000000000000000 W _ZNSt7__cxx1115basic_stringbufIcSt11char_traitsIcESaIcEED2Ev
0000000000000000 W _ZNSt8_Rb_treeINSt7__cxx1112basic_stringIcSt11char_traitsIcESaIcEEESt4pairIKS5_S5_ESt10_Select1stIS8_ESt4lessIS5_ESaIS8_EE24_M_get_insert_unique_posERS7_
0000000000000000 W _ZNSt8_Rb_treeINSt7__cxx1112basic_stringIcSt11char_traitsIcESaIcEEESt4pairIKS5_S5_ESt10_Select1stIS8_ESt4lessIS5_ESaIS8_EE29_M_get_insert_hint_unique_posESt23_Rb_tree_const_iteratorIS8_ERS7_
                 U _ZNSt8ios_base4InitC1Ev
                 U _ZNSt8ios_base4InitD1Ev
                 U _ZNSt8ios_baseC2Ev
                 U _ZNSt8ios_baseD2Ev
                 U _ZNSt9basic_iosIcSt11char_traitsIcEE4initEPSt15basic_streambufIcS1_E
                 U _ZSt16__ostream_insertIcSt11char_traitsIcEERSt13basic_ostreamIT_T0_ES6_PKS3_l
                 U _ZSt16__throw_bad_castv
                 U _ZSt18_Rb_tree_decrementPSt18_Rb_tree_node_base
                 U _ZSt18_Rb_tree_incrementPSt18_Rb_tree_node_base
                 U _ZSt19__throw_logic_errorPKc
                 U _ZSt20__throw_length_errorPKc
                 U _ZSt24__throw_out_of_range_fmtPKcz
                 U _ZSt29_Rb_tree_insert_and_rebalancebPSt18_Rb_tree_node_baseS0_RS_
                 U _ZSt4cerr
0000000000000000 W _ZStplIcSt11char_traitsIcESaIcEENSt7__cxx1112basic_stringIT_T0_T1_EEPKS5_RKS8_
0000000000000000 W _ZStplIcSt11char_traitsIcESaIcEENSt7__cxx1112basic_stringIT_T0_T1_EERKS8_SA_
0000000000000000 V _ZTC9CkpStream0_NSt7__cxx1118basic_stringstreamIcSt11char_traitsIcESaIcEEE
0000000000000000 V _ZTC9CkpStream0_Sd
0000000000000000 V _ZTC9CkpStream0_Si
0000000000000000 V _ZTC9CkpStream16_So
0000000000000000 V _ZTI13ModelDNAError
                 U _ZTI8ModelDNA
0000000000000000 V _ZTI9CkpStream
                 U _ZTINSt7__cxx1118basic_stringstreamIcSt11char_traitsIcESaIcEEE
                 U _ZTISd
                 U _ZTISi
                 U _ZTISo
0000000000000000 V _ZTS13ModelDNAError
0000000000000000 V _ZTS9CkpStream
0000000000000000 V _ZTT9CkpStream
0000000000000000 V _ZTV13ModelDNAError
                 U _ZTV8ModelDNA
0000000000000000 V _ZTV9CkpStream
                 U _ZTVN10__cxxabiv120__si_class_type_infoE
                 U _ZTVNSt7__cxx1115basic_stringbufIcSt11char_traitsIcESaIcEEE
                 U _ZTVSt15basic_streambufIcSt11char_traitsIcEE
                 U _ZTVSt9basic_iosIcSt11char_traitsIcEE
00000000000000b0 W _ZThn16_N9CkpStreamD0Ev
00000000000000b0 W _ZThn16_N9CkpStreamD1Ev
0000000000000000 T _ZThn8_N13ModelDNAError14saveCheckpointEv
0000000000000000 T _ZThn8_N13ModelDNAError15startCheckpointEv
0000000000000000 T _ZThn8_N13ModelDNAError17restoreCheckpointEv
00000000000000d0 W _ZThn8_N13ModelDNAErrorD0Ev
0000000000000000 W _ZThn8_N13ModelDNAErrorD1Ev
0000000000000160 W _ZTv0_n24_N9CkpStreamD0Ev
0000000000000150 W _ZTv0_n24_N9CkpStreamD1Ev
                 U _ZdlPv
                 U _Znwm
                 U __cxa_atexit
                 U __cxa_begin_catch
                 U __cxa_end_catch
                 U __cxa_rethrow
                 U __dso_handle
                 U __gxx_personality_v0
                 U memcmp
                 U memcpy
                 U memset
                 U strlen

modelfactory.cpp.o:
0000000000000000 V DW.ref._ZTIPKc
0000000000000000 V DW.ref.__gxx_personality_v0
                 U _GLOBAL_OFFSET_TABLE_
                 U _Unwind_Resume
0000000000000000 W _Z10_my_assertPKcS0_S0_i
0000000000000000 T _Z10findSubStrRNSt7__cxx1112basic_stringIcSt11char_traitsIcESaIcEEES4_S4_
                 U _Z10outWarningNSt7__cxx1112basic_stringIcSt11char_traitsIcESaIcEEE
                 U _Z10outWarningPKc
                 U _Z11convert_intPKc
                 U _Z11convert_intPKcRi
                 U _Z11createModelNSt7__cxx1112basic_stringIcSt11char_traitsIcESaIcEEEP11ModelsBlock13StateFreqTypeS4_P9PhyloTree
0000000000000000 T _Z11posRateFreeRNSt7__cxx1112basic_stringIcSt11char_traitsIcESaIcEEE
0000000000000000 T _Z16findCloseBracketRNSt7__cxx1112basic_stringIcSt11char_traitsIcESaIcEEEm
                 U _Z18convertIntToStringB5cxx11i
0000000000000000 T _Z18posRateHeterotachyNSt7__cxx1112basic_stringIcSt11char_traitsIcESaIcEEE
                 U _Z20parseStateFreqDigitsNSt7__cxx1112basic_stringIcSt11char_traitsIcESaIcEEE
0000000000000000 T _Z20readModelsDefinitionR6Params
                 U _Z32convert_double_with_distributionPKcb
0000000000000000 T _Z7posPOMORNSt7__cxx1112basic_stringIcSt11char_traitsIcESaIcEEE
                 U _Z8outErrorNSt7__cxx1112basic_stringIcSt11char_traitsIcESaIcEEEb
                 U _Z8outErrorPKcNSt7__cxx1112basic_stringIcSt11char_traitsIcESaIcEEEb
                 U _Z8outErrorPKcb
                 U _ZN10Checkpoint11startStructENSt7__cxx1112basic_stringIcSt11char_traitsIcESaIcEEE
                 U _ZN10CheckpointC1Ev
                 U _ZN11ModelMarkov4initE13StateFreqType
                 U _ZN11ModelsBlock12findMixModelENSt7__cxx1112basic_stringIcSt11char_traitsIcESaIcEEE
                 U _ZN11ModelsBlockC1Ev
0000000000000000 T _ZN12ModelFactory10targetFunkEPd
0000000000000000 T _ZN12ModelFactory12computeTransEdii
0000000000000000 T _ZN12ModelFactory12computeTransEdiiRdS0_
0000000000000000 T _ZN12ModelFactory12getVariablesEPd
0000000000000000 W _ZN12ModelFactory12isReversibleEv
0000000000000000 T _ZN12ModelFactory12setVariablesEPd
0000000000000000 T _ZN12ModelFactory13setCheckpointEP10Checkpoint
0000000000000000 T _ZN12ModelFactory14getNParametersEi
0000000000000000 T _ZN12ModelFactory14saveCheckpointEv
0000000000000000 T _ZN12ModelFactory15startCheckpointEv
0000000000000000 T _ZN12ModelFactory16computeTransDervEdPdS0_S0_i
0000000000000000 T _ZN12ModelFactory17restoreCheckpointEv
0000000000000000 T _ZN12ModelFactory18computeTransMatrixEdPdii
0000000000000000 T _ZN12ModelFactory18optimizeParametersEibdd
0000000000000000 T _ZN12ModelFactory20isUnstableParametersEv
0000000000000000 T _ZN12ModelFactory21optimizeAllParametersEd
0000000000000000 T _ZN12ModelFactory22optimizeParametersOnlyEidd
0000000000000000 T _ZN12ModelFactory22stopStoringTransMatrixEv
0000000000000000 T _ZN12ModelFactory23startStoringTransMatrixEv
0000000000000000 T _ZN12ModelFactory28optimizeParametersGammaInvarEibdd
0000000000000000 T _ZN12ModelFactory29optimizeGammaInvWithInitValueEiddddRSt6vectorIdSaIdEEP10Checkpoint
0000000000000000 T _ZN12ModelFactory7getNDimEv
0000000000000000 W _ZN12ModelFactory9writeInfoERSo
0000000000000000 T _ZN12ModelFactoryC1ER6ParamsRNSt7__cxx1112basic_stringIcSt11char_traitsIcESaIcEEEP9PhyloTreeP11ModelsBlock
0000000000000000 T _ZN12ModelFactoryC1Ev
0000000000000000 T _ZN12ModelFactoryC2ER6ParamsRNSt7__cxx1112basic_stringIcSt11char_traitsIcESaIcEEEP9PhyloTreeP11ModelsBlock
0000000000000000 T _ZN12ModelFactoryC2Ev
0000000000000000 T _ZN12ModelFactoryD0Ev
0000000000000000 T _ZN12ModelFactoryD1Ev
0000000000000000 T _ZN12ModelFactoryD2Ev
                 U _ZN12ModelMixtureC1ENSt7__cxx1112basic_stringIcSt11char_traitsIcESaIcEEES5_S5_P11ModelsBlock13StateFreqTypeS5_P9PhyloTreeb
                 U _ZN12Optimization13optimGradientEiPdS0_
                 U _ZN12Optimization14derivativeFunkEPdS0_
0000000000000000 W _ZN12Optimization15computeFuncDervEdRdS0_
0000000000000000 W _ZN12Optimization15computeFunctionEd
                 U _ZN12Optimization17restartParametersEPdiS0_S0_Pbi
                 U _ZN12Optimization18minimizeMultiDimenEPdiS0_S0_PbdS0_
0000000000000000 W _ZN12Optimization20computeFuncDervMultiEPdS0_S0_
                 U _ZN12Optimization9optimFuncEiPd
                 U _ZN12OptimizationC2Ev
                 U _ZN12OptimizationD2Ev
                 U _ZN12RateKategoryC1EiP9PhyloTree
                 U _ZN13RateFreeInvarC1EidNSt7__cxx1112basic_stringIcSt11char_traitsIcESaIcEEEbdS5_P9PhyloTree
                 U _ZN14RateGammaInvarC1EidbdNSt7__cxx1112basic_stringIcSt11char_traitsIcESaIcEEEP9PhyloTreeb
                 U _ZN15RateHeterotachyC1EiNSt7__cxx1112basic_stringIcSt11char_traitsIcESaIcEEEP9PhyloTree
                 U _ZN17CheckpointFactory13endCheckpointEv
                 U _ZN17CheckpointFactory13getCheckpointEv
                 U _ZN17CheckpointFactory13setCheckpointEP10Checkpoint
                 U _ZN17CheckpointFactory14saveCheckpointEv
                 U _ZN17CheckpointFactoryC2Ev
                 U _ZN17RateHeterogeneity7setTreeEP9PhyloTree
                 U _ZN17RateHeterogeneityC1Ev
                 U _ZN20RateHeterotachyInvarC1EiNSt7__cxx1112basic_stringIcSt11char_traitsIcESaIcEEEdP9PhyloTree
                 U _ZN5MTree11scaleLengthEdbP4NodeS1_
                 U _ZN6Params11getInstanceEv
0000000000000000 W _ZN7MyToken13OutputCommentERK9NxsString
0000000000000000 W _ZN7MyTokenD0Ev
0000000000000000 W _ZN7MyTokenD1Ev
0000000000000000 W _ZN7MyTokenD2Ev
                 U _ZN8ModelSet15joinEigenMemoryEv
                 U _ZN8ModelSetC1EPKcP9PhyloTree
0000000000000000 W _ZN8MyReader10NexusErrorE9NxsStringSt4fposI11__mbstate_tEll
0000000000000000 W _ZN8MyReader13EnteringBlockE9NxsString
0000000000000000 W _ZN8MyReader13OutputCommentERK9NxsString
0000000000000000 W _ZN8MyReader13SkippingBlockE9NxsString
0000000000000000 W _ZN8MyReader15ExecuteStartingEv
0000000000000000 W _ZN8MyReader15ExecuteStoppingEv
0000000000000000 W _ZN8MyReaderD0Ev
0000000000000000 W _ZN8MyReaderD1Ev
0000000000000000 W _ZN8MyReaderD2Ev
                 U _ZN8NxsTokenC2ERSi
                 U _ZN8NxsTokenD2Ev
                 U _ZN8RateFreeC1EidNSt7__cxx1112basic_stringIcSt11char_traitsIcESaIcEEEbS5_P9PhyloTree
                 U _ZN9Alignment14printAlignmentE9InputTypePKcbS2_iS2_
                 U _ZN9Alignment26getUnobservedConstPatternsE7ASCTypeRSt6vectorI7PatternSaIS2_EE
                 U _ZN9NxsReader12ExitingBlockE9NxsString
                 U _ZN9NxsReader16DebugReportBlockER8NxsBlock
                 U _ZN9NxsReader21SkippingDisabledBlockE9NxsString
                 U _ZN9NxsReader3AddEP8NxsBlock
                 U _ZN9NxsReader7ExecuteER8NxsTokenb
                 U _ZN9NxsReaderC1Ev
                 U _ZN9NxsReaderC2Ev
                 U _ZN9NxsReaderD1Ev
                 U _ZN9NxsReaderD2Ev
0000000000000000 W _ZN9PhyloTree11getAlnNSiteEv
                 U _ZN9PhyloTree20discardSaturatedSiteEb
                 U _ZN9PhyloTree20getNBranchParametersEi
                 U _ZN9PhyloTree25optimizeTreeLengthScalingEdRddd
                 U _ZN9RateGammaC1EidbP9PhyloTree
                 U _ZN9RateInvarC1EdP9PhyloTree
                 U _ZNKSt12__basic_fileIcE7is_openEv
                 U _ZNKSt5ctypeIcE13_M_widen_initEv
0000000000000000 W _ZNKSt5ctypeIcE8do_widenEc
                 U _ZNKSt7__cxx1112basic_stringIcSt11char_traitsIcESaIcEE13find_first_ofEPKcmm
                 U _ZNKSt7__cxx1112basic_stringIcSt11char_traitsIcESaIcEE4findEPKcm
                 U _ZNKSt7__cxx1112basic_stringIcSt11char_traitsIcESaIcEE4findEPKcmm
                 U _ZNKSt7__cxx1112basic_stringIcSt11char_traitsIcESaIcEE4findEcm
                 U _ZNKSt7__cxx1112basic_stringIcSt11char_traitsIcESaIcEE5rfindEcm
                 U _ZNKSt7__cxx1112basic_stringIcSt11char_traitsIcESaIcEE6substrEmm
                 U _ZNKSt7__cxx1112basic_stringIcSt11char_traitsIcESaIcEE7compareEPKc
                 U _ZNKSt8__detail20_Prime_rehash_policy14_M_need_rehashEmmm
                 U _ZNSdD2Ev
                 U _ZNSo3putEc
                 U _ZNSo5flushEv
                 U _ZNSo9_M_insertIdEERSoT_
                 U _ZNSo9_M_insertIlEERSoT_
                 U _ZNSo9_M_insertImEERSoT_
                 U _ZNSolsEi
0000000000000000 W _ZNSt10_HashtableIiSt4pairIKiPdESaIS3_ENSt8__detail10_Select1stESt8equal_toIiESt4hashIiENS5_18_Mod_range_hashingENS5_20_Default_ranged_hashENS5_20_Prime_rehash_policyENS5_17_Hashtable_traitsILb0ELb0ELb1EEEE4findERS1_
0000000000000000 W _ZNSt10_HashtableIiSt4pairIKiPdESaIS3_ENSt8__detail10_Select1stESt8equal_toIiESt4hashIiENS5_18_Mod_range_hashingENS5_20_Default_ranged_hashENS5_20_Prime_rehash_policyENS5_17_Hashtable_traitsILb0ELb0ELb1EEEE9_M_rehashEmRKm
0000000000000000 W _ZNSt10_HashtableIiSt4pairIKiPdESaIS3_ENSt8__detail10_Select1stESt8equal_toIiESt4hashIiENS5_18_Mod_range_hashingENS5_20_Default_ranged_hashENS5_20_Prime_rehash_policyENS5_17_Hashtable_traitsILb0ELb0ELb1EEEED1Ev
0000000000000000 W _ZNSt10_HashtableIiSt4pairIKiPdESaIS3_ENSt8__detail10_Select1stESt8equal_toIiESt4hashIiENS5_18_Mod_range_hashingENS5_20_Default_ranged_hashENS5_20_Prime_rehash_policyENS5_17_Hashtable_traitsILb0ELb0ELb1EEEED2Ev
                 U _ZNSt12__basic_fileIcED1Ev
                 U _ZNSt13basic_filebufIcSt11char_traitsIcEE4openEPKcSt13_Ios_Openmode
                 U _ZNSt13basic_filebufIcSt11char_traitsIcEE5closeEv
                 U _ZNSt13basic_filebufIcSt11char_traitsIcEEC1Ev
                 U _ZNSt13basic_filebufIcSt11char_traitsIcEED1Ev
                 U _ZNSt14basic_ifstreamIcSt11char_traitsIcEED1Ev
                 U _ZNSt6localeC1Ev
                 U _ZNSt6localeD1Ev
0000000000000000 W _ZNSt6vectorI7PatternSaIS0_EED1Ev
0000000000000000 W _ZNSt6vectorI7PatternSaIS0_EED2Ev
0000000000000000 W _ZNSt6vectorIP11ModelMarkovSaIS1_EE17_M_realloc_insertIJRKS1_EEEvN9__gnu_cxx17__normal_iteratorIPS1_S3_EEDpOT_
0000000000000000 W _ZNSt6vectorIdSaIdEE17_M_realloc_insertIJRKdEEEvN9__gnu_cxx17__normal_iteratorIPdS1_EEDpOT_
0000000000000000 W _ZNSt6vectorIiSaIiEE14_M_fill_insertEN9__gnu_cxx17__normal_iteratorIPiS1_EEmRKi
0000000000000000 W _ZNSt6vectorIiSaIiEE17_M_default_appendEm
                 U _ZNSt7__cxx1112basic_stringIcSt11char_traitsIcESaIcEE10_M_replaceEmmPKcm
                 U _ZNSt7__cxx1112basic_stringIcSt11char_traitsIcESaIcEE12_M_constructEmc
                 U _ZNSt7__cxx1112basic_stringIcSt11char_traitsIcESaIcEE14_M_replace_auxEmmmc
                 U _ZNSt7__cxx1112basic_stringIcSt11char_traitsIcESaIcEE6appendEPKc
                 U _ZNSt7__cxx1112basic_stringIcSt11char_traitsIcESaIcEE7reserveEm
                 U _ZNSt7__cxx1112basic_stringIcSt11char_traitsIcESaIcEE9_M_appendEPKcm
                 U _ZNSt7__cxx1112basic_stringIcSt11char_traitsIcESaIcEE9_M_assignERKS4_
                 U _ZNSt7__cxx1112basic_stringIcSt11char_traitsIcESaIcEE9_M_createERmm
                 U _ZNSt7__cxx1112basic_stringIcSt11char_traitsIcESaIcEE9_M_mutateEmmPKcm
                 U _ZNSt7__cxx1112basic_stringIcSt11char_traitsIcESaIcEEC1EOS4_
                 U _ZNSt7__cxx1112basic_stringIcSt11char_traitsIcESaIcEEC1ERKS4_
                 U _ZNSt7__cxx1112basic_stringIcSt11char_traitsIcESaIcEEC1ERKS4_mm
                 U _ZNSt7__cxx1115basic_stringbufIcSt11char_traitsIcESaIcEE7_M_syncEPcmm
0000000000000000 W _ZNSt7__cxx1115basic_stringbufIcSt11char_traitsIcESaIcEED0Ev
0000000000000000 W _ZNSt7__cxx1115basic_stringbufIcSt11char_traitsIcESaIcEED1Ev
0000000000000000 W _ZNSt7__cxx1115basic_stringbufIcSt11char_traitsIcESaIcEED2Ev
                 U _ZNSt7__cxx1118basic_stringstreamIcSt11char_traitsIcESaIcEED1Ev
0000000000000000 W _ZNSt8_Rb_treeINSt7__cxx1112basic_stringIcSt11char_traitsIcESaIcEEESt4pairIKS5_S5_ESt10_Select1stIS8_ESt4lessIS5_ESaIS8_EE20_Reuse_or_alloc_nodeclIRKS8_EEPSt13_Rb_tree_nodeIS8_EOT_
                 U _ZNSt8ios_base4InitC1Ev
                 U _ZNSt8ios_base4InitD1Ev
                 U _ZNSt8ios_baseC2Ev
                 U _ZNSt8ios_baseD2Ev
                 U _ZNSt9basic_iosIcSt11char_traitsIcEE4initEPSt15basic_streambufIcS1_E
                 U _ZNSt9basic_iosIcSt11char_traitsIcEE5clearESt12_Ios_Iostate
                 U _ZSt16__ostream_insertIcSt11char_traitsIcEERSt13basic_ostreamIT_T0_ES6_PKS3_l
                 U _ZSt16__throw_bad_castv
                 U _ZSt17__throw_bad_allocv
                 U _ZSt19__throw_logic_errorPKc
                 U _ZSt20__throw_length_errorPKc
                 U _ZSt24__throw_out_of_range_fmtPKcz
                 U _ZSt28__throw_bad_array_new_lengthv
                 U _ZSt4cerr
                 U _ZSt4cout
                 U _ZSt4endlIcSt11char_traitsIcEERSt13basic_ostreamIT_T0_ES6_
                 U _ZStlsISt11char_traitsIcEERSt13basic_ostreamIcT_ES5_PKc
0000000000000000 W _ZStplIcSt11char_traitsIcESaIcEENSt7__cxx1112basic_stringIT_T0_T1_EEOS8_S9_
0000000000000000 W _ZStplIcSt11char_traitsIcESaIcEENSt7__cxx1112basic_stringIT_T0_T1_EEPKS5_RKS8_
0000000000000000 V _ZTI12ModelFactory
                 U _ZTI12Optimization
                 U _ZTI17CheckpointFactory
0000000000000000 V _ZTI7MyToken
0000000000000000 V _ZTI8MyReader
                 U _ZTI8NxsToken
                 U _ZTI9NxsReader
                 U _ZTIPKc
0000000000000000 V _ZTISt13unordered_mapIiPdSt4hashIiESt8equal_toIiESaISt4pairIKiS0_EEE
0000000000000000 V _ZTS12ModelFactory
0000000000000000 V _ZTS7MyToken
0000000000000000 V _ZTS8MyReader
0000000000000000 V _ZTSSt13unordered_mapIiPdSt4hashIiESt8equal_toIiESaISt4pairIKiS0_EEE
                 U _ZTTNSt7__cxx1118basic_stringstreamIcSt11char_traitsIcESaIcEEE
                 U _ZTTSt14basic_ifstreamIcSt11char_traitsIcEE
0000000000000000 V _ZTV12ModelFactory
0000000000000000 V _ZTV7MyToken
0000000000000000 V _ZTV8MyReader
                 U _ZTVN10__cxxabiv117__class_type_infoE
                 U _ZTVN10__cxxabiv120__si_class_type_infoE
                 U _ZTVN10__cxxabiv121__vmi_class_type_infoE
                 U _ZTVNSt7__cxx1115basic_stringbufIcSt11char_traitsIcESaIcEEE
                 U _ZTVNSt7__cxx1118basic_stringstreamIcSt11char_traitsIcESaIcEEE
                 U _ZTVSt13basic_filebufIcSt11char_traitsIcEE
                 U _ZTVSt14basic_ifstreamIcSt11char_traitsIcEE
                 U _ZTVSt15basic_streambufIcSt11char_traitsIcEE
                 U _ZTVSt9basic_iosIcSt11char_traitsIcEE
0000000000000000 T _ZThn64_N12ModelFactory13setCheckpointEP10Checkpoint
0000000000000000 T _ZThn64_N12ModelFactory14saveCheckpointEv
0000000000000000 T _ZThn64_N12ModelFactory15startCheckpointEv
0000000000000000 T _ZThn64_N12ModelFactory17restoreCheckpointEv
0000000000000000 T _ZThn64_N12ModelFactoryD0Ev
0000000000000000 T _ZThn64_N12ModelFactoryD1Ev
                 U _ZdaPv
                 U _ZdlPv
                 U _Znam
                 U _Znwm
                 U __cxa_allocate_exception
                 U __cxa_atexit
                 U __cxa_begin_catch
                 U __cxa_end_catch
                 U __cxa_rethrow
                 U __cxa_throw
                 U __cxa_throw_bad_array_new_length
                 U __dso_handle
                 U __gxx_personality_v0
                 U abort
                 U builtin_mixmodels_definition
                 U builtin_prot_models
                 U exit
                 U isalpha
                 U memcmp
                 U memcpy
                 U memmove
                 U memset
                 U omp_get_wtime
                 U round
                 U strlen
                 U strrchr
                 U verbose_mode

modelfactorymixlen.cpp.o:
0000000000000000 V DW.ref.__gxx_personality_v0
                 U _GLOBAL_OFFSET_TABLE_
                 U _Unwind_Resume
0000000000000000 W _Z10_my_assertPKcS0_S0_i
                 U _Z8outErrorPKcb
0000000000000000 W _Z9quicksortIdiEvPT_iiPT0_
                 U _ZN11ModelMarkov14setEigenvaluesEPd
                 U _ZN11ModelMarkov15setEigenvectorsEPd
                 U _ZN11ModelMarkov22setInverseEigenvectorsEPd
                 U _ZN11ModelMarkov32setInverseEigenvectorsTransposedEPd
                 U _ZN12ModelFactory10targetFunkEPd
                 U _ZN12ModelFactory12computeTransEdiiRdS0_
                 U _ZN12ModelFactory12getVariablesEPd
0000000000000000 W _ZN12ModelFactory12isReversibleEv
                 U _ZN12ModelFactory12setVariablesEPd
                 U _ZN12ModelFactory13setCheckpointEP10Checkpoint
                 U _ZN12ModelFactory14getNParametersEi
                 U _ZN12ModelFactory14saveCheckpointEv
                 U _ZN12ModelFactory15startCheckpointEv
                 U _ZN12ModelFactory17restoreCheckpointEv
                 U _ZN12ModelFactory18optimizeParametersEibdd
                 U _ZN12ModelFactory20isUnstableParametersEv
                 U _ZN12ModelFactory28optimizeParametersGammaInvarEibdd
                 U _ZN12ModelFactory7getNDimEv
0000000000000000 W _ZN12ModelFactory9writeInfoERSo
                 U _ZN12ModelFactoryC2ER6ParamsRNSt7__cxx1112basic_stringIcSt11char_traitsIcESaIcEEEP9PhyloTreeP11ModelsBlock
                 U _ZN12ModelFactoryD2Ev
                 U _ZN12Optimization13optimGradientEiPdS0_
                 U _ZN12Optimization14derivativeFunkEPdS0_
0000000000000000 W _ZN12Optimization15computeFuncDervEdRdS0_
0000000000000000 W _ZN12Optimization15computeFunctionEd
                 U _ZN12Optimization17restartParametersEPdiS0_S0_Pbi
0000000000000000 W _ZN12Optimization20computeFuncDervMultiEPdS0_S0_
                 U _ZN12Optimization9optimFuncEiPd
                 U _ZN15PhyloTreeMixlen16initializeMixlenEdb
                 U _ZN15PhyloTreeMixlen9setMixlenEi
                 U _ZN17CheckpointFactory13endCheckpointEv
0000000000000000 T _ZN18ModelFactoryMixlen14getNParametersEi
0000000000000000 T _ZN18ModelFactoryMixlen18optimizeParametersEibdd
0000000000000000 T _ZN18ModelFactoryMixlen23sortClassesByTreeLengthB5cxx11Ev
0000000000000000 T _ZN18ModelFactoryMixlenC1ER6ParamsRNSt7__cxx1112basic_stringIcSt11char_traitsIcESaIcEEEP9PhyloTreeP11ModelsBlock
0000000000000000 T _ZN18ModelFactoryMixlenC2ER6ParamsRNSt7__cxx1112basic_stringIcSt11char_traitsIcESaIcEEEP9PhyloTreeP11ModelsBlock
0000000000000000 W _ZN18ModelFactoryMixlenD0Ev
0000000000000000 W _ZN18ModelFactoryMixlenD1Ev
0000000000000000 W _ZN18ModelFactoryMixlenD2Ev
                 U _ZNKSt5ctypeIcE13_M_widen_initEv
0000000000000000 W _ZNKSt5ctypeIcE8do_widenEc
                 U _ZNSo3putEc
                 U _ZNSo5flushEv
                 U _ZNSolsEi
                 U _ZNSt8ios_base4InitC1Ev
                 U _ZNSt8ios_base4InitD1Ev
                 U _ZSt16__ostream_insertIcSt11char_traitsIcEERSt13basic_ostreamIT_T0_ES6_PKS3_l
                 U _ZSt16__throw_bad_castv
                 U _ZSt20__throw_length_errorPKc
                 U _ZSt4cerr
                 U _ZSt4cout
                 U _ZStlsISt11char_traitsIcEERSt13basic_ostreamIcT_ES5_PKc
                 U _ZTI12ModelFactory
0000000000000000 V _ZTI18ModelFactoryMixlen
0000000000000000 V _ZTS18ModelFactoryMixlen
0000000000000000 V _ZTV18ModelFactoryMixlen
                 U _ZTVN10__cxxabiv120__si_class_type_infoE
                 U _ZThn64_N12ModelFactory13setCheckpointEP10Checkpoint
                 U _ZThn64_N12ModelFactory14saveCheckpointEv
                 U _ZThn64_N12ModelFactory15startCheckpointEv
                 U _ZThn64_N12ModelFactory17restoreCheckpointEv
0000000000000030 W _ZThn64_N18ModelFactoryMixlenD0Ev
0000000000000020 W _ZThn64_N18ModelFactoryMixlenD1Ev
                 U _ZdlPv
                 U _Znwm
                 U __cxa_atexit
                 U __dso_handle
                 U __gxx_personality_v0
                 U abort
                 U memmove
                 U memset
                 U strrchr

modelhmm.cpp.o:
0000000000000000 V DW.ref.__gxx_personality_v0
                 U _GLOBAL_OFFSET_TABLE_
                 U _Unwind_Resume
0000000000000000 W _Z13aligned_allocIdEPT_m
                 U _Z16print_stacktraceRSoj
                 U _Z20convertInt64ToStringB5cxx11l
                 U _Z8outErrorNSt7__cxx1112basic_stringIcSt11char_traitsIcESaIcEEEb
0000000000000000 W _ZN12Optimization10targetFunkEPd
                 U _ZN12Optimization13optimGradientEiPdS0_
                 U _ZN12Optimization14derivativeFunkEPdS0_
0000000000000000 W _ZN12Optimization15computeFuncDervEdRdS0_
                 U _ZN12Optimization17restartParametersEPdiS0_S0_Pbi
0000000000000000 W _ZN12Optimization20computeFuncDervMultiEPdS0_S0_
                 U _ZN12Optimization9optimFuncEiPd
                 U _ZN12OptimizationC2Ev
                 U _ZN12OptimizationD2Ev
                 U _ZN6Params11getInstanceEv
0000000000000000 W _ZN8ModelHmm11getFullNameB5cxx11Ev
0000000000000000 T _ZN8ModelHmm11setPhyloHmmEP8PhyloHmm
0000000000000000 W _ZN8ModelHmm13getTransitLogEi
0000000000000000 T _ZN8ModelHmm14getNParametersEv
0000000000000000 T _ZN8ModelHmm14showParametersERSo
0000000000000000 T _ZN8ModelHmm15computeFunctionEd
0000000000000000 T _ZN8ModelHmm18computeLogTransitsEv
0000000000000000 T _ZN8ModelHmm18optimizeParametersEd
0000000000000000 T _ZN8ModelHmm21initialize_transitLogEv
0000000000000000 T _ZN8ModelHmm22optimizeParametersByEMEv
0000000000000000 W _ZN8ModelHmm7getNDimEv
0000000000000000 W _ZN8ModelHmm7getNameB5cxx11Ev
0000000000000000 T _ZN8ModelHmmC1Ei
0000000000000000 T _ZN8ModelHmmC2Ei
0000000000000000 T _ZN8ModelHmmD1Ev
0000000000000000 T _ZN8ModelHmmD2Ev
                 U _ZN8PhyloHmm15computeBackLikeEb
                 U _ZN8PhyloHmm26computeMarginalTransitProbEv
                 U _ZNKSt5ctypeIcE13_M_widen_initEv
0000000000000000 W _ZNKSt5ctypeIcE8do_widenEc
                 U _ZNSo3putEc
                 U _ZNSo5flushEv
                 U _ZNSo9_M_insertIdEERSoT_
                 U _ZNSt7__cxx1112basic_stringIcSt11char_traitsIcESaIcEE10_M_replaceEmmPKcm
                 U _ZNSt7__cxx1112basic_stringIcSt11char_traitsIcESaIcEE9_M_appendEPKcm
                 U _ZNSt8ios_base4InitC1Ev
                 U _ZNSt8ios_base4InitD1Ev
                 U _ZSt16__ostream_insertIcSt11char_traitsIcEERSt13basic_ostreamIT_T0_ES6_PKS3_l
                 U _ZSt16__throw_bad_castv
                 U _ZSt20__throw_length_errorPKc
                 U _ZSt4cerr
                 U _ZTI12Optimization
0000000000000000 V _ZTI8ModelHmm
0000000000000000 V _ZTS8ModelHmm
0000000000000000 V _ZTV8ModelHmm
                 U _ZTVN10__cxxabiv120__si_class_type_infoE
                 U _ZdlPv
                 U __cxa_atexit
                 U __dso_handle
                 U __gxx_personality_v0
                 U free
                 U log
                 U memcpy
                 U posix_memalign

modelhmmgm.cpp.o:
0000000000000000 V DW.ref.__gxx_personality_v0
                 U _GLOBAL_OFFSET_TABLE_
                 U _Unwind_Resume
0000000000000000 W _Z13aligned_allocIdEPT_m
                 U _Z16print_stacktraceRSoj
                 U _Z20convertInt64ToStringB5cxx11l
                 U _Z8outErrorNSt7__cxx1112basic_stringIcSt11char_traitsIcESaIcEEEb
0000000000000000 W _ZN10ModelHmmGm11getFullNameB5cxx11Ev
0000000000000000 T _ZN10ModelHmmGm12getVariablesEPd
0000000000000000 T _ZN10ModelHmmGm12setVariablesEPd
0000000000000000 T _ZN10ModelHmmGm14getNParametersEv
0000000000000000 T _ZN10ModelHmmGm14showParametersERSo
0000000000000000 T _ZN10ModelHmmGm18computeLogTransitsEv
0000000000000000 T _ZN10ModelHmmGm18optimizeParametersEd
0000000000000000 T _ZN10ModelHmmGm21initialize_transitLogEv
0000000000000000 T _ZN10ModelHmmGm22optimizeParametersByEMEv
0000000000000000 T _ZN10ModelHmmGm25computeNormalizedTransitsEv
0000000000000000 W _ZN10ModelHmmGm7getNDimEv
0000000000000000 W _ZN10ModelHmmGm7getNameB5cxx11Ev
0000000000000000 T _ZN10ModelHmmGm9setBoundsEPdS0_Pb
0000000000000000 T _ZN10ModelHmmGmC1Ei
0000000000000000 T _ZN10ModelHmmGmC2Ei
0000000000000000 T _ZN10ModelHmmGmD1Ev
0000000000000000 T _ZN10ModelHmmGmD2Ev
0000000000000000 W _ZN12Optimization10targetFunkEPd
                 U _ZN12Optimization13optimGradientEiPdS0_
                 U _ZN12Optimization14derivativeFunkEPdS0_
0000000000000000 W _ZN12Optimization15computeFuncDervEdRdS0_
                 U _ZN12Optimization17restartParametersEPdiS0_S0_Pbi
0000000000000000 W _ZN12Optimization20computeFuncDervMultiEPdS0_S0_
                 U _ZN12Optimization9optimFuncEiPd
                 U _ZN6Params11getInstanceEv
0000000000000000 W _ZN8ModelHmm13getTransitLogEi
                 U _ZN8ModelHmm15computeFunctionEd
                 U _ZN8ModelHmmC2Ei
                 U _ZN8ModelHmmD2Ev
                 U _ZN8PhyloHmm15computeBackLikeEb
                 U _ZN8PhyloHmm26computeMarginalTransitProbEv
                 U _ZNKSt5ctypeIcE13_M_widen_initEv
0000000000000000 W _ZNKSt5ctypeIcE8do_widenEc
                 U _ZNSo3putEc
                 U _ZNSo5flushEv
                 U _ZNSo9_M_insertIdEERSoT_
                 U _ZNSt7__cxx1112basic_stringIcSt11char_traitsIcESaIcEE10_M_replaceEmmPKcm
                 U _ZNSt7__cxx1112basic_stringIcSt11char_traitsIcESaIcEE9_M_appendEPKcm
                 U _ZNSt7__cxx1112basic_stringIcSt11char_traitsIcESaIcEE9_M_createERmm
                 U _ZNSt8ios_base4InitC1Ev
                 U _ZNSt8ios_base4InitD1Ev
                 U _ZSt16__ostream_insertIcSt11char_traitsIcEERSt13basic_ostreamIT_T0_ES6_PKS3_l
                 U _ZSt16__throw_bad_castv
                 U _ZSt20__throw_length_errorPKc
                 U _ZSt4cerr
0000000000000000 V _ZTI10ModelHmmGm
                 U _ZTI8ModelHmm
0000000000000000 V _ZTS10ModelHmmGm
0000000000000000 V _ZTV10ModelHmmGm
                 U _ZTVN10__cxxabiv120__si_class_type_infoE
                 U _ZdlPv
                 U __cxa_atexit
                 U __dso_handle
                 U __gxx_personality_v0
                 U free
                 U log
                 U memcpy
                 U memset
                 U posix_memalign

modelhmmtm.cpp.o:
0000000000000000 V DW.ref.__gxx_personality_v0
                 U _GLOBAL_OFFSET_TABLE_
                 U _Unwind_Resume
0000000000000000 W _Z13aligned_allocIdEPT_m
0000000000000000 W _Z13aligned_allocIiEPT_m
                 U _Z16print_stacktraceRSoj
                 U _Z20convertInt64ToStringB5cxx11l
                 U _Z8outErrorNSt7__cxx1112basic_stringIcSt11char_traitsIcESaIcEEEb
0000000000000000 W _ZN10ModelHmmTm11getFullNameB5cxx11Ev
0000000000000000 T _ZN10ModelHmmTm12getVariablesEPd
0000000000000000 T _ZN10ModelHmmTm12setVariablesEPd
0000000000000000 T _ZN10ModelHmmTm13getTransitLogEi
0000000000000000 T _ZN10ModelHmmTm14getNParametersEv
0000000000000000 T _ZN10ModelHmmTm14showParametersERSo
0000000000000000 T _ZN10ModelHmmTm14updateTransitsEv
0000000000000000 T _ZN10ModelHmmTm18computeLogTransitsEv
0000000000000000 T _ZN10ModelHmmTm18optimizeParametersEd
0000000000000000 T _ZN10ModelHmmTm21initialize_transitLogEv
0000000000000000 T _ZN10ModelHmmTm21initialize_transit_idEPiiPNSt7__cxx1112basic_stringIcSt11char_traitsIcESaIcEEE
0000000000000000 T _ZN10ModelHmmTm22optimizeParametersByEMEv
0000000000000000 T _ZN10ModelHmmTm25computeNormalizedTransitsEv
0000000000000000 W _ZN10ModelHmmTm7getNDimEv
0000000000000000 W _ZN10ModelHmmTm7getNameB5cxx11Ev
0000000000000000 T _ZN10ModelHmmTm9setBoundsEPdS0_Pb
0000000000000000 T _ZN10ModelHmmTmC1EiiPiiPNSt7__cxx1112basic_stringIcSt11char_traitsIcESaIcEEE
0000000000000000 T _ZN10ModelHmmTmC2EiiPiiPNSt7__cxx1112basic_stringIcSt11char_traitsIcESaIcEEE
0000000000000000 T _ZN10ModelHmmTmD1Ev
0000000000000000 T _ZN10ModelHmmTmD2Ev
0000000000000000 W _ZN12Optimization10targetFunkEPd
                 U _ZN12Optimization13optimGradientEiPdS0_
                 U _ZN12Optimization14derivativeFunkEPdS0_
0000000000000000 W _ZN12Optimization15computeFuncDervEdRdS0_
                 U _ZN12Optimization17restartParametersEPdiS0_S0_Pbi
0000000000000000 W _ZN12Optimization20computeFuncDervMultiEPdS0_S0_
                 U _ZN12Optimization9optimFuncEiPd
                 U _ZN6Params11getInstanceEv
                 U _ZN8ModelHmm15computeFunctionEd
                 U _ZN8ModelHmmC2Ei
                 U _ZN8ModelHmmD2Ev
                 U _ZN8PhyloHmm15computeBackLikeEb
                 U _ZN8PhyloHmm26computeMarginalTransitProbEv
                 U _ZNKSt5ctypeIcE13_M_widen_initEv
0000000000000000 W _ZNKSt5ctypeIcE8do_widenEc
                 U _ZNSo3putEc
                 U _ZNSo5flushEv
                 U _ZNSo9_M_insertIdEERSoT_
0000000000000000 W _ZNSt6vectorINSt7__cxx1112basic_stringIcSt11char_traitsIcESaIcEEESaIS5_EE17_M_realloc_insertIJS5_EEEvN9__gnu_cxx17__normal_iteratorIPS5_S7_EEDpOT_
                 U _ZNSt7__cxx1112basic_stringIcSt11char_traitsIcESaIcEE10_M_replaceEmmPKcm
                 U _ZNSt7__cxx1112basic_stringIcSt11char_traitsIcESaIcEE9_M_appendEPKcm
                 U _ZNSt7__cxx1112basic_stringIcSt11char_traitsIcESaIcEE9_M_createERmm
                 U _ZNSt8ios_base4InitC1Ev
                 U _ZNSt8ios_base4InitD1Ev
                 U _ZSt16__ostream_insertIcSt11char_traitsIcEERSt13basic_ostreamIT_T0_ES6_PKS3_l
                 U _ZSt16__throw_bad_castv
                 U _ZSt20__throw_length_errorPKc
                 U _ZSt4cerr
0000000000000000 V _ZTI10ModelHmmTm
                 U _ZTI8ModelHmm
0000000000000000 V _ZTS10ModelHmmTm
0000000000000000 V _ZTV10ModelHmmTm
                 U _ZTVN10__cxxabiv120__si_class_type_infoE
                 U _ZdaPv
                 U _ZdlPv
                 U _Znam
                 U _Znwm
                 U __cxa_atexit
                 U __cxa_throw_bad_array_new_length
                 U __dso_handle
                 U __gxx_personality_v0
                 U free
                 U log
                 U memcpy
                 U memset
                 U posix_memalign

modelliemarkov.cpp.o:
0000000000000000 V DW.ref.__gxx_personality_v0
                 U _GLOBAL_OFFSET_TABLE_
                 U _Unwind_Resume
0000000000000000 W _Z10_my_assertPKcS0_S0_i
                 U _Z10outWarningNSt7__cxx1112basic_stringIcSt11char_traitsIcESaIcEEE
                 U _Z10outWarningPKc
                 U _Z18convertIntToStringB5cxx11i
                 U _Z21convertDoubleToStringB5cxx11d
                 U _Z21normalize_frequenciesPdidb
                 U _Z37convert_double_vec_with_distributionsPKcRSt6vectorIdSaIdEEbc
                 U _Z37random_frequencies_from_distributionsPdiNSt7__cxx1112basic_stringIcSt11char_traitsIcESaIcEEE
                 U _Z39convert_double_array_with_distributionsNSt7__cxx1112basic_stringIcSt11char_traitsIcESaIcEEEPdibc
                 U _Z47convert_double_with_distribution_and_upperboundNSt7__cxx1112basic_stringIcSt11char_traitsIcESaIcEEEdb
                 U _Z47random_number_from_distribution_with_upperboundNSt7__cxx1112basic_stringIcSt11char_traitsIcESaIcEEEdb
                 U _Z8outErrorNSt7__cxx1112basic_stringIcSt11char_traitsIcESaIcEEEb
                 U _Z8outErrorPKcb
0000000000000000 u _ZGVZN5Eigen8internal20manage_caching_sizesENS_6ActionEPlS2_S2_E12m_cacheSizes
                 U _ZN10Checkpoint11startStructENSt7__cxx1112basic_stringIcSt11char_traitsIcESaIcEEE
0000000000000000 W _ZN10Checkpoint8putArrayIdEEvNSt7__cxx1112basic_stringIcSt11char_traitsIcESaIcEEEiPT_
                 U _ZN10ModelSubst12computeTransEdiii
                 U _ZN10ModelSubst12computeTransEdiiiRdS0_
0000000000000000 W _ZN10ModelSubst12getNMixturesEv
0000000000000000 W _ZN10ModelSubst13fixParametersEb
0000000000000000 W _ZN10ModelSubst13getDNAErrProbEi
0000000000000000 W _ZN10ModelSubst13getPtnModelIDEi
0000000000000000 W _ZN10ModelSubst14isMixtureSameQEv
                 U _ZN10ModelSubst14newTransMatrixEv
0000000000000000 W _ZN10ModelSubst15containDNAerrorEv
0000000000000000 W _ZN10ModelSubst15getMixtureClassEi
0000000000000000 W _ZN10ModelSubst15setMixtureClassEiPS_
0000000000000000 W _ZN10ModelSubst16getMixtureWeightEi
0000000000000000 W _ZN10ModelSubst16getMutationModelEv
0000000000000000 W _ZN10ModelSubst16setMixtureWeightEid
0000000000000000 W _ZN10ModelSubst16setOptimizeStepsEi
0000000000000000 W _ZN10ModelSubst18getTransMatrixSizeEv
0000000000000000 W _ZN10ModelSubst19isPolymorphismAwareEv
0000000000000000 W _ZN10ModelSubst19isSiteSpecificModelEv
0000000000000000 W _ZN10ModelSubst19setFixMixtureWeightEb
                 U _ZN10ModelSubst20computeTipLikelihoodEjPd
0000000000000000 W _ZN10ModelSubst6reportERSo
0000000000000000 W _ZN10ModelSubst7isFusedEv
0000000000000000 W _ZN10ModelSubst9isMixtureEv
0000000000000000 W _ZN11ModelMarkov10getNParamsEv
                 U _ZN11ModelMarkov10getQMatrixEPdi
0000000000000000 W _ZN11ModelMarkov10setNParamsEi
                 U _ZN11ModelMarkov10targetFunkEPd
0000000000000000 W _ZN11ModelMarkov11getFreqTypeEv
                 U _ZN11ModelMarkov11getNDimFreqEv
                 U _ZN11ModelMarkov12computeTransEdii
                 U _ZN11ModelMarkov12computeTransEdiiRdS0_
                 U _ZN11ModelMarkov13getNameParamsB5cxx11Eb
                 U _ZN11ModelMarkov13getRateMatrixEPd
                 U _ZN11ModelMarkov13readStateFreqENSt7__cxx1112basic_stringIcSt11char_traitsIcESaIcEEE
                 U _ZN11ModelMarkov13readStateFreqERSi
                 U _ZN11ModelMarkov13setRateMatrixEPd
                 U _ZN11ModelMarkov13setReversibleEbb
                 U _ZN11ModelMarkov14saveCheckpointEv
                 U _ZN11ModelMarkov15init_state_freqE13StateFreqType
0000000000000000 W _ZN11ModelMarkov15writeParametersERSo
                 U _ZN11ModelMarkov16computeTransDervEdPdS0_S0_i
0000000000000000 W _ZN11ModelMarkov17getMemoryRequiredEv
                 U _ZN11ModelMarkov17getNumRateEntriesEv
                 U _ZN11ModelMarkov17getStateFrequencyEPdi
                 U _ZN11ModelMarkov17restoreCheckpointEv
                 U _ZN11ModelMarkov17setFullRateMatrixEPdS0_
                 U _ZN11ModelMarkov17setStateFrequencyEPd
                 U _ZN11ModelMarkov18computeTransMatrixEdPdii
                 U _ZN11ModelMarkov18optimizeParametersEd
                 U _ZN11ModelMarkov19adaptStateFrequencyEPd
                 U _ZN11ModelMarkov19decomposeRateMatrixEv
                 U _ZN11ModelMarkov20get_num_states_totalEv
                 U _ZN11ModelMarkov20isUnstableParametersEv
                 U _ZN11ModelMarkov21update_eigen_pointersEPdS0_S0_S0_
                 U _ZN11ModelMarkov24computeTransMatrixNonrevEdPdi
                 U _ZN11ModelMarkov25decomposeRateMatrixNonrevEv
                 U _ZN11ModelMarkov4initE13StateFreqType
                 U _ZN11ModelMarkov7freeMemEv
                 U _ZN11ModelMarkov7getNDimEv
                 U _ZN11ModelMarkov7setTreeEP9PhyloTree
                 U _ZN11ModelMarkov9readRatesENSt7__cxx1112basic_stringIcSt11char_traitsIcESaIcEEE
                 U _ZN11ModelMarkov9readRatesERSi
                 U _ZN11ModelMarkovC2EP9PhyloTreebb
                 U _ZN11ModelMarkovD2Ev
                 U _ZN12Optimization13optimGradientEiPdS0_
                 U _ZN12Optimization14derivativeFunkEPdS0_
0000000000000000 W _ZN12Optimization15computeFuncDervEdRdS0_
0000000000000000 W _ZN12Optimization15computeFunctionEd
0000000000000000 W _ZN12Optimization20computeFuncDervMultiEPdS0_S0_
                 U _ZN12Optimization9optimFuncEiPd
0000000000000000 W _ZN14ModelLieMarkov11isLieMarkovEv
0000000000000000 T _ZN14ModelLieMarkov12getVariablesEPd
0000000000000000 T _ZN14ModelLieMarkov12isReversibleEv
0000000000000000 T _ZN14ModelLieMarkov12mappingFreqsE13StateFreqTypePd
0000000000000000 T _ZN14ModelLieMarkov12setVariablesEPd
0000000000000000 T _ZN14ModelLieMarkov13validFreqTypeEv
0000000000000000 T _ZN14ModelLieMarkov14parseModelNameENSt7__cxx1112basic_stringIcSt11char_traitsIcESaIcEEEPiS6_
0000000000000000 T _ZN14ModelLieMarkov14saveCheckpointEv
0000000000000000 T _ZN14ModelLieMarkov14validModelNameENSt7__cxx1112basic_stringIcSt11char_traitsIcESaIcEEE
0000000000000000 T _ZN14ModelLieMarkov15startCheckpointEv
0000000000000000 T _ZN14ModelLieMarkov17restartParametersEPdiS0_S0_Pbi
0000000000000000 T _ZN14ModelLieMarkov17restoreCheckpointEv
0000000000000000 T _ZN14ModelLieMarkov18computeTransMatrixEdPdii
0000000000000000 T _ZN14ModelLieMarkov19decomposeRateMatrixEv
0000000000000000 T _ZN14ModelLieMarkov20initStateFreqsAliSimE13StateFreqType
0000000000000000 T _ZN14ModelLieMarkov21getLieMarkovModelInfoENSt7__cxx1112basic_stringIcSt11char_traitsIcESaIcEEERS5_S6_RiS7_R13StateFreqType
0000000000000000 T _ZN14ModelLieMarkov28decomposeRateMatrixEigen3libEv
0000000000000000 T _ZN14ModelLieMarkov29decomposeRateMatrixClosedFormEv
0000000000000000 T _ZN14ModelLieMarkov4initEPKcNSt7__cxx1112basic_stringIcSt11char_traitsIcESaIcEEE13StateFreqTypeS7_
0000000000000000 T _ZN14ModelLieMarkov7getNameB5cxx11Ev
0000000000000000 T _ZN14ModelLieMarkov8setBasisEv
0000000000000000 T _ZN14ModelLieMarkov8setRatesEv
0000000000000000 T _ZN14ModelLieMarkov9readFreqsE13StateFreqTypeNSt7__cxx1112basic_stringIcSt11char_traitsIcESaIcEEE
0000000000000000 T _ZN14ModelLieMarkov9setBoundsEPdS0_Pb
0000000000000000 T _ZN14ModelLieMarkov9writeInfoERSo
0000000000000000 T _ZN14ModelLieMarkovC1ENSt7__cxx1112basic_stringIcSt11char_traitsIcESaIcEEEP9PhyloTreeS5_13StateFreqTypeS5_
0000000000000000 T _ZN14ModelLieMarkovC2ENSt7__cxx1112basic_stringIcSt11char_traitsIcESaIcEEEP9PhyloTreeS5_13StateFreqTypeS5_
0000000000000000 T _ZN14ModelLieMarkovD0Ev
0000000000000000 T _ZN14ModelLieMarkovD1Ev
0000000000000000 T _ZN14ModelLieMarkovD2Ev
                 U _ZN17CheckpointFactory13endCheckpointEv
                 U _ZN17CheckpointFactory13setCheckpointEP10Checkpoint
                 U _ZN18EigenDecomposition17computeRateMatrixEPPdS0_i
0000000000000000 W _ZN5Eigen10MatrixBaseINS_5BlockINS_6MatrixISt7complexIdELi4ELi4ELi0ELi4ELi4EEELi4ELi1ELb1EEEE9normalizeEv
0000000000000000 W _ZN5Eigen10MatrixBaseINS_5BlockINS_6MatrixIdLi4ELi4ELi0ELi4ELi4EEELi4ELin1ELb1EEEE26applyHouseholderOnTheRightINS_11VectorBlockINS1_IS3_Li4ELi1ELb1EEELin1EEEEEvRKT_RKdPd
0000000000000000 W _ZN5Eigen10MatrixBaseINS_5BlockINS_6MatrixIdLi4ELi4ELi0ELi4ELi4EEELin1ELin1ELb0EEEE25applyHouseholderOnTheLeftINS1_IKS3_Lin1ELi1ELb0EEEEEvRKT_RKdPd
0000000000000000 W _ZN5Eigen10MatrixBaseINS_5BlockINS_6MatrixIdLi4ELi4ELi0ELi4ELi4EEELin1ELin1ELb0EEEE25applyHouseholderOnTheLeftINS2_IdLi1ELi1ELi0ELi1ELi1EEEEEvRKT_RKdPd
0000000000000000 W _ZN5Eigen10MatrixBaseINS_5BlockINS_6MatrixIdLi4ELi4ELi0ELi4ELi4EEELin1ELin1ELb0EEEE25applyHouseholderOnTheLeftINS2_IdLi2ELi1ELi0ELi2ELi1EEEEEvRKT_RKdPd
0000000000000000 W _ZN5Eigen10MatrixBaseINS_5BlockINS_6MatrixIdLi4ELi4ELi0ELi4ELi4EEELin1ELin1ELb0EEEE25applyHouseholderOnTheLeftINS_11VectorBlockINS1_IS3_Li4ELi1ELb1EEELin1EEEEEvRKT_RKdPd
0000000000000000 W _ZN5Eigen10MatrixBaseINS_5BlockINS_6MatrixIdLi4ELi4ELi0ELi4ELi4EEELin1ELin1ELb0EEEE26applyHouseholderOnTheRightINS1_IKS3_Lin1ELi1ELb0EEEEEvRKT_RKdPd
0000000000000000 W _ZN5Eigen10MatrixBaseINS_5BlockINS_6MatrixIdLi4ELi4ELi0ELi4ELi4EEELin1ELin1ELb0EEEE26applyHouseholderOnTheRightINS2_IdLi1ELi1ELi0ELi1ELi1EEEEEvRKT_RKdPd
0000000000000000 W _ZN5Eigen10MatrixBaseINS_5BlockINS_6MatrixIdLi4ELi4ELi0ELi4ELi4EEELin1ELin1ELb0EEEE26applyHouseholderOnTheRightINS2_IdLi2ELi1ELi0ELi2ELi1EEEEEvRKT_RKdPd
0000000000000000 W _ZN5Eigen11EigenSolverINS_6MatrixIdLi4ELi4ELi0ELi4ELi4EEEE21doComputeEigenvectorsEv
0000000000000000 W _ZN5Eigen23HessenbergDecompositionINS_6MatrixIdLi4ELi4ELi0ELi4ELi4EEEE8_computeERS2_RNS1_IdLi3ELi1ELi0ELi3ELi1EEERNS1_IdLi1ELi4ELi1ELi1ELi4EEE
0000000000000000 W _ZN5Eigen8internal15queryCacheSizesERiS1_S1_
0000000000000000 W _ZN5Eigen8internal16determinant_implINS_3MapINS_6MatrixISt7complexIdELi4ELi4ELi0ELi4ELi4EEELi16ENS_6StrideILi0ELi0EEEEELi4EE3runERKS9_
0000000000000000 W _ZN5Eigen8internal17product_evaluatorINS_7ProductINS2_INS_3MapINS_6MatrixISt7complexIdELi4ELi4ELi0ELi4ELi4EEELi16ENS_6StrideILi0ELi0EEEEENS4_IdLi4ELi4ELi0ELi4ELi4EEELi0EEESA_Li1EEELi3ENS_10DenseShapeESE_S6_S6_EC1ERKSD_
0000000000000000 W _ZN5Eigen8internal17product_evaluatorINS_7ProductINS2_INS_3MapINS_6MatrixISt7complexIdELi4ELi4ELi0ELi4ELi4EEELi16ENS_6StrideILi0ELi0EEEEENS4_IdLi4ELi4ELi0ELi4ELi4EEELi0EEESA_Li1EEELi3ENS_10DenseShapeESE_S6_S6_EC2ERKSD_
0000000000000000 W _ZN5Eigen8internal19throw_std_bad_allocEv
0000000000000000 W _ZN5Eigen8internal21compute_inverse_size4ILi1ESt7complexIdENS_3MapINS_6MatrixIS3_Li4ELi4ELi0ELi4ELi4EEELi16ENS_6StrideILi0ELi0EEEEES9_E3runERKS9_RS9_
0000000000000000 W _ZN5Eigen8internal21dense_assignment_loopINS0_31generic_dense_assignment_kernelINS0_9evaluatorINS_5BlockINS4_INS_6MatrixIdLi4ELi4ELi0ELi4ELi4EEELin1ELin1ELb0EEELin1ELi2ELb0EEEEENS3_INS_7ProductINS_13CwiseBinaryOpINS0_17scalar_product_opIddEEKNS_14CwiseNullaryOpINS0_18scalar_constant_opIdEEKNS5_IdLin1ELi1ELi0ELi4ELi1EEEEEKNS_3MapISH_Li0ENS_6StrideILi0ELi0EEEEEEENS_9TransposeIKNS5_IdLi2ELi1ELi0ELi2ELi1EEEEELi1EEEEENS0_13sub_assign_opIddEELi0EEELi4ELi0EE3runERSZ_
0000000000000000 W _ZN5Eigen8internal21dense_assignment_loopINS0_31generic_dense_assignment_kernelINS0_9evaluatorINS_5BlockINS4_INS_6MatrixIdLi4ELi4ELi0ELi4ELi4EEELin1ELin1ELb0EEELin1ELin1ELb0EEEEENS3_INS_7ProductINS_13CwiseBinaryOpINS0_17scalar_product_opIddEEKNS_14CwiseNullaryOpINS0_18scalar_constant_opIdEEKNS5_IdLin1ELi1ELi0ELi4ELi1EEEEEKNS4_IKS6_Lin1ELi1ELb0EEEEENS_3MapINS5_IdLi1ELin1ELi1ELi1ELi4EEELi0ENS_6StrideILi0ELi0EEEEELi1EEEEENS0_13sub_assign_opIddEELi0EEELi4ELi0EE3runERSY_
0000000000000000 W _ZN5Eigen8internal21dense_assignment_loopINS0_31generic_dense_assignment_kernelINS0_9evaluatorINS_5BlockINS4_INS_6MatrixIdLi4ELi4ELi0ELi4ELi4EEELin1ELin1ELb0EEELin1ELin1ELb0EEEEENS3_INS_7ProductINS_13CwiseBinaryOpINS0_17scalar_product_opIddEEKNS_14CwiseNullaryOpINS0_18scalar_constant_opIdEEKNS5_IdLin1ELi1ELi0ELi4ELi1EEEEEKNS4_INS4_IS6_Li4ELi1ELb1EEELin1ELi1ELb0EEEEENS_3MapINS5_IdLi1ELin1ELi1ELi1ELi4EEELi0ENS_6StrideILi0ELi0EEEEELi1EEEEENS0_13sub_assign_opIddEELi0EEELi4ELi0EE3runERSY_
0000000000000000 W _ZN5Eigen8internal21dense_assignment_loopINS0_31generic_dense_assignment_kernelINS0_9evaluatorINS_5BlockINS4_INS_6MatrixIdLi4ELi4ELi0ELi4ELi4EEELin1ELin1ELb0EEELin1ELin1ELb0EEEEENS3_INS_7ProductINS_13CwiseBinaryOpINS0_17scalar_product_opIddEEKNS_14CwiseNullaryOpINS0_18scalar_constant_opIdEEKNS5_IdLin1ELi1ELi0ELi4ELi1EEEEEKNS_3MapISH_Li0ENS_6StrideILi0ELi0EEEEEEENS_9TransposeIKNS4_IKS6_Lin1ELi1ELb0EEEEELi1EEEEENS0_13sub_assign_opIddEELi0EEELi4ELi0EE3runERS10_
0000000000000000 W _ZN5Eigen8internal21dense_assignment_loopINS0_31generic_dense_assignment_kernelINS0_9evaluatorINS_5BlockINS_6MatrixIdLi4ELi4ELi0ELi4ELi4EEELin1ELin1ELb0EEEEENS3_INS_14CwiseNullaryOpINS0_18scalar_constant_opIdEENS5_IdLin1ELin1ELi0ELi4ELi4EEEEEEENS0_13div_assign_opIddEELi0EEELi4ELi0EE3runERSH_
0000000000000000 W _ZN5Eigen8internal21dense_assignment_loopINS0_31generic_dense_assignment_kernelINS0_9evaluatorINS_5BlockINS_6MatrixIdLi4ELi4ELi0ELi4ELi4EEELin1ELin1ELb0EEEEENS3_INS_14CwiseNullaryOpINS0_18scalar_constant_opIdEENS5_IdLin1ELin1ELi0ELi4ELi4EEEEEEENS0_13mul_assign_opIddEELi0EEELi4ELi0EE3runERSH_
0000000000000000 W _ZN5Eigen8internal21dense_assignment_loopINS0_31generic_dense_assignment_kernelINS0_9evaluatorINS_6MatrixISt7complexIdELi4ELi4ELi0ELi4ELi4EEEEENS3_INS_7ProductINS9_INS_3MapIS7_Li16ENS_6StrideILi0ELi0EEEEENS4_IdLi4ELi4ELi0ELi4ELi4EEELi0EEESD_Li1EEEEENS0_9assign_opIS6_S6_EELi0EEELi2ELi0EE3runERSK_
0000000000000000 W _ZN5Eigen8internal26call_dense_assignment_loopINS_3MapINS_6MatrixISt7complexIdELi4ELi4ELi0ELi4ELi4EEELi16ENS_6StrideILi0ELi0EEEEES6_NS0_9assign_opIS5_S5_EEEEvRT_RKT0_RKT1_
0000000000000000 W _ZN5Eigen8internal26call_dense_assignment_loopINS_3MapINS_6MatrixIdLi1ELin1ELi1ELi1ELi4EEELi0ENS_6StrideILi0ELi0EEEEENS_7ProductINS_9TransposeIKNS_5BlockIKNS3_IdLi4ELi4ELi0ELi4ELi4EEELin1ELi1ELb0EEEEENSA_INSA_ISB_Lin1ELin1ELb0EEELin1ELin1ELb0EEELi1EEENS0_9assign_opIddEEEEvRT_RKT0_RKT1_
0000000000000000 W _ZN5Eigen8internal26call_dense_assignment_loopINS_3MapINS_6MatrixIdLi1ELin1ELi1ELi1ELi4EEELi0ENS_6StrideILi0ELi0EEEEENS_7ProductINS_9TransposeIKNS_5BlockINSA_INS3_IdLi4ELi4ELi0ELi4ELi4EEELi4ELi1ELb1EEELin1ELi1ELb0EEEEENSA_INSA_ISB_Lin1ELin1ELb0EEELin1ELin1ELb0EEELi1EEENS0_9assign_opIddEEEEvRT_RKT0_RKT1_
0000000000000000 W _ZN5Eigen8internal26call_dense_assignment_loopINS_5BlockINS2_INS_6MatrixIdLi4ELi4ELi0ELi4ELi4EEELin1ELin1ELb0EEELin1ELi1ELb1EEENS_13CwiseBinaryOpINS0_17scalar_product_opIddEEKNS_14CwiseNullaryOpINS0_18scalar_constant_opIdEEKNS3_IdLin1ELi1ELi0ELi4ELi1EEEEEKNS_3MapISD_Li0ENS_6StrideILi0ELi0EEEEEEENS0_13sub_assign_opIddEEEEvRT_RKT0_RKT1_
0000000000000000 W _ZN5Eigen8internal26call_dense_assignment_loopINS_5BlockINS2_INS_6MatrixIdLi4ELi4ELi0ELi4ELi4EEELin1ELin1ELb0EEELin1ELin1ELb0EEENS_7ProductINS_13CwiseBinaryOpINS0_17scalar_product_opIddEEKNS_14CwiseNullaryOpINS0_18scalar_constant_opIdEEKNS3_IdLin1ELi1ELi0ELi4ELi1EEEEEKNS2_IKS4_Lin1ELi1ELb0EEEEENS_3MapINS3_IdLi1ELin1ELi1ELi1ELi4EEELi0ENS_6StrideILi0ELi0EEEEELi1EEENS0_13sub_assign_opIddEEEEvRT_RKT0_RKT1_
0000000000000000 W _ZN5Eigen8internal26call_dense_assignment_loopINS_5BlockINS2_INS_6MatrixIdLi4ELi4ELi0ELi4ELi4EEELin1ELin1ELb0EEELin1ELin1ELb0EEENS_7ProductINS_13CwiseBinaryOpINS0_17scalar_product_opIddEEKNS_14CwiseNullaryOpINS0_18scalar_constant_opIdEEKNS3_IdLin1ELi1ELi0ELi4ELi1EEEEEKNS2_INS2_IS4_Li4ELi1ELb1EEELin1ELi1ELb0EEEEENS_3MapINS3_IdLi1ELin1ELi1ELi1ELi4EEELi0ENS_6StrideILi0ELi0EEEEELi1EEENS0_13sub_assign_opIddEEEEvRT_RKT0_RKT1_
0000000000000000 W _ZN5Eigen8internal26call_dense_assignment_loopINS_5BlockINS2_INS_6MatrixIdLi4ELi4ELi0ELi4ELi4EEELin1ELin1ELb0EEELin1ELin1ELb0EEENS_7ProductINS_13CwiseBinaryOpINS0_17scalar_product_opIddEEKNS_14CwiseNullaryOpINS0_18scalar_constant_opIdEEKNS3_IdLin1ELi1ELi0ELi4ELi1EEEEEKNS_3MapISE_Li0ENS_6StrideILi0ELi0EEEEEEENS_9TransposeIKNS2_IKS4_Lin1ELi1ELb0EEEEELi1EEENS0_13sub_assign_opIddEEEEvRT_RKT0_RKT1_
0000000000000000 W _ZN5Eigen8internal26call_dense_assignment_loopINS_5BlockINS2_INS_6MatrixIdLin1ELin1ELi1ELin1ELin1EEELi1ELin1ELb1EEELi1ELin1ELb0EEENS_13CwiseBinaryOpINS0_17scalar_product_opIddEEKNS_14CwiseNullaryOpINS0_18scalar_constant_opIdEEKNS3_IdLi1ELin1ELi1ELi1ELin1EEEEEKS6_EENS0_13add_assign_opIddEEEEvRT_RKT0_RKT1_
0000000000000000 W _ZN5Eigen8internal27queryCacheSizes_intel_codesERiS1_S1_
0000000000000000 W _ZN5Eigen8internal29general_matrix_vector_productIldNS0_22const_blas_data_mapperIdlLi1EEELi1ELb0EdS3_Lb0ELi1EE3runEllRKS3_S6_Pdld
0000000000000000 W _ZN5Eigen8internal32product_triangular_matrix_matrixIdlLi1ELb1ELi0ELb0ELi0ELb0ELi0ELi1ELi0EE3runElllPKdlS4_lPdllRS3_RNS0_15level3_blockingIddEE
0000000000000000 W _ZN5Eigen8internal32product_triangular_matrix_matrixIdlLi2ELb1ELi1ELb0ELi0ELb0ELi0ELi1ELi0EE3runElllPKdlS4_lPdllRS3_RNS0_15level3_blockingIddEE
0000000000000000 W _ZN5Eigen8internal32product_triangular_matrix_matrixIdlLi5ELb1ELi0ELb0ELi0ELb0ELi0ELi1ELi0EE3runElllPKdlS4_lPdllRS3_RNS0_15level3_blockingIddEE
0000000000000000 W _ZN5Eigen8internal32product_triangular_matrix_matrixIdlLi6ELb1ELi1ELb0ELi0ELb0ELi0ELi1ELi0EE3runElllPKdlS4_lPdllRS3_RNS0_15level3_blockingIddEE
0000000000000000 W _ZN5Eigen8internal32triangular_matrix_vector_productIlLi6EdLb0EdLb0ELi1ELi0EE3runEllPKdlS4_lPdlRS3_
0000000000000000 W _ZN5Eigen8internal35apply_block_householder_on_the_leftINS_5BlockINS_6MatrixIdLi4ELi4ELi0ELi4ELi4EEELin1ELin1ELb0EEES5_NS_11VectorBlockIKNS3_IdLi3ELi1ELi0ELi3ELi1EEELin1EEEEEvRT_RKT0_RKT1_b
0000000000000000 W _ZN5Eigen8internal37evaluateProductBlockingSizesHeuristicIddLi4ElEEvRT2_S3_S3_S2_
0000000000000000 W _ZN5Eigen8internal40make_block_householder_triangular_factorINS_6MatrixIdLin1ELin1ELi1ELin1ELin1EEENS_5BlockINS2_IdLi4ELi4ELi0ELi4ELi4EEELin1ELin1ELb0EEENS4_IKNS2_IdLi3ELi1ELi0ELi3ELi1EEELin1ELi1ELb0EEEEEvRT_RKT0_RKT1_
0000000000000000 W _ZN5Eigen8internal40make_block_householder_triangular_factorINS_6MatrixIdLin1ELin1ELi1ELin1ELin1EEENS_5BlockINS2_IdLi4ELi4ELi0ELi4ELi4EEELin1ELin1ELb0EEENS_11VectorBlockIKNS2_IdLi3ELi1ELi0ELi3ELi1EEELin1EEEEEvRT_RKT0_RKT1_
0000000000000000 W _ZN5Eigen9RealSchurINS_6MatrixIdLi4ELi4ELi0ELi4ELi4EEEE12computeShiftEllRdRNS1_IdLi3ELi1ELi0ELi3ELi1EEE
0000000000000000 W _ZN5Eigen9RealSchurINS_6MatrixIdLi4ELi4ELi0ELi4ELi4EEEE14computeNormOfTEv
0000000000000000 W _ZN5Eigen9RealSchurINS_6MatrixIdLi4ELi4ELi0ELi4ELi4EEEE15splitOffTwoRowsElbRKd
0000000000000000 W _ZN5Eigen9RealSchurINS_6MatrixIdLi4ELi4ELi0ELi4ELi4EEEE20performFrancisQRStepElllbRKNS1_IdLi3ELi1ELi0ELi3ELi1EEEPd
                 U _ZN6Params11getInstanceEv
0000000000000000 W _ZN9CkpStreamD0Ev
0000000000000000 W _ZN9CkpStreamD1Ev
                 U _ZNK11ModelMarkov14getEigenvaluesEv
                 U _ZNK11ModelMarkov15getEigenvectorsEv
                 U _ZNK11ModelMarkov22getInverseEigenvectorsEv
                 U _ZNK11ModelMarkov32getInverseEigenvectorsTransposedEv
0000000000000000 W _ZNK5Eigen10MatrixBaseINS_5BlockINS1_INS_6MatrixIdLi4ELi4ELi0ELi4ELi4EEELi4ELi1ELb1EEELin1ELi1ELb0EEEE15makeHouseholderINS_11VectorBlockIS5_Lin1EEEEEvRT_RdSC_
0000000000000000 W _ZNK5Eigen10MatrixBaseINS_6MatrixIdLi2ELi1ELi0ELi2ELi1EEEE15makeHouseholderINS1_IdLi1ELi1ELi0ELi1ELi1EEEEEvRT_RdS8_
0000000000000000 W _ZNK5Eigen10MatrixBaseINS_6MatrixIdLi3ELi1ELi0ELi3ELi1EEEE15makeHouseholderINS1_IdLi2ELi1ELi0ELi2ELi1EEEEEvRT_RdS8_
0000000000000000 W _ZNK5Eigen11EigenSolverINS_6MatrixIdLi4ELi4ELi0ELi4ELi4EEEE12eigenvectorsEv
0000000000000000 W _ZNK5Eigen19HouseholderSequenceINS_6MatrixIdLi4ELi4ELi0ELi4ELi4EEENS1_IdLi3ELi1ELi0ELi3ELi1EEELi1EE18applyThisOnTheLeftIS2_NS1_IdLi4ELi1ELi0ELi4ELi1EEEEEvRT_RT0_b
0000000000000000 W _ZNK5Eigen19HouseholderSequenceINS_6MatrixIdLi4ELi4ELi0ELi4ELi4EEENS1_IdLi3ELi1ELi0ELi3ELi1EEELi1EE6evalToIS2_NS1_IdLi4ELi1ELi0ELi4ELi1EEEEEvRT_RT0_
0000000000000000 W _ZNK5Eigen8internal17product_evaluatorINS_7ProductINS_13CwiseBinaryOpINS0_17scalar_product_opIddEEKNS_14CwiseNullaryOpINS0_18scalar_constant_opIdEEKNS_6MatrixIdLin1ELi1ELi0ELi4ELi1EEEEEKNS_3MapISA_Li0ENS_6StrideILi0ELi0EEEEEEENS_9TransposeIKNS9_IdLi2ELi1ELi0ELi2ELi1EEEEELi1EEELi4ENS_10DenseShapeESP_ddE5coeffEll
0000000000000000 W _ZNK5Eigen8internal17product_evaluatorINS_7ProductINS_13CwiseBinaryOpINS0_17scalar_product_opIddEEKNS_14CwiseNullaryOpINS0_18scalar_constant_opIdEEKNS_6MatrixIdLin1ELi1ELi0ELi4ELi1EEEEEKNS_3MapISA_Li0ENS_6StrideILi0ELi0EEEEEEENS_9TransposeIKNS_5BlockIKNS9_IdLi4ELi4ELi0ELi4ELi4EEELin1ELi1ELb0EEEEELi1EEELi4ENS_10DenseShapeESS_ddE5coeffEll
0000000000000000 W _ZNK5Eigen8internal17product_evaluatorINS_7ProductINS_13CwiseBinaryOpINS0_17scalar_product_opIddEEKNS_14CwiseNullaryOpINS0_18scalar_constant_opIdEEKNS_6MatrixIdLin1ELi1ELi0ELi4ELi1EEEEEKNS_5BlockIKNS9_IdLi4ELi4ELi0ELi4ELi4EEELin1ELi1ELb0EEEEENS_3MapINS9_IdLi1ELin1ELi1ELi1ELi4EEELi0ENS_6StrideILi0ELi0EEEEELi1EEELi4ENS_10DenseShapeESQ_ddE5coeffEll
0000000000000000 W _ZNK5Eigen8internal17product_evaluatorINS_7ProductINS_13CwiseBinaryOpINS0_17scalar_product_opIddEEKNS_14CwiseNullaryOpINS0_18scalar_constant_opIdEEKNS_6MatrixIdLin1ELi1ELi0ELi4ELi1EEEEEKNS_5BlockINSE_INS9_IdLi4ELi4ELi0ELi4ELi4EEELi4ELi1ELb1EEELin1ELi1ELb0EEEEENS_3MapINS9_IdLi1ELin1ELi1ELi1ELi4EEELi0ENS_6StrideILi0ELi0EEEEELi1EEELi4ENS_10DenseShapeESQ_ddE5coeffEll
0000000000000000 W _ZNK5Eigen8internal17product_evaluatorINS_7ProductINS_5BlockINS3_INS_6MatrixIdLi4ELi4ELi0ELi4ELi4EEELin1ELin1ELb0EEELin1ELi2ELb0EEENS4_IdLi2ELi1ELi0ELi2ELi1EEELi1EEELi3ENS_10DenseShapeESA_ddE5coeffEl
0000000000000000 W _ZNK5Eigen8internal17product_evaluatorINS_7ProductINS_5BlockINS3_INS_6MatrixIdLi4ELi4ELi0ELi4ELi4EEELin1ELin1ELb0EEELin1ELin1ELb0EEENS3_IKS5_Lin1ELi1ELb0EEELi1EEELi3ENS_10DenseShapeESB_ddE5coeffEl
                 U _ZNKSt5ctypeIcE13_M_widen_initEv
0000000000000000 W _ZNKSt5ctypeIcE8do_widenEc
                 U _ZNKSt7__cxx1112basic_stringIcSt11char_traitsIcESaIcEE4findEPKcm
                 U _ZNKSt7__cxx1112basic_stringIcSt11char_traitsIcESaIcEE4findEPKcmm
                 U _ZNKSt7__cxx1112basic_stringIcSt11char_traitsIcESaIcEE4findEcm
                 U _ZNKSt7__cxx1112basic_stringIcSt11char_traitsIcESaIcEE7compareEPKc
                 U _ZNSdD2Ev
                 U _ZNSi10_M_extractIdEERSiRT_
                 U _ZNSo3putEc
                 U _ZNSo5flushEv
                 U _ZNSo9_M_insertIdEERSoT_
                 U _ZNSolsEi
                 U _ZNSt6localeC1Ev
                 U _ZNSt6localeD1Ev
                 U _ZNSt7__cxx1112basic_stringIcSt11char_traitsIcESaIcEE10_M_replaceEmmPKcm
                 U _ZNSt7__cxx1112basic_stringIcSt11char_traitsIcESaIcEE7reserveEm
                 U _ZNSt7__cxx1112basic_stringIcSt11char_traitsIcESaIcEE8_M_eraseEmm
                 U _ZNSt7__cxx1112basic_stringIcSt11char_traitsIcESaIcEE9_M_appendEPKcm
                 U _ZNSt7__cxx1112basic_stringIcSt11char_traitsIcESaIcEE9_M_assignERKS4_
                 U _ZNSt7__cxx1112basic_stringIcSt11char_traitsIcESaIcEE9_M_createERmm
                 U _ZNSt7__cxx1115basic_stringbufIcSt11char_traitsIcESaIcEE7_M_syncEPcmm
0000000000000000 W _ZNSt7__cxx1115basic_stringbufIcSt11char_traitsIcESaIcEED0Ev
0000000000000000 W _ZNSt7__cxx1115basic_stringbufIcSt11char_traitsIcESaIcEED1Ev
0000000000000000 W _ZNSt7__cxx1115basic_stringbufIcSt11char_traitsIcESaIcEED2Ev
0000000000000000 W _ZNSt8_Rb_treeINSt7__cxx1112basic_stringIcSt11char_traitsIcESaIcEEESt4pairIKS5_S5_ESt10_Select1stIS8_ESt4lessIS5_ESaIS8_EE24_M_get_insert_unique_posERS7_
0000000000000000 W _ZNSt8_Rb_treeINSt7__cxx1112basic_stringIcSt11char_traitsIcESaIcEEESt4pairIKS5_S5_ESt10_Select1stIS8_ESt4lessIS5_ESaIS8_EE29_M_get_insert_hint_unique_posESt23_Rb_tree_const_iteratorIS8_ERS7_
                 U _ZNSt8ios_base4InitC1Ev
                 U _ZNSt8ios_base4InitD1Ev
                 U _ZNSt8ios_baseC2Ev
                 U _ZNSt8ios_baseD2Ev
                 U _ZNSt9bad_allocD1Ev
                 U _ZNSt9basic_iosIcSt11char_traitsIcEE4initEPSt15basic_streambufIcS1_E
                 U _ZSt16__ostream_insertIcSt11char_traitsIcEERSt13basic_ostreamIT_T0_ES6_PKS3_l
                 U _ZSt16__throw_bad_castv
                 U _ZSt18_Rb_tree_decrementPSt18_Rb_tree_node_base
                 U _ZSt18_Rb_tree_incrementPSt18_Rb_tree_node_base
                 U _ZSt19__throw_logic_errorPKc
                 U _ZSt20__throw_length_errorPKc
                 U _ZSt24__throw_out_of_range_fmtPKcz
                 U _ZSt29_Rb_tree_insert_and_rebalancebPSt18_Rb_tree_node_baseS0_RS_
                 U _ZSt4cerr
                 U _ZSt4cout
                 U _ZSt4endlIcSt11char_traitsIcEERSt13basic_ostreamIT_T0_ES6_
                 U _ZStlsISt11char_traitsIcEERSt13basic_ostreamIcT_ES5_PKc
                 U _ZStlsIdcSt11char_traitsIcEERSt13basic_ostreamIT0_T1_ES6_RKSt7complexIT_E
0000000000000000 W _ZStplIcSt11char_traitsIcESaIcEENSt7__cxx1112basic_stringIT_T0_T1_EEPKS5_RKS8_
0000000000000000 W _ZStplIcSt11char_traitsIcESaIcEENSt7__cxx1112basic_stringIT_T0_T1_EERKS8_SA_
0000000000000000 V _ZTC9CkpStream0_NSt7__cxx1118basic_stringstreamIcSt11char_traitsIcESaIcEEE
0000000000000000 V _ZTC9CkpStream0_Sd
0000000000000000 V _ZTC9CkpStream0_Si
0000000000000000 V _ZTC9CkpStream16_So
                 U _ZTI11ModelMarkov
0000000000000000 V _ZTI14ModelLieMarkov
0000000000000000 V _ZTI9CkpStream
                 U _ZTINSt7__cxx1118basic_stringstreamIcSt11char_traitsIcESaIcEEE
                 U _ZTIPKc
                 U _ZTISd
                 U _ZTISi
                 U _ZTISo
                 U _ZTISt9bad_alloc
0000000000000000 V _ZTS14ModelLieMarkov
0000000000000000 V _ZTS9CkpStream
0000000000000000 V _ZTT9CkpStream
0000000000000000 V _ZTV14ModelLieMarkov
0000000000000000 V _ZTV9CkpStream
                 U _ZTVN10__cxxabiv120__si_class_type_infoE
                 U _ZTVNSt7__cxx1115basic_stringbufIcSt11char_traitsIcESaIcEEE
                 U _ZTVSt15basic_streambufIcSt11char_traitsIcEE
                 U _ZTVSt9bad_alloc
                 U _ZTVSt9basic_iosIcSt11char_traitsIcEE
00000000000000b0 W _ZThn16_N9CkpStreamD0Ev
0000000000000160 W _ZThn16_N9CkpStreamD1Ev
0000000000000000 T _ZThn8_N14ModelLieMarkov14saveCheckpointEv
0000000000000000 T _ZThn8_N14ModelLieMarkov15startCheckpointEv
0000000000000000 T _ZThn8_N14ModelLieMarkov17restoreCheckpointEv
0000000000000000 T _ZThn8_N14ModelLieMarkovD0Ev
0000000000000000 T _ZThn8_N14ModelLieMarkovD1Ev
0000000000000160 W _ZTv0_n24_N9CkpStreamD0Ev
00000000000000b0 W _ZTv0_n24_N9CkpStreamD1Ev
0000000000000000 u _ZZN5Eigen8internal20manage_caching_sizesENS_6ActionEPlS2_S2_E12m_cacheSizes
                 U _ZdaPv
                 U _ZdlPv
                 U _Znam
                 U _Znwm
                 U __assert_fail
                 U __cxa_allocate_exception
                 U __cxa_atexit
                 U __cxa_begin_catch
                 U __cxa_end_catch
                 U __cxa_guard_acquire
                 U __cxa_guard_release
                 U __cxa_rethrow
                 U __cxa_throw
                 U __cxa_throw_bad_array_new_length
                 U __divdc3
                 U __dso_handle
                 U __gxx_personality_v0
                 U __muldc3
                 U abort
                 U cabs
                 U calloc
                 U free
                 U malloc
                 U memcmp
                 U memcpy
                 U memset
                 U snprintf
                 U sqrt
                 U strlen
                 U strrchr
                 U tolower
                 U verbose_mode

modelmarkov.cpp.o:
0000000000000000 V DW.ref._ZTINSt7__cxx1112basic_stringIcSt11char_traitsIcESaIcEEE
0000000000000000 V DW.ref._ZTIPKc
0000000000000000 V DW.ref.__gxx_personality_v0
                 U GOMP_parallel
                 U _GLOBAL_OFFSET_TABLE_
                 U _Unwind_Resume
0000000000000000 W _Z10_my_assertPKcS0_S0_i
                 U _Z10fileExistsNSt7__cxx1112basic_stringIcSt11char_traitsIcESaIcEEE
                 U _Z10outWarningPKc
0000000000000000 W _Z13aligned_allocISt7complexIdEEPT_m
0000000000000000 W _Z13aligned_allocIdEPT_m
0000000000000000 T _Z14freqTypeStringB5cxx1113StateFreqTypeN3PML7SeqTypeEb
                 U _Z16print_stacktraceRSoj
                 U _Z17forceFreqsConformPd13StateFreqType
                 U _Z18convertIntToStringB5cxx11i
                 U _Z20convertInt64ToStringB5cxx11l
                 U _Z20setBoundsForFreqTypePdS_Pbd13StateFreqType
0000000000000000 T _Z27computeStateFreqFromQMatrixPdS_i
                 U _Z32convert_double_with_distributionPKcRibc
                 U _Z32convert_double_with_distributionPKcb
0000000000000000 T _Z6matinvPdiiS_
                 U _Z8outErrorNSt7__cxx1112basic_stringIcSt11char_traitsIcESaIcEEEb
                 U _Z8outErrorPKcNSt7__cxx1112basic_stringIcSt11char_traitsIcESaIcEEEb
                 U _Z8outErrorPKcS0_b
                 U _Z8outErrorPKcb
0000000000000000 u _ZGVZN5Eigen8internal20manage_caching_sizesENS_6ActionEPlS2_S2_E12m_cacheSizes
                 U _ZN10Checkpoint11startStructENSt7__cxx1112basic_stringIcSt11char_traitsIcESaIcEEE
0000000000000000 W _ZN10ModelSubst11isLieMarkovEv
                 U _ZN10ModelSubst12computeTransEdiii
                 U _ZN10ModelSubst12computeTransEdiiiRdS0_
0000000000000000 W _ZN10ModelSubst12getNMixturesEv
0000000000000000 W _ZN10ModelSubst13fixParametersEb
0000000000000000 W _ZN10ModelSubst13getDNAErrProbEi
0000000000000000 W _ZN10ModelSubst13getPtnModelIDEi
0000000000000000 W _ZN10ModelSubst14isMixtureSameQEv
                 U _ZN10ModelSubst14newTransMatrixEv
                 U _ZN10ModelSubst14saveCheckpointEv
0000000000000000 W _ZN10ModelSubst15containDNAerrorEv
0000000000000000 W _ZN10ModelSubst15getMixtureClassEi
0000000000000000 W _ZN10ModelSubst15setMixtureClassEiPS_
0000000000000000 W _ZN10ModelSubst16getMixtureWeightEi
0000000000000000 W _ZN10ModelSubst16getMutationModelEv
0000000000000000 W _ZN10ModelSubst16setMixtureWeightEid
0000000000000000 W _ZN10ModelSubst16setOptimizeStepsEi
                 U _ZN10ModelSubst17restoreCheckpointEv
                 U _ZN10ModelSubst17setStateFrequencyEPd
0000000000000000 W _ZN10ModelSubst18getTransMatrixSizeEv
0000000000000000 W _ZN10ModelSubst19isPolymorphismAwareEv
0000000000000000 W _ZN10ModelSubst19isSiteSpecificModelEv
0000000000000000 W _ZN10ModelSubst19setFixMixtureWeightEb
                 U _ZN10ModelSubst20computeTipLikelihoodEjPd
0000000000000000 W _ZN10ModelSubst6reportERSo
0000000000000000 W _ZN10ModelSubst7isFusedEv
0000000000000000 W _ZN10ModelSubst9isMixtureEv
                 U _ZN10ModelSubstC2Ei
                 U _ZN10ModelSubstD2Ev
0000000000000000 T _ZN11ModelMarkov10dotProductEPKdS1_i
0000000000000000 W _ZN11ModelMarkov10getNParamsEv
0000000000000000 T _ZN11ModelMarkov10getQMatrixEPdi
0000000000000000 W _ZN11ModelMarkov10setNParamsEi
0000000000000000 T _ZN11ModelMarkov10targetFunkEPd
0000000000000000 W _ZN11ModelMarkov11getFreqTypeEv
0000000000000000 T _ZN11ModelMarkov11getNDimFreqEv
0000000000000000 T _ZN11ModelMarkov12computeTransEdii
0000000000000000 T _ZN11ModelMarkov12computeTransEdiiRdS0_
0000000000000000 T _ZN11ModelMarkov12getVariablesEPd
0000000000000000 W _ZN11ModelMarkov12isReversibleEv
0000000000000000 T _ZN11ModelMarkov12report_ratesERSoNSt7__cxx1112basic_stringIcSt11char_traitsIcESaIcEEEPd
0000000000000000 T _ZN11ModelMarkov12setVariablesEPd
0000000000000000 T _ZN11ModelMarkov13getNameParamsB5cxx11Eb
0000000000000000 T _ZN11ModelMarkov13getRateMatrixEPd
0000000000000000 T _ZN11ModelMarkov13readStateFreqENSt7__cxx1112basic_stringIcSt11char_traitsIcESaIcEEE
0000000000000000 T _ZN11ModelMarkov13readStateFreqERSi
0000000000000000 T _ZN11ModelMarkov13setRateMatrixEPd
0000000000000000 T _ZN11ModelMarkov13setReversibleEbb
0000000000000000 T _ZN11ModelMarkov14getModelByNameENSt7__cxx1112basic_stringIcSt11char_traitsIcESaIcEEEP9PhyloTreeS5_13StateFreqTypeS5_
0000000000000000 T _ZN11ModelMarkov14readParametersEPKcb
0000000000000000 T _ZN11ModelMarkov14saveCheckpointEv
0000000000000000 T _ZN11ModelMarkov14scaleStateFreqEb
0000000000000000 T _ZN11ModelMarkov14setEigenvaluesEPd
